 SE

 Timestamp is 633caf16 (Tue Oct  4 18:09:26 2022)

 Preferred load address is 00400000

 Start         Length     Name                   Class
 0001:00000000 00005538H .text                   CODE
 0001:00005538 0000b908H .text$di                CODE
 0001:00010e40 00116b3dH .text$mn                CODE
 0001:0012797d 000046a6H .text$x                 CODE
 0001:0012c023 00000b82H .text$yd                CODE
 0002:00000000 000004f0H .idata$5                DATA
 0002:000004f0 00000008H .00cfg                  DATA
 0002:000004f8 00000004H .CRT$XCA                DATA
 0002:000004fc 00000004H .CRT$XCAA               DATA
 0002:00000500 00001548H .CRT$XCU                DATA
 0002:00001a48 00000004H .CRT$XCZ                DATA
 0002:00001a4c 00000004H .CRT$XIA                DATA
 0002:00001a50 00000004H .CRT$XIAA               DATA
 0002:00001a54 00000004H .CRT$XIAC               DATA
 0002:00001a58 00000018H .CRT$XIC                DATA
 0002:00001a70 00000004H .CRT$XIZ                DATA
 0002:00001a74 00000004H .CRT$XLA                DATA
 0002:00001a78 00000004H .CRT$XLZ                DATA
 0002:00001a7c 00000004H .CRT$XPA                DATA
 0002:00001a80 00000008H .CRT$XPX                DATA
 0002:00001a88 00000004H .CRT$XPXA               DATA
 0002:00001a8c 00000004H .CRT$XPZ                DATA
 0002:00001a90 00000004H .CRT$XTA                DATA
 0002:00001a94 0000000cH .CRT$XTZ                DATA
 0002:00001a98 00000000H .gfids$y                DATA
 0002:00001aa0 00023da0H .rdata                  DATA
 0002:00025840 00000000H .rdata$CastGuardVftablesA DATA
 0002:00025840 00000000H .rdata$CastGuardVftablesC DATA
 0002:00025840 00000018H .rdata$T                DATA
 0002:00025858 00001684H .rdata$r                DATA
 0002:00026edc 000000e8H .rdata$voltmd           DATA
 0002:00026fc4 0000040cH .rdata$zzzdbg           DATA
 0002:000273d0 00000004H .rtc$IAA                DATA
 0002:000273d4 00000004H .rtc$IZZ                DATA
 0002:000273d8 00000004H .rtc$TAA                DATA
 0002:000273dc 00000004H .rtc$TZZ                DATA
 0002:000273e0 00000004H .tls                    DATA
 0002:000273e4 00000004H .tls$                   DATA
 0002:000273e8 00000008H .tls$ZZZ                DATA
 0002:000273f0 0000659cH .xdata$x                DATA
 0002:0002d98c 00000000H .edata                  DATA
 0002:0002d98c 000000c8H .idata$2                DATA
 0002:0002da54 00000014H .idata$3                DATA
 0002:0002da68 000004f0H .idata$4                DATA
 0002:0002df58 0000135eH .idata$6                DATA
 0003:00000000 00004680H .data                   DATA
 0003:00004680 00000110H .data$r                 DATA
 0003:00004790 000007f0H .data$rs                DATA
 0003:00004f80 000a22b4H .bss                    DATA
 0004:00000000 00000100H .rsrc$01                DATA
 0004:00000100 00002740H .rsrc$02                DATA

  Address         Publics by Value              Rva+Base       Lib:Object

 0000:00000000       ___AbsoluteZero            00000000     <absolute>
 0000:00000000       ___arm64x_extra_rfe_table  00000000     <absolute>
 0000:00000000       ___arm64x_extra_rfe_table_size 00000000     <absolute>
 0000:00000000       ___arm64x_native_entrypoint 00000000     <absolute>
 0000:00000000       ___arm64x_redirection_metadata 00000000     <absolute>
 0000:00000000       ___arm64x_redirection_metadata_count 00000000     <absolute>
 0000:00000000       ___dynamic_value_reloc_table 00000000     <absolute>
 0000:00000000       ___enclave_config          00000000     <absolute>
 0000:00000000       ___guard_check_icall_a64n_fptr 00000000     <absolute>
 0000:00000000       ___guard_eh_cont_count     00000000     <absolute>
 0000:00000000       ___guard_eh_cont_table     00000000     <absolute>
 0000:00000000       ___guard_fids_count        00000000     <absolute>
 0000:00000000       ___guard_fids_table        00000000     <absolute>
 0000:00000000       ___guard_iat_count         00000000     <absolute>
 0000:00000000       ___guard_iat_table         00000000     <absolute>
 0000:00000000       ___guard_longjmp_count     00000000     <absolute>
 0000:00000000       ___guard_longjmp_table     00000000     <absolute>
 0000:00000000       ___hybrid_auxiliary_iat    00000000     <absolute>
 0000:00000000       ___hybrid_auxiliary_iat_copy 00000000     <absolute>
 0000:00000000       ___hybrid_code_map         00000000     <absolute>
 0000:00000000       ___hybrid_code_map_count   00000000     <absolute>
 0000:00000000       ___safe_se_handler_count   00000000     <absolute>
 0000:00000000       ___safe_se_handler_table   00000000     <absolute>
 0000:00000000       ___x64_code_ranges_to_entry_points 00000000     <absolute>
 0000:00000000       ___x64_code_ranges_to_entry_points_count 00000000     <absolute>
 0000:00000000       __except_list              00000000     <absolute>
 0000:0000002c       __tls_array                0000002c     <absolute>
 0000:00000100       ___guard_flags             00000100     <absolute>
 0000:00000000       ___ImageBase               00400000     <linker-defined>
 0001:00000000       _enet_host_compress        00401000 f   enet:host.o
 0001:00000050       _enet_host_channel_limit   00401050 f   enet:host.o
 0001:0000007c       _enet_host_bandwidth_limit 0040107c f   enet:host.o
 0001:00000098       _enet_host_bandwidth_throttle 00401098 f   enet:host.o
 0001:00000480       _enet_host_broadcast       00401480 f   enet:host.o
 0001:00000510       _enet_host_connect         00401510 f   enet:host.o
 0001:00000754       _enet_host_destroy         00401754 f   enet:host.o
 0001:000007f8       _enet_host_create          004017f8 f   enet:host.o
 0001:00000b74       _enet_peer_throttle        00401b74 f   enet:peer.o
 0001:00000bec       _enet_peer_queue_acknowledgement 00401bec f   enet:peer.o
 0001:00000ca8       _enet_peer_dispatch_incoming_unreliable_commands 00401ca8 f   enet:peer.o
 0001:00000d28       _enet_peer_setup_outgoing_command 00401d28 f   enet:peer.o
 0001:00000e5c       _enet_peer_receive         00401e5c f   enet:peer.o
 0001:00000ec4       _enet_peer_dispatch_incoming_reliable_commands 00401ec4 f   enet:peer.o
 0001:00000ff8       _enet_peer_queue_incoming_command 00401ff8 f   enet:peer.o
 0001:00001334       _enet_peer_reset_queues    00402334 f   enet:peer.o
 0001:00001680       _enet_peer_reset           00402680 f   enet:peer.o
 0001:000017dc       _enet_peer_queue_outgoing_command 004027dc f   enet:peer.o
 0001:0000198c       _enet_peer_ping            0040298c f   enet:peer.o
 0001:000019c8       _enet_peer_disconnect      004029c8 f   enet:peer.o
 0001:00001a70       _enet_peer_disconnect_now  00402a70 f   enet:peer.o
 0001:00001c30       _enet_peer_send            00402c30 f   enet:peer.o
 0001:00001f14       _enet_peer_throttle_configure 00402f14 f   enet:peer.o
 0001:000020f0       _enet_peer_disconnect_later 004030f0 f   enet:peer.o
 0001:000021f8       _enet_socketset_select     004031f8 f   enet:win32.o
 0001:0000224c       _enet_socket_wait          0040324c f   enet:win32.o
 0001:00002360       _enet_socket_receive       00403360 f   enet:win32.o
 0001:00002414       _enet_socket_send          00403414 f   enet:win32.o
 0001:000024ac       _enet_socket_destroy       004034ac f   enet:win32.o
 0001:000024bc       _enet_socket_accept        004034bc f   enet:win32.o
 0001:0000251c       _enet_socket_connect       0040351c f   enet:win32.o
 0001:00002574       _enet_socket_set_option    00403574 f   enet:win32.o
 0001:00002648       _enet_socket_create        00403648 f   enet:win32.o
 0001:00002664       _enet_socket_listen        00403664 f   enet:win32.o
 0001:00002690       _enet_socket_bind          00403690 f   enet:win32.o
 0001:00002700       _enet_address_get_host_ip  00403700 f   enet:win32.o
 0001:0000273c       _enet_address_set_host     0040373c f   enet:win32.o
 0001:00002784       _enet_time_set             00403784 f   enet:win32.o
 0001:0000279c       _enet_time_get             0040379c f   enet:win32.o
 0001:000027b0       _enet_deinitialize         004037b0 f   enet:win32.o
 0001:000027c4       _enet_initialize           004037c4 f   enet:win32.o
 0001:00002814       _enet_address_get_host     00403814 f   enet:win32.o
 0001:00002880       _enet_protocol_command_size 00403880 f   enet:protocol.o
 0001:00002ce0       _enet_host_check_events    00403ce0 f   enet:protocol.o
 0001:00003868       _enet_host_flush           00404868 f   enet:protocol.o
 0001:00003888       _enet_host_service         00404888 f   enet:protocol.o
 0001:0000513c       _enet_crc32                0040613c f   enet:packet.o
 0001:00005310       _enet_packet_resize        00406310 f   enet:packet.o
 0001:00005380       _enet_packet_destroy       00406380 f   enet:packet.o
 0001:000053bc       _enet_packet_create        004063bc f   enet:packet.o
 0001:00005444       _enet_malloc               00406444 f   enet:callbacks.o
 0001:0000546c       _enet_free                 0040646c f   enet:callbacks.o
 0001:00005474       _enet_initialize_with_callbacks 00406474 f   enet:callbacks.o
 0001:000054bc       _enet_list_clear           004064bc f   enet:list.o
 0001:000054c8       _enet_list_insert          004064c8 f   enet:list.o
 0001:000054e0       _enet_list_remove          004064e0 f   enet:list.o
 0001:000054f4       _enet_list_move            004064f4 f   enet:list.o
 0001:00005520       _enet_list_size            00406520 f   enet:list.o
 0001:00010e40       ?clear@editline@@QAEXXZ    00411e40 f i 3dgui.obj
 0001:00010e5d       ?grow@editline@@QAA_NHPBDZZ 00411e5d f i 3dgui.obj
 0001:00010ec5       ?set@editline@@QAEXPBDH@Z  00411ec5 f i 3dgui.obj
 0001:00010f2f       ?prepend@editline@@QAEXPBD@Z 00411f2f f i 3dgui.obj
 0001:00010f91       ?append@editline@@QAEXPBD@Z 00411f91 f i 3dgui.obj
 0001:00010fe6       ?read@editline@@QAE_NPAUstream@@H@Z 00411fe6 f i 3dgui.obj
 0001:000110cc       ?del@editline@@QAEXHH@Z    004120cc f i 3dgui.obj
 0001:00011121       ?chop@editline@@QAEXH@Z    00412121 f i 3dgui.obj
 0001:00011146       ?insert@editline@@QAEXPADHH@Z 00412146 f i 3dgui.obj
 0001:000111be       ?combinelines@editline@@QAEXAAU?$vector@Ueditline@@@@@Z 004121be f i 3dgui.obj
 0001:0001121f       ??1editor@@QAE@XZ          0041221f f i 3dgui.obj
 0001:00011288       ?clear@editor@@QAEXPBD@Z   00412288 f i 3dgui.obj
 0001:000112eb       ?setfile@editor@@QAEXPBD@Z 004122eb f i 3dgui.obj
 0001:00011324       ?load@editor@@QAEXXZ       00412324 f i 3dgui.obj
 0001:000113a5       ?save@editor@@QAEXXZ       004123a5 f i 3dgui.obj
 0001:000113ee       ?mark@editor@@QAEX_N@Z     004123ee f i 3dgui.obj
 0001:00011409       ?region@editor@@QAE_NAAH000@Z 00412409 f i 3dgui.obj
 0001:000114ea       ?currentline@editor@@QAEAAUeditline@@XZ 004124ea f i 3dgui.obj
 0001:00011530       ?copyselectionto@editor@@QAEXPAU1@@Z 00412530 f i 3dgui.obj
 0001:00011610       ?tostring@editor@@QAEPADXZ 00412610 f i 3dgui.obj
 0001:00011694       ?selectiontostring@editor@@QAEPADXZ 00412694 f i 3dgui.obj
 0001:00011768       ?removelines@editor@@QAEXHH@Z 00412768 f i 3dgui.obj
 0001:000117cf       ?del@editor@@QAEXXZ        004127cf f i 3dgui.obj
 0001:000118c7       ?insert@editor@@QAEXD@Z    004128c7 f i 3dgui.obj
 0001:00011977       ?insertallfrom@editor@@QAEXPAU1@@Z 00412977 f i 3dgui.obj
 0001:00011a8c       ?key@editor@@QAEXHH@Z      00412a8c f i 3dgui.obj
 0001:00011cce       ?hit@editor@@QAEXHH_N@Z    00412cce f i 3dgui.obj
 0001:00011d78       ?draw@editor@@QAEXHHH_N@Z  00412d78 f i 3dgui.obj
 0001:0001245d       ?allowautotab@gui@@UAEX_N@Z 0041345d f i 3dgui.obj
 0001:00012469       ?autotab@gui@@QAEXXZ       00413469 f i 3dgui.obj
 0001:000124d8       ?shouldtab@gui@@UAE_NXZ    004134d8 f i 3dgui.obj
 0001:00012560       ?visible@gui@@QAE_NXZ      00413560 f i 3dgui.obj
 0001:00012582       ?tab@gui@@UAEXPBDH@Z       00413582 f i 3dgui.obj
 0001:00012776       ?pushlist@gui@@UAEXH@Z     00413776 f i 3dgui.obj
 0001:000128a5       ?poplist@gui@@UAEXXZ       004138a5 f i 3dgui.obj
 0001:000129bf       ?text@gui@@UAEHPBDH0@Z     004139bf f i 3dgui.obj
 0001:000129e2       ?button@gui@@UAEHPBDH0@Z   004139e2 f i 3dgui.obj
 0001:00012a05       ?title@gui@@UAEHPBDH0@Z    00413a05 f i 3dgui.obj
 0001:00012a28       ?separator@gui@@UAEXXZ     00413a28 f i 3dgui.obj
 0001:00012a43       ?progress@gui@@UAEXM@Z     00413a43 f i 3dgui.obj
 0001:00012a6d       ?strut@gui@@UAEXM@Z        00413a6d f i 3dgui.obj
 0001:00012ab1       ?space@gui@@UAEXM@Z        00413ab1 f i 3dgui.obj
 0001:00012af9       ?layout@gui@@QAEHHH@Z      00413af9 f i 3dgui.obj
 0001:00012ba2       ?mergehits@gui@@UAEX_N@Z   00413ba2 f i 3dgui.obj
 0001:00012bae       ?ishit@gui@@QAE_NHHHH@Z    00413bae f i 3dgui.obj
 0001:00012caa       ?image@gui@@UAEHPAUTexture@@M_N@Z 00413caa f i 3dgui.obj
 0001:00012d3a       ?texture@gui@@UAEHAAUVSlot@@M_N@Z 00413d3a f i 3dgui.obj
 0001:00012dd6       ?slider@gui@@UAEXAAHHHHPAD@Z 00413dd6 f i 3dgui.obj
 0001:0001304a       ?field@gui@@UAEPADPBDHHH0H@Z 0041404a f i 3dgui.obj
 0001:0001306a       ?keyfield@gui@@UAEPADPBDHHH0H@Z 0041406a f i 3dgui.obj
 0001:0001308a       ?field_@gui@@QAEPADPBDHHH0HH@Z 0041408a f i 3dgui.obj
 0001:0001347b       ?rect_@gui@@QAEXMMMMH_N@Z  0041447b f i 3dgui.obj
 0001:000135fa       ?text_@gui@@QAEXPBDHHH_N@Z 004145fa f i 3dgui.obj
 0001:0001365c       ?background@gui@@UAEXHHH@Z 0041465c f i 3dgui.obj
 0001:00013748       ?icon_@gui@@QAEXPAUTexture@@_NHHH1@Z 00414748 f i 3dgui.obj
 0001:000139b1       ?previewslot@gui@@QAEXAAUVSlot@@_NHHH1@Z 004149b1 f i 3dgui.obj
 0001:0001412e       ?line_@gui@@QAEXHM@Z       0041512e f i 3dgui.obj
 0001:00014321       ?textbox@gui@@UAEXPBDHHH@Z 00415321 f i 3dgui.obj
 0001:000143a1       ?button_@gui@@QAEHPBDH0_N1@Z 004153a1 f i 3dgui.obj
 0001:0001459c       ?drawskin@gui@@SAXHHHHHHHABUvec@@M@Z 0041559c f i 3dgui.obj
 0001:00014a62       ?adjustscale@gui@@QAEXXZ   00415a62 f i 3dgui.obj
 0001:00014b94       ?start@gui@@UAEXHMPAH_N@Z  00415b94 f i 3dgui.obj
 0001:00014f7e       ?end@gui@@UAEXXZ           00415f7e f i 3dgui.obj
 0001:00015348       ??1?$vector@D@@QAE@XZ      00416348 f i 3dgui.obj
 0001:00015348       ??1?$vector@E@@QAE@XZ      00416348 f i octaedit.obj
 0001:00015348       ??1?$vector@G@@QAE@XZ      00416348 f i octaedit.obj
 0001:00015348       ??1?$vector@H@@QAE@XZ      00416348 f i lightmap.obj
 0001:00015348       ??1?$vector@I@@QAE@XZ      00416348 f i server1.obj
 0001:00015348       ??1?$vector@PAD@@QAE@XZ    00416348 f i command.obj
 0001:00015348       ??1?$vector@PAU?$vector@D@@@@QAE@XZ 00416348 f i command.obj
 0001:00015348       ??1?$vector@PAUBlendBrush@@@@QAE@XZ 00416348 f i blend.obj
 0001:00015348       ??1?$vector@PAUShader@@@@QAE@XZ 00416348 f i shader.obj
 0001:00015348       ??1?$vector@PAUSlot@@@@QAE@XZ 00416348 f i texture.obj
 0001:00015348       ??1?$vector@PAUVSlot@@@@QAE@XZ 00416348 f i texture.obj
 0001:00015348       ??1?$vector@PAUauthkey@game@@@@QAE@XZ 00416348 f i client1.obj
 0001:00015348       ??1?$vector@PAUbouncer@game@@@@QAE@XZ 00416348 f i weapon.obj
 0001:00015348       ??1?$vector@PAUclient@@@@QAE@XZ 00416348 f i server.obj
 0001:00015348       ??1?$vector@PAUclientinfo@server@@@@QAE@XZ 00416348 f i server1.obj
 0001:00015348       ??1?$vector@PAUdynlight@@@@QAE@XZ 00416348 f i dynlight.obj
 0001:00015348       ??1?$vector@PAUeditinfo@@@@QAE@XZ 00416348 f i octaedit.obj
 0001:00015348       ??1?$vector@PAUeditor@@@@QAE@XZ 00416348 f i 3dgui.obj
 0001:00015348       ??1?$vector@PAUextentity@@@@QAE@XZ 00416348 f i entities.obj
 0001:00015348       ??1?$vector@PAUfont@@@@QAE@XZ 00416348 f i rendertext.obj
 0001:00015348       ??1?$vector@PAUfpsent@@@@QAE@XZ 00416348 f i fps.obj
 0001:00015348       ??1?$vector@PAUgameevent@server@@@@QAE@XZ 00416348 f i server1.obj
 0001:00015348       ??1?$vector@PAUhline@@@@QAE@XZ 00416348 f i console.obj
 0001:00015348       ??1?$vector@PAUident@@@@QAE@XZ 00416348 f i command.obj
 0001:00015348       ??1?$vector@PAUkeym@@@@QAE@XZ 00416348 f i console.obj
 0001:00015348       ??1?$vector@PAUlightmapworker@@@@QAE@XZ 00416348 f i lightmap.obj
 0001:00015348       ??1?$vector@PAUmaterialsurface@@@@QAE@XZ 00416348 f i material.obj
 0001:00015348       ??1?$vector@PAUmenu@@@@QAE@XZ 00416348 f i menus.obj
 0001:00015348       ??1?$vector@PAUmesh@animmodel@@@@QAE@XZ 00416348 f i rendermodel.obj
 0001:00015348       ??1?$vector@PAUmodelbatch@@@@QAE@XZ 00416348 f i rendermodel.obj
 0001:00015348       ??1?$vector@PAUmonster@game@@@@QAE@XZ 00416348 f i monster.obj
 0001:00015348       ??1?$vector@PAUmovable@game@@@@QAE@XZ 00416348 f i movable.obj
 0001:00015348       ??1?$vector@PAUoctaentities@@@@QAE@XZ 00416348 f i octarender.obj
 0001:00015348       ??1?$vector@PAUpart@animmodel@@@@QAE@XZ 00416348 f i rendermodel.obj
 0001:00015348       ??1?$vector@PAUphysent@@@@QAE@XZ 00416348 f i physics.obj
 0001:00015348       ??1?$vector@PAUplatforment@@@@QAE@XZ 00416348 f i physics.obj
 0001:00015348       ??1?$vector@PAUpvsworker@@@@QAE@XZ 00416348 f i pvs.obj
 0001:00015348       ??1?$vector@PAUscoregroup@game@@@@QAE@XZ 00416348 f i scoreboard.obj
 0001:00015348       ??1?$vector@PAUserverinfo@@@@QAE@XZ 00416348 f i serverbrowser.obj
 0001:00015348       ??1?$vector@PAUskelmeshgroup@skelmodel@@@@QAE@XZ 00416348 f i rendermodel.obj
 0001:00015348       ??1?$vector@PAUvtxarray@@@@QAE@XZ 00416348 f i octarender.obj
 0001:00015348       ??1?$vector@PAUwaypoint@ai@@@@QAE@XZ 00416348 f i waypoint.obj
 0001:00015348       ??1?$vector@PAUworldstate@server@@@@QAE@XZ 00416348 f i server1.obj
 0001:00015348       ??1?$vector@PAUwpcachenode@ai@@@@QAE@XZ 00416348 f i waypoint.obj
 0001:00015348       ??1?$vector@PAUziparchive@@@@QAE@XZ 00416348 f i zip.obj
 0001:00015348       ??1?$vector@PBD@@QAE@XZ    00416348 f i rendermodel.obj
 0001:00015348       ??1?$vector@PBUextentity@@@@QAE@XZ 00416348 f i lightmap.obj
 0001:00015348       ??1?$vector@TSDL_Event@@@@QAE@XZ 00416348 f i main.obj
 0001:00015348       ??1?$vector@UAttribLoc@@@@QAE@XZ 00416348 f i shader.obj
 0001:00015348       ??1?$vector@UBIHNode@@@@QAE@XZ 00416348 f i bih.obj
 0001:00015348       ??1?$vector@ULightMapTexture@@@@QAE@XZ 00416348 f i lightmap.obj
 0001:00015348       ??1?$vector@ULocalShaderParamState@@@@QAE@XZ 00416348 f i shader.obj
 0001:00015348       ??1?$vector@UShaderParam@@@@QAE@XZ 00416348 f i octaedit.obj
 0001:00015348       ??1?$vector@UTex@Slot@@@@QAE@XZ 00416348 f i texture.obj
 0001:00015348       ??1?$vector@UUniformLoc@@@@QAE@XZ 00416348 f i shader.obj
 0001:00015348       ??1?$vector@Uaistate@ai@@@@QAE@XZ 00416348 f i ai.obj
 0001:00015348       ??1?$vector@Uanimspec@animmodel@@@@QAE@XZ 00416348 f i rendermodel.obj
 0001:00015348       ??1?$vector@Uantipode@skelmodel@@@@QAE@XZ 00416348 f i rendermodel.obj
 0001:00015348       ??1?$vector@Uaviindexentry@@@@QAE@XZ 00416348 f i movie.obj
 0001:00015348       ??1?$vector@Uban@server@@@@QAE@XZ 00416348 f i server1.obj
 0001:00015348       ??1?$vector@Ubaseinfo@captureclientmode@game@@@@QAE@XZ 00416348 f i client1.obj
 0001:00015348       ??1?$vector@Ubaseinfo@captureservmode@server@@@@QAE@XZ 00416348 f i server1.obj
 0001:00015348       ??1?$vector@Ubatchedmodel@@@@QAE@XZ 00416348 f i rendermodel.obj
 0001:00015348       ??1?$vector@Ublendcombo@skelmodel@@@@QAE@XZ 00416348 f i rendermodel.obj
 0001:00015348       ??1?$vector@Uchange@@@@QAE@XZ 00416348 f i menus.obj
 0001:00015348       ??1?$vector@Ucharinfo@font@@@@QAE@XZ 00416348 f i rendertext.obj
 0001:00015348       ??1?$vector@Ucline@@@@QAE@XZ 00416348 f i console.obj
 0001:00015348       ??1?$vector@Ucrcinfo@server@@@@QAE@XZ 00416348 f i server1.obj
 0001:00015348       ??1?$vector@Ucubeedge@@@@QAE@XZ 00416348 f i octarender.obj
 0001:00015348       ??1?$vector@Ucubeface@@@@QAE@XZ 00416348 f i octa.obj
 0001:00015348       ??1?$vector@Udemofile@server@@@@QAE@XZ 00416348 f i server1.obj
 0001:00015348       ??1?$vector@Udistlimit@ragdollskel@@@@QAE@XZ 00416348 f i rendermodel.obj
 0001:00015348       ??1?$vector@Udualquat@@@@QAE@XZ 00416348 f i rendermodel.obj
 0001:00015348       ??1?$vector@Udynlight@@@@QAE@XZ 00416348 f i dynlight.obj
 0001:00015348       ??1?$vector@Ueditline@@@@QAE@XZ 00416348 f i 3dgui.obj
 0001:00015348       ??1?$vector@Uentity@@@@QAE@XZ 00416348 f i world.obj
 0001:00015348       ??1?$vector@Uenvmap@@@@QAE@XZ 00416348 f i texture.obj
 0001:00015348       ??1?$vector@Uflag@ctfclientmode@game@@@@QAE@XZ 00416348 f i client1.obj
 0001:00015348       ??1?$vector@Uflag@ctfservmode@server@@@@QAE@XZ 00416348 f i server1.obj
 0001:00015348       ??1?$vector@Ugbaninfo@server@@@@QAE@XZ 00416348 f i server1.obj
 0001:00015348       ??1?$vector@Ugeombatch@@@@QAE@XZ 00416348 f i renderva.obj
 0001:00015348       ??1?$vector@Ugrassgroup@@@@QAE@XZ 00416348 f i grass.obj
 0001:00015348       ??1?$vector@Ugrasstri@@@@QAE@XZ 00416348 f i octarender.obj
 0001:00015348       ??1?$vector@Ugrassvert@@@@QAE@XZ 00416348 f i grass.obj
 0001:00015348       ??1?$vector@Uhitinfo@server@@@@QAE@XZ 00416348 f i server1.obj
 0001:00015348       ??1?$vector@Uhitmsg@game@@@@QAE@XZ 00416348 f i weapon.obj
 0001:00015348       ??1?$vector@Uholdspawn@ctfclientmode@game@@@@QAE@XZ 00416348 f i client1.obj
 0001:00015348       ??1?$vector@Uholdspawn@ctfservmode@server@@@@QAE@XZ 00416348 f i server1.obj
 0001:00015348       ??1?$vector@Uinterest@ai@@@@QAE@XZ 00416348 f i ai.obj
 0001:00015348       ??1?$vector@Uiqmadjustment@@@@QAE@XZ 00416348 f i rendermodel.obj
 0001:00015348       ??1?$vector@Uivec@@@@QAE@XZ 00416348 f i worldio.obj
 0001:00015348       ??1?$vector@Ujoint@ragdollskel@@@@QAE@XZ 00416348 f i rendermodel.obj
 0001:00015348       ??1?$vector@Ulightmaptask@@@@QAE@XZ 00416348 f i lightmap.obj
 0001:00015348       ??1?$vector@Ulinkedpart@animmodel@@@@QAE@XZ 00416348 f i rendermodel.obj
 0001:00015348       ??1?$vector@Ulist@gui@@@@QAE@XZ 00416348 f i 3dgui.obj
 0001:00015348       ??1?$vector@Umapmodelinfo@@@@QAE@XZ 00416348 f i rendermodel.obj
 0001:00015348       ??1?$vector@Umaterialsurface@@@@QAE@XZ 00416348 f i octarender.obj
 0001:00015348       ??1?$vector@Umd5adjustment@@@@QAE@XZ 00416348 f i rendermodel.obj
 0001:00015348       ??1?$vector@Umd5hierarchy@@@@QAE@XZ 00416348 f i rendermodel.obj
 0001:00015348       ??1?$vector@Umd5joint@@@@QAE@XZ 00416348 f i rendermodel.obj
 0001:00015348       ??1?$vector@Umergedface@@@@QAE@XZ 00416348 f i octarender.obj
 0001:00015348       ??1?$vector@Umodelattach@@@@QAE@XZ 00416348 f i rendermodel.obj
 0001:00015348       ??1?$vector@Unormal@@@@QAE@XZ 00416348 f i normal.obj
 0001:00015348       ??1?$vector@Uobstacle@avoidset@ai@@@@QAE@XZ 00416348 f i ai.obj
 0001:00015348       ??1?$vector@Uparticleemitter@@@@QAE@XZ 00416348 f i renderparticles.obj
 0001:00015348       ??1?$vector@Uplatformcollision@@@@QAE@XZ 00416348 f i physics.obj
 0001:00015348       ??1?$vector@Uplatforment@@@@QAE@XZ 00416348 f i physics.obj
 0001:00015348       ??1?$vector@Upostfxpass@@@@QAE@XZ 00416348 f i shader.obj
 0001:00015348       ??1?$vector@Upostfxtex@@@@QAE@XZ 00416348 f i shader.obj
 0001:00015348       ??1?$vector@Upvsdata@@@@QAE@XZ 00416348 f i pvs.obj
 0001:00015348       ??1?$vector@Upvsnode@@@@QAE@XZ 00416348 f i pvs.obj
 0001:00015348       ??1?$vector@Ureleaseaction@@@@QAE@XZ 00416348 f i console.obj
 0001:00015348       ??1?$vector@Ureljoint@ragdollskel@@@@QAE@XZ 00416348 f i rendermodel.obj
 0001:00015348       ??1?$vector@Uresolverresult@@@@QAE@XZ 00416348 f i serverbrowser.obj
 0001:00015348       ??1?$vector@Uresolverthread@@@@QAE@XZ 00416348 f i serverbrowser.obj
 0001:00015348       ??1?$vector@Urotfriction@ragdollskel@@@@QAE@XZ 00416348 f i rendermodel.obj
 0001:00015348       ??1?$vector@Urotlimit@ragdollskel@@@@QAE@XZ 00416348 f i rendermodel.obj
 0001:00015348       ??1?$vector@Usavedscore@server@@@@QAE@XZ 00416348 f i server1.obj
 0001:00015348       ??1?$vector@Uscore@captureclientmode@game@@@@QAE@XZ 00416348 f i client1.obj
 0001:00015348       ??1?$vector@Uscore@captureservmode@server@@@@QAE@XZ 00416348 f i server1.obj
 0001:00015348       ??1?$vector@Userver_entity@server@@@@QAE@XZ 00416348 f i server1.obj
 0001:00015348       ??1?$vector@Uskelcacheentry@skelmodel@@@@QAE@XZ 00416348 f i rendermodel.obj
 0001:00015348       ??1?$vector@Uskin@animmodel@@@@QAE@XZ 00416348 f i rendermodel.obj
 0001:00015348       ??1?$vector@Usleepcmd@@@@QAE@XZ 00416348 f i command.obj
 0001:00015348       ??1?$vector@Usmdadjustment@@@@QAE@XZ 00416348 f i rendermodel.obj
 0001:00015348       ??1?$vector@Usmdbone@@@@QAE@XZ 00416348 f i rendermodel.obj
 0001:00015348       ??1?$vector@Usortkey@@@@QAE@XZ 00416348 f i octarender.obj
 0001:00015348       ??1?$vector@Usoundchannel@@@@QAE@XZ 00416348 f i sound.obj
 0001:00015348       ??1?$vector@Usoundslot@@@@QAE@XZ 00416348 f i sound.obj
 0001:00015348       ??1?$vector@Utcvert@vertmodel@@@@QAE@XZ 00416348 f i rendermodel.obj
 0001:00015348       ??1?$vector@Uteamscore@@@@QAE@XZ 00416348 f i scoreboard.obj
 0001:00015348       ??1?$vector@Utjoint@@@@QAE@XZ 00416348 f i octarender.obj
 0001:00015348       ??1?$vector@Utransparentmodel@@@@QAE@XZ 00416348 f i rendermodel.obj
 0001:00015348       ??1?$vector@Utri@BIH@@@@QAE@XZ 00416348 f i rendermodel.obj
 0001:00015348       ??1?$vector@Utri@ragdollskel@@@@QAE@XZ 00416348 f i rendermodel.obj
 0001:00015348       ??1?$vector@Utri@skelmodel@@@@QAE@XZ 00416348 f i rendermodel.obj
 0001:00015348       ??1?$vector@Utri@vertmodel@@@@QAE@XZ 00416348 f i rendermodel.obj
 0001:00015348       ??1?$vector@Uufval@unionfind@@@@QAE@XZ 00416348 f i material.obj
 0001:00015348       ??1?$vector@Uvec2@@@@QAE@XZ 00416348 f i worldio.obj
 0001:00015348       ??1?$vector@Uvec@@@@QAE@XZ 00416348 f i rendermodel.obj
 0001:00015348       ??1?$vector@Uvert@ragdollskel@@@@QAE@XZ 00416348 f i rendermodel.obj
 0001:00015348       ??1?$vector@Uvert@skelmodel@@@@QAE@XZ 00416348 f i rendermodel.obj
 0001:00015348       ??1?$vector@Uvert@vertmodel@@@@QAE@XZ 00416348 f i rendermodel.obj
 0001:00015348       ??1?$vector@Uvertex@@@@QAE@XZ 00416348 f i octarender.obj
 0001:00015348       ??1?$vector@Uviewcellrequest@@@@QAE@XZ 00416348 f i pvs.obj
 0001:00015348       ??1?$vector@Uvotecount@server@@@@QAE@XZ 00416348 f i server1.obj
 0001:00015348       ??1?$vector@Uvslotmap@@@@QAE@XZ 00416348 f i octaedit.obj
 0001:00015348       ??1?$vector@Uvvert@skelmodel@@@@QAE@XZ 00416348 f i rendermodel.obj
 0001:00015348       ??1?$vector@Uvvert@vertmodel@@@@QAE@XZ 00416348 f i rendermodel.obj
 0001:00015348       ??1?$vector@Uvvertbump@skelmodel@@@@QAE@XZ 00416348 f i rendermodel.obj
 0001:00015348       ??1?$vector@Uvvertbump@vertmodel@@@@QAE@XZ 00416348 f i rendermodel.obj
 0001:00015348       ??1?$vector@Uvvertbumpw@skelmodel@@@@QAE@XZ 00416348 f i rendermodel.obj
 0001:00015348       ??1?$vector@Uvvertff@vertmodel@@@@QAE@XZ 00416348 f i rendermodel.obj
 0001:00015348       ??1?$vector@Uvvertn@skelmodel@@@@QAE@XZ 00416348 f i rendermodel.obj
 0001:00015348       ??1?$vector@Uvvertw@skelmodel@@@@QAE@XZ 00416348 f i rendermodel.obj
 0001:00015348       ??1?$vector@Uwaterinfo@@@@QAE@XZ 00416348 f i material.obj
 0001:00015348       ??1?$vector@Uwaypoint@ai@@@@QAE@XZ 00416348 f i waypoint.obj
 0001:00015348       ??1?$vector@Uwpcachenode@ai@@@@QAE@XZ 00416348 f i waypoint.obj
 0001:00015365       ?insert@?$vector@PAUeditor@@@@QAEAAPAUeditor@@HABQAU2@@Z 00416365 f i 3dgui.obj
 0001:000153a6       ?remove@?$vector@PAUeditor@@@@QAEPAUeditor@@H@Z 004163a6 f i 3dgui.obj
 0001:000153e5       ?add@?$vector@PAUeditor@@@@QAEAAPAUeditor@@ABQAU2@@Z 004163e5 f i 3dgui.obj
 0001:00015429       ?put@?$vector@D@@QAEXPBDH@Z 00416429 f i 3dgui.obj
 0001:0001546d       ?add@?$vector@D@@QAEAADABD@Z 0041646d f i 3dgui.obj
 0001:0001546d       ?add@?$vector@E@@QAEAAEABE@Z 0041646d f i octaedit.obj
 0001:0001549e       ?insert@?$vector@Ueditline@@@@QAEAAUeditline@@HABU2@@Z 0041649e f i 3dgui.obj
 0001:00015507       ?add@?$vector@Ueditline@@@@QAEAAUeditline@@XZ 00416507 f i 3dgui.obj
 0001:00015539       ??_Egui@@UAEPAXI@Z         00416539 f i * CIL library *:* CIL module *
 0001:00015539       ??_Ggui@@UAEPAXI@Z         00416539 f i 3dgui.obj
 0001:00015583       ?growbuf@?$vector@Ugui@@@@QAEXH@Z 00416583 f i 3dgui.obj
 0001:00015583       ?growbuf@?$vector@Urotlimit@ragdollskel@@@@QAEXH@Z 00416583 f i rendermodel.obj
 0001:00015583       ?growbuf@?$vector@Uvvertbump@skelmodel@@@@QAEXH@Z 00416583 f i rendermodel.obj
 0001:00015583       ?growbuf@?$vector@Uvvertbump@vertmodel@@@@QAEXH@Z 00416583 f i rendermodel.obj
 0001:000155e2       ?growbuf@?$vector@Ulist@gui@@@@QAEXH@Z 004165e2 f i 3dgui.obj
 0001:00015658       ?growbuf@?$vector@PAUeditor@@@@QAEXH@Z 00416658 f i 3dgui.obj
 0001:000156d0       ?reserve@?$vector@D@@QAE?AU?$databuf@D@@H@Z 004166d0 f i 3dgui.obj
 0001:000156d0       ?reserve@?$vector@E@@QAE?AU?$databuf@E@@H@Z 004166d0 f i material.obj
 0001:00015703       ?growbuf@?$vector@D@@QAEXH@Z 00416703 f i 3dgui.obj
 0001:00015703       ?growbuf@?$vector@E@@QAEXH@Z 00416703 f i material.obj
 0001:0001575c       ?growbuf@?$vector@Uaviindexentry@@@@QAEXH@Z 0041675c f i movie.obj
 0001:0001575c       ?growbuf@?$vector@Ucubeface@@@@QAEXH@Z 0041675c f i octa.obj
 0001:0001575c       ?growbuf@?$vector@Ueditline@@@@QAEXH@Z 0041675c f i 3dgui.obj
 0001:0001575c       ?growbuf@?$vector@Uholdspawn@ctfservmode@server@@@@QAEXH@Z 0041675c f i server1.obj
 0001:0001575c       ?growbuf@?$vector@Uivec@@@@QAEXH@Z 0041675c f i worldio.obj
 0001:0001575c       ?growbuf@?$vector@Uobstacle@avoidset@ai@@@@QAEXH@Z 0041675c f i ai.obj
 0001:0001575c       ?growbuf@?$vector@Uskelanimspec@skelmodel@@@@QAEXH@Z 0041675c f i rendermodel.obj
 0001:0001575c       ?growbuf@?$vector@Usoundslot@@@@QAEXH@Z 0041675c f i sound.obj
 0001:0001575c       ?growbuf@?$vector@Utransparentmodel@@@@QAEXH@Z 0041675c f i rendermodel.obj
 0001:0001575c       ?growbuf@?$vector@Utri@ragdollskel@@@@QAEXH@Z 0041675c f i rendermodel.obj
 0001:0001575c       ?growbuf@?$vector@Uvec@@@@QAEXH@Z 0041675c f i rendermodel.obj
 0001:0001575c       ?growbuf@?$vector@Uvotecount@server@@@@QAEXH@Z 0041675c f i server1.obj
 0001:000157bb       ??1g3d_gui@@UAE@XZ         004167bb f i 3dgui.obj
 0001:000157c2       ??_Eg3d_gui@@UAEPAXI@Z     004167c2 f i * CIL library *:* CIL module *
 0001:000157c2       ??_Gg3d_gui@@UAEPAXI@Z     004167c2 f i 3dgui.obj
 0001:000157e2       ?checkitems@clientmode@game@@UAEXPAUfpsent@@@Z 004167e2 f i client1.obj
 0001:000157e2       ?cleanup@listrenderer@@UAEXPAUlistparticle@@@Z 004167e2 f i renderparticles.obj
 0001:000157e2       ?entergame@servmode@server@@UAEXPAUclientinfo@2@@Z 004167e2 f i server1.obj
 0001:000157e2       ?getteamscores@clientmode@game@@UAEXAAU?$vector@Uteamscore@@@@@Z 004167e2 f i client1.obj
 0001:000157e2       ?getteamscores@servmode@server@@UAEXAAU?$vector@Uteamscore@@@@@Z 004167e2 f i server1.obj
 0001:000157e2       ?init@partrenderer@@UAEXH@Z 004167e2 f i renderparticles.obj
 0001:000157e2       ?process@gameevent@server@@UAEXPAUclientinfo@2@@Z 004167e2 f i server1.obj
 0001:000157e2       ?pushlist@g3d_gui@@UAEXH@Z 004167e2 f i 3dgui.obj
 0001:000157e2       ?removeplayer@clientmode@game@@UAEXPAUfpsent@@@Z 004167e2 f i client1.obj
 0001:000157e2       ?reset@servmode@server@@UAEX_N@Z 004167e2 f i server1.obj
 0001:000157e2       ?resettracked@partrenderer@@UAEXPAUphysent@@@Z 004167e2 f i renderparticles.obj
 0001:000157e2       ?respawned@captureclientmode@game@@UAEXPAUfpsent@@@Z 004167e2 f i client1.obj
 0001:000157e2       ?respawned@clientmode@game@@UAEXPAUfpsent@@@Z 004167e2 f i client1.obj
 0001:000157e2       ?senditems@clientmode@game@@UAEXAAUpacketbuf@@@Z 004167e2 f i client1.obj
 0001:000157e2       ?setalphablend@model@@UAEX_N@Z 004167e2 f i rendermodel.obj
 0001:000157e2       ?setalphatest@model@@UAEXM@Z 004167e2 f i rendermodel.obj
 0001:000157e2       ?setambient@model@@UAEXM@Z 004167e2 f i rendermodel.obj
 0001:000157e2       ?setcullface@model@@UAEX_N@Z 004167e2 f i rendermodel.obj
 0001:000157e2       ?setfullbright@model@@UAEXM@Z 004167e2 f i rendermodel.obj
 0001:000157e2       ?setglow@model@@UAEXM@Z    004167e2 f i rendermodel.obj
 0001:000157e2       ?setshader@model@@UAEXPAUShader@@@Z 004167e2 f i rendermodel.obj
 0001:000157e2       ?setspec@model@@UAEXM@Z    004167e2 f i rendermodel.obj
 0001:000157e2       ?spawned@servmode@server@@UAEXPAUclientinfo@2@@Z 004167e2 f i server1.obj
 0001:000157e5       ?cleanup@meshgroup@animmodel@@UAEXXZ 004167e5 f i rendermodel.obj
 0001:000157e5       ?cleanup@model@@UAEXXZ     004167e5 f i rendermodel.obj
 0001:000157e5       ?cleanup@partrenderer@@UAEXXZ 004167e5 f i renderparticles.obj
 0001:000157e5       ?doclear@rendertarget@@UAEXXZ 004167e5 f i glare.obj
 0001:000157e5       ?endrender@model@@UAEXXZ   004167e5 f i rendermodel.obj
 0001:000157e5       ?endrender@textrenderer@@UAEXXZ 004167e5 f i renderparticles.obj
 0001:000157e5       ?gameover@clientmode@game@@UAEXXZ 004167e5 f i client1.obj
 0001:000157e5       ?intermission@servmode@server@@UAEXXZ 004167e5 f i server1.obj
 0001:000157e5       ?poplist@g3d_gui@@UAEXXZ   004167e5 f i 3dgui.obj
 0001:000157e5       ?preload@clientmode@game@@UAEXXZ 004167e5 f i client1.obj
 0001:000157e5       ?preloadshaders@model@@UAEXXZ 004167e5 f i rendermodel.obj
 0001:000157e5       ?rendergame@clientmode@game@@UAEXXZ 004167e5 f i client1.obj
 0001:000157e5       ?setup@clientmode@game@@UAEXXZ 004167e5 f i client1.obj
 0001:000157e5       ?startrender@model@@UAEXXZ 004167e5 f i rendermodel.obj
 0001:000157e5       ?startrender@textrenderer@@UAEXXZ 004167e5 f i renderparticles.obj
 0001:000157e5       ?update@partrenderer@@UAEXXZ 004167e5 f i renderparticles.obj
 0001:000157e5       ?update@servmode@server@@UAEXXZ 004167e5 f i server1.obj
 0001:000157e5       @_guard_check_icall_nop@4  004167e5 f i LIBCMT:guard_support.obj
 0001:000157e5       __initialize_denormal_control 004167e5 f i LIBCMT:denormal_control.obj
 0001:000157e5       __initialize_invalid_parameter_handler 004167e5 f i LIBCMT:invalid_parameter_handler.obj
 0001:000157e8       ?envmapped@model@@UAE_NXZ  004167e8 f i rendermodel.obj
 0001:000157e8       ?flipdebug@shadowmaptexture@@UBE_NXZ 004167e8 f i shadowmap.obj
 0001:000157e8       ?hidefrags@clientmode@game@@UAE_NXZ 004167e8 f i client1.obj
 0001:000157e8       ?hidefrags@servmode@server@@UAE_NXZ 004167e8 f i server1.obj
 0001:000157e8       ?keepable@gameevent@server@@UBE_NXZ 004167e8 f i server1.obj
 0001:000157e8       ?screenview@rendertarget@@UBE_NXZ 004167e8 f i glare.obj
 0001:000157e8       ?shadowcompare@rendertarget@@UBE_NXZ 004167e8 f i glare.obj
 0001:000157e8       ?shouldtab@g3d_gui@@UAE_NXZ 004167e8 f i 3dgui.obj
 0001:000157e8       ?swaptexs@rendertarget@@UBE_NXZ 004167e8 f i glare.obj
 0001:000157e8       ?texrect@rendertarget@@UBE_NXZ 004167e8 f i glare.obj
 0001:000157e8       ?usesvertexarray@partrenderer@@UAE_NXZ 004167e8 f i renderparticles.obj
 0001:000157eb       ?dist@vec@@QBEMABU1@AAU1@@Z 004167eb f i 3dgui.obj
 0001:0001585a       ?rayintersect@plane@@QAE_NABUvec@@0AAM@Z 0041685a f i 3dgui.obj
 0001:000158da       ?normalize@vec@@QAEAAU1@XZ 004168da f i 3dgui.obj
 0001:00015947       ??0vec@@QAE@MM@Z           00416947 f i 3dgui.obj
 0001:000159ef       ??0stringformatter@@QAE@PAD@Z 004169ef f i 3dgui.obj
 0001:000159fa       ?vformatstring@@YAXPADPBD0H@Z 004169fa f i 3dgui.obj
 0001:00015a1a       ??Rstringformatter@@QAAXPBDZZ 00416a1a f i 3dgui.obj
 0001:00015a43       ?concatstring@@YAPADPADPBDI@Z 00416a43 f i 3dgui.obj
 0001:00015a74       ?set@Shader@@QAEXXZ        00416a74 f i 3dgui.obj
 0001:00015a9d       ?newstring@@YAPADPBDI@Z    00416a9d f i 3dgui.obj
 0001:00015ac3       ___local_stdio_printf_options 00416ac3 f i 3dgui.obj
 0001:00015ac9       __vsnprintf_l              00416ac9 f i 3dgui.obj
 0001:00015af4       ?traverse@BIH@@QAE_NABUvec@@00MAAMHPAUBIHNode@@MM@Z 00416af4 f i bih.obj
 0001:00015ebb       ?traverse@BIH@@QAE_NABUvec@@0MAAMH@Z 00416ebb f i bih.obj
 0001:00016026       ?inrange@?$vector@Umapmodelinfo@@@@QBE_NH@Z 00417026 f i bih.obj
 0001:0001603f       ?growbuf@?$vector@UAttribLoc@@@@QAEXH@Z 0041703f f i shader.obj
 0001:0001603f       ?growbuf@?$vector@UBIHNode@@@@QAEXH@Z 0041703f f i bih.obj
 0001:0001603f       ?growbuf@?$vector@Uantipode@skelmodel@@@@QAEXH@Z 0041703f f i rendermodel.obj
 0001:0001603f       ?growbuf@?$vector@Ucharinfo@font@@@@QAEXH@Z 0041703f f i rendertext.obj
 0001:0001603f       ?growbuf@?$vector@Ucrcinfo@server@@@@QAEXH@Z 0041703f f i server1.obj
 0001:0001603f       ?growbuf@?$vector@Ureljoint@ragdollskel@@@@QAEXH@Z 0041703f f i rendermodel.obj
 0001:0001603f       ?growbuf@?$vector@Utag@skelmodel@@@@QAEXH@Z 0041703f f i rendermodel.obj
 0001:0001603f       ?growbuf@?$vector@Utcvert@vertmodel@@@@QAEXH@Z 0041703f f i rendermodel.obj
 0001:0001603f       ?growbuf@?$vector@Uteamscore@@@@QAEXH@Z 0041703f f i scoreboard.obj
 0001:0001603f       ?growbuf@?$vector@Uufval@unionfind@@@@QAEXH@Z 0041703f f i material.obj
 0001:0001603f       ?growbuf@?$vector@Uvec2@@@@QAEXH@Z 0041703f f i worldio.obj
 0001:000160a0       ??1BlendMapBranch@@QAE@XZ  004170a0 f i blend.obj
 0001:000160eb       ??1BlendBrush@@QAE@XZ      004170eb f i blend.obj
 0001:00016145       ?gentex@BlendBrush@@QAEXXZ 00417145 f i blend.obj
 0001:00016228       ?reorient@BlendBrush@@QAEX_N00@Z 00417228 f i blend.obj
 0001:00016308       ?growbuf@?$vector@PAUBlendBrush@@@@QAEXH@Z 00417308 f i blend.obj
 0001:00016380       ?cleanup@ImageData@@QAEXXZ 00417380 f i blend.obj
 0001:000163b2       ??1ImageData@@QAE@XZ       004173b2 f i blend.obj
 0001:000163e0       ??0ImageData@@QAE@XZ       004173e0 f i blend.obj
 0001:000163ee       ?init@blobrenderer@@QAEXH@Z 004173ee f i blob.obj
 0001:00016563       ?freeblob@blobrenderer@@QAE_NXZ 00417563 f i blob.obj
 0001:000165c4       ?newblob@blobrenderer@@QAEAAUblobinfo@@ABUvec@@M@Z 004175c4 f i blob.obj
 0001:0001662a       ?dupblob@blobrenderer@@QAEXXZ 0041762a f i blob.obj
 0001:00016672       ?addvert@blobrenderer@@QAEHABUvec@@@Z 00417672 f i blob.obj
 0001:0001674a       ?addtris@blobrenderer@@QAEXPBUvec@@H@Z 0041774a f i blob.obj
 0001:000168e0       ?genflattris@blobrenderer@@QAEXAAUcube@@HPAUvec@@I@Z 004178e0 f i blob.obj
 0001:00016ba6       ?genslopedtris@blobrenderer@@QAEXAAUcube@@HPAUvec@@I@Z 00417ba6 f i blob.obj
 0001:000171a6       ?checkoverlap@blobrenderer@@QAEHABUivec@@H@Z 004181a6 f i blob.obj
 0001:00017287       ?gentris@blobrenderer@@QAEXPAUcube@@ABUivec@@HPAEE@Z 00418287 f i blob.obj
 0001:000176b4       ?addblob@blobrenderer@@QAEPAUblobinfo@@ABUvec@@MM@Z 004186b4 f i blob.obj
 0001:0001784f       ?setuprenderstate@blobrenderer@@SAXXZ 0041884f f i blob.obj
 0001:000178ae       ?fadeblob@blobrenderer@@QAEXPAUblobinfo@@M@Z 004188ae f i blob.obj
 0001:000179de       ?renderblob@blobrenderer@@QAEXABUvec@@MM@Z 004189de f i blob.obj
 0001:00017bde       ??$clipabove@$0A@@blobrenderer@@SAHPBUvec@@HMPAU1@@Z 00418bde f i blob.obj
 0001:00017e03       ??$clipbelow@$0A@@blobrenderer@@SAHPBUvec@@HMPAU1@@Z 00418e03 f i blob.obj
 0001:00018028       ??$clipabove@$00@blobrenderer@@SAHPBUvec@@HMPAU1@@Z 00419028 f i blob.obj
 0001:0001824f       ??$clipbelow@$00@blobrenderer@@SAHPBUvec@@HMPAU1@@Z 0041924f f i blob.obj
 0001:00018476       ??$clipabove@$01@blobrenderer@@SAHPBUvec@@HMPAU1@@Z 00419476 f i blob.obj
 0001:0001869d       ??$clipbelow@$01@blobrenderer@@SAHPBUvec@@HMPAU1@@Z 0041969d f i blob.obj
 0001:000188c4       ??$split@$01@blobrenderer@@SAHPBUvec@@HMPAU1@@Z 004198c4 f i blob.obj
 0001:00018a76       ??0ivec@@QAE@HHHHH@Z       00419a76 f i blob.obj
 0001:00018ab1       ??9vec@@QBE_NABU0@@Z       00419ab1 f i blob.obj
 0001:00018ae9       ??8vec@@QBE_NABU0@@Z       00419ae9 f i blob.obj
 0001:00018b21       ??1packetbuf@@QAE@XZ       00419b21 f i client.obj
 0001:00018b74       ?remove@?$vector@Usleepcmd@@@@QAE?AUsleepcmd@@H@Z 00419b74 f i command.obj
 0001:00018bd0       ?add@?$vector@H@@QAEAAHABH@Z 00419bd0 f i lightmap.obj
 0001:00018bd0       ?add@?$vector@PAD@@QAEAAPADABQAD@Z 00419bd0 f i command.obj
 0001:00018bd0       ?add@?$vector@PAUclientinfo@server@@@@QAEAAPAUclientinfo@server@@ABQAU23@@Z 00419bd0 f i server1.obj
 0001:00018bd0       ?add@?$vector@PAUextentity@@@@QAEAAPAUextentity@@ABQAU2@@Z 00419bd0 f i cubeloader.obj
 0001:00018bd0       ?add@?$vector@PAUfpsent@@@@QAEAAPAUfpsent@@ABQAU2@@Z 00419bd0 f i fps.obj
 0001:00018bd0       ?add@?$vector@PAUident@@@@QAEAAPAUident@@ABQAU2@@Z 00419bd0 f i command.obj
 0001:00018bd0       ?add@?$vector@PAUmaterialsurface@@@@QAEAAPAUmaterialsurface@@ABQAU2@@Z 00419bd0 f i material.obj
 0001:00018bd0       ?add@?$vector@PAUmesh@animmodel@@@@QAEAAPAUmesh@animmodel@@ABQAU23@@Z 00419bd0 f i rendermodel.obj
 0001:00018bd0       ?add@?$vector@PAUoctaentities@@@@QAEAAPAUoctaentities@@ABQAU2@@Z 00419bd0 f i octarender.obj
 0001:00018bd0       ?add@?$vector@PAUpart@animmodel@@@@QAEAAPAUpart@animmodel@@ABQAU23@@Z 00419bd0 f i rendermodel.obj
 0001:00018bd0       ?add@?$vector@PAUphysent@@@@QAEAAPAUphysent@@ABQAU2@@Z 00419bd0 f i physics.obj
 0001:00018bd0       ?add@?$vector@PAUplatforment@@@@QAEAAPAUplatforment@@ABQAU2@@Z 00419bd0 f i physics.obj
 0001:00018bd0       ?add@?$vector@PAUskelmeshgroup@skelmodel@@@@QAEAAPAUskelmeshgroup@skelmodel@@ABQAU23@@Z 00419bd0 f i rendermodel.obj
 0001:00018bd0       ?add@?$vector@PAUvtxarray@@@@QAEAAPAUvtxarray@@ABQAU2@@Z 00419bd0 f i octarender.obj
 0001:00018bd0       ?add@?$vector@PBD@@QAEAAPBDABQBD@Z 00419bd0 f i main.obj
 0001:00018bd0       ?add@?$vector@PBUextentity@@@@QAEAAPBUextentity@@ABQBU2@@Z 00419bd0 f i lightmap.obj
 0001:00018c02       ?access@?$hashtable@PBDUident@@@@QAEAAUident@@ABQBDABU2@@Z 00419c02 f i command.obj
 0001:00018c6b       ?access@?$hashtable@PBDUident@@@@QAEPAUident@@ABQBD@Z 00419c6b f i command.obj
 0001:00018cb1       ??0?$hashtable@PBDUident@@@@QAE@H@Z 00419cb1 f i command.obj
 0001:00018d29       ?growbuf@?$vector@Usleepcmd@@@@QAEXH@Z 00419d29 f i command.obj
 0001:00018d9f       ?growbuf@?$vector@H@@QAEXH@Z 00419d9f f i lightmap.obj
 0001:00018d9f       ?growbuf@?$vector@PAD@@QAEXH@Z 00419d9f f i command.obj
 0001:00018d9f       ?growbuf@?$vector@PAUShader@@@@QAEXH@Z 00419d9f f i shader.obj
 0001:00018d9f       ?growbuf@?$vector@PAUclientinfo@server@@@@QAEXH@Z 00419d9f f i server1.obj
 0001:00018d9f       ?growbuf@?$vector@PAUextentity@@@@QAEXH@Z 00419d9f f i cubeloader.obj
 0001:00018d9f       ?growbuf@?$vector@PAUfpsent@@@@QAEXH@Z 00419d9f f i fps.obj
 0001:00018d9f       ?growbuf@?$vector@PAUgameevent@server@@@@QAEXH@Z 00419d9f f i server1.obj
 0001:00018d9f       ?growbuf@?$vector@PAUident@@@@QAEXH@Z 00419d9f f i command.obj
 0001:00018d9f       ?growbuf@?$vector@PAUkeym@@@@QAEXH@Z 00419d9f f i console.obj
 0001:00018d9f       ?growbuf@?$vector@PAUmaterialsurface@@@@QAEXH@Z 00419d9f f i material.obj
 0001:00018d9f       ?growbuf@?$vector@PAUmesh@animmodel@@@@QAEXH@Z 00419d9f f i rendermodel.obj
 0001:00018d9f       ?growbuf@?$vector@PAUoctaentities@@@@QAEXH@Z 00419d9f f i octarender.obj
 0001:00018d9f       ?growbuf@?$vector@PAUpart@animmodel@@@@QAEXH@Z 00419d9f f i rendermodel.obj
 0001:00018d9f       ?growbuf@?$vector@PAUphysent@@@@QAEXH@Z 00419d9f f i physics.obj
 0001:00018d9f       ?growbuf@?$vector@PAUplatforment@@@@QAEXH@Z 00419d9f f i physics.obj
 0001:00018d9f       ?growbuf@?$vector@PAUskelmeshgroup@skelmodel@@@@QAEXH@Z 00419d9f f i rendermodel.obj
 0001:00018d9f       ?growbuf@?$vector@PAUvtxarray@@@@QAEXH@Z 00419d9f f i octarender.obj
 0001:00018d9f       ?growbuf@?$vector@PBD@@QAEXH@Z 00419d9f f i main.obj
 0001:00018d9f       ?growbuf@?$vector@PBUextentity@@@@QAEXH@Z 00419d9f f i lightmap.obj
 0001:00018e00       ?growbuf@?$vector@PAU?$vector@D@@@@QAEXH@Z 00419e00 f i command.obj
 0001:00018e78       ?deletechunks@?$hashset@U?$hashtableentry@PBDUident@@@@@@QAEXXZ 00419e78 f i command.obj
 0001:00018eab       ??1?$hashset@U?$hashtableentry@PBDUident@@@@@@QAE@XZ 00419eab f i command.obj
 0001:00018ec9       ??1chainchunk@?$hashset@U?$hashtableentry@PBDUident@@@@@@QAE@XZ 00419ec9 f i command.obj
 0001:00018f04       ??1chain@?$hashset@U?$hashtableentry@PBDUident@@@@@@QAE@XZ 00419f04 f i command.obj
 0001:00018f3f       ??1?$hashtableentry@PBDUident@@@@QAE@XZ 00419f3f f i command.obj
 0001:00018f72       ?insert@?$hashset@U?$hashtableentry@PBDUident@@@@@@QAEPAUchain@1@I@Z 00419f72 f i command.obj
 0001:0001900d       ??0chain@?$hashset@U?$hashtableentry@PBDUident@@@@@@QAE@XZ 0041a00d f i command.obj
 0001:00019038       _sprintf                   0041a038 f i command.obj
 0001:00019052       _printf                    0041a052 f i command.obj
 0001:0001907c       ??1ident@@UAE@XZ           0041a07c f i command.obj
 0001:00019083       ??_Eident@@UAEPAXI@Z       0041a083 f i * CIL library *:* CIL module *
 0001:00019083       ??_Gident@@UAEPAXI@Z       0041a083 f i command.obj
 0001:000190a3       ??0ident@@QAE@HPBDPADH@Z   0041a0a3 f i command.obj
 0001:000190d9       ?changed@ident@@UAEXXZ     0041a0d9 f i command.obj
 0001:000190e3       ??1keym@@QAE@XZ            0041a0e3 f i console.obj
 0001:0001911b       ??1authkey@game@@QAE@XZ    0041a11b f i client1.obj
 0001:0001911b       ??1hline@@QAE@XZ           0041a11b f i console.obj
 0001:00019156       ?restore@hline@@QAEXXZ     0041a156 f i console.obj
 0001:000191f9       ?shouldsave@hline@@QAE_NXZ 0041a1f9 f i console.obj
 0001:00019271       ?save@hline@@QAEXXZ        0041a271 f i console.obj
 0001:000192c9       ?run@hline@@QAEXXZ         0041a2c9 f i console.obj
 0001:000192fd       ?comparefiles@filesval@@SAHPAPAD0@Z 0041a2fd f i console.obj
 0001:00019311       ?update@filesval@@QAEXXZ   0041a311 f i console.obj
 0001:000193c9       ??A?$hashtable@PADPAUfilesval@@@@QAEAAPAUfilesval@@ABQAD@Z 0041a3c9 f i console.obj
 0001:0001948d       ?access@?$hashtable@PADPAUfilesval@@@@QAEPAPAUfilesval@@ABQAD@Z 0041a48d f i console.obj
 0001:000194d0       ??1?$hashset@U?$hashtableentry@PADPAUfilesval@@@@@@QAE@XZ 0041a4d0 f i console.obj
 0001:000194d0       ??1?$hashset@U?$hashtableentry@PADPAUmeshgroup@animmodel@@@@@@QAE@XZ 0041a4d0 f i rendermodel.obj
 0001:000194d0       ??1?$hashset@U?$hashtableentry@PADPAUskeleton@skelmodel@@@@@@QAE@XZ 0041a4d0 f i rendermodel.obj
 0001:000194d0       ??1?$hashset@U?$hashtableentry@PBDPAUmodel@@@@@@QAE@XZ 0041a4d0 f i rendermodel.obj
 0001:0001950d       ??A?$hashtable@Ufileskey@@PAUfilesval@@@@QAEAAPAUfilesval@@ABUfileskey@@@Z 0041a50d f i console.obj
 0001:00019561       ??1?$hashset@U?$hashtableentry@Ufileskey@@PAUfilesval@@@@@@QAE@XZ 0041a561 f i console.obj
 0001:00019561       ??1?$hashset@U?$hashtableentry@Uvec@@H@@@@QAE@XZ 0041a561 f i rendermodel.obj
 0001:0001959e       ?deletearrays@?$vector@PAD@@QAEXXZ 0041a59e f i console.obj
 0001:000195bd       ?access@?$hashtable@HUkeym@@@@QAEPAUkeym@@ABH@Z 0041a5bd f i console.obj
 0001:000195e9       ??1?$hashset@U?$hashtableentry@HUkeym@@@@@@QAE@XZ 0041a5e9 f i console.obj
 0001:00019607       ?growbuf@?$vector@Ureleaseaction@@@@QAEXH@Z 0041a607 f i console.obj
 0001:0001967f       ?growbuf@?$vector@PAUhline@@@@QAEXH@Z 0041a67f f i console.obj
 0001:000196f7       ?deletechunks@?$hashset@U?$hashtableentry@HUkeym@@@@@@QAEXXZ 0041a6f7 f i console.obj
 0001:0001972a       ??1chainchunk@?$hashset@U?$hashtableentry@HUkeym@@@@@@QAE@XZ 0041a72a f i console.obj
 0001:00019765       ??1chain@?$hashset@U?$hashtableentry@HUkeym@@@@@@QAE@XZ 0041a765 f i console.obj
 0001:000197a1       ??1?$hashtableentry@HUkeym@@@@QAE@XZ 0041a7a1 f i console.obj
 0001:000197d5       ?insert@?$hashset@U?$hashtableentry@Ufileskey@@PAUfilesval@@@@@@QAEPAUchain@1@I@Z 0041a7d5 f i console.obj
 0001:0001986c       ?insert@?$hashset@U?$hashtableentry@HUkeym@@@@@@QAEPAUchain@1@I@Z 0041a86c f i console.obj
 0001:0001991c       ?growbuf@?$vector@Ucline@@@@QAEXH@Z 0041a91c f i console.obj
 0001:00019992       ??0chain@?$hashset@U?$hashtableentry@HUkeym@@@@@@QAE@XZ 0041a992 f i console.obj
 0001:000199f1       ?create_ent@cubeloader@@QAEXAAUc_persistent_entity@1@@Z 0041a9f1 f i cubeloader.obj
 0001:00019bc9       ?getcube@cubeloader@@QAEAAUcube@@HHH@Z 0041abc9 f i cubeloader.obj
 0001:00019c13       ?neighbours@cubeloader@@QAEHAAUc_sqr@1@@Z 0041ac13 f i cubeloader.obj
 0001:00019c53       ?preprocess_cubes@cubeloader@@QAEXXZ 0041ac53 f i cubeloader.obj
 0001:00019cdc       ?getfloorceil@cubeloader@@QAEHAAUc_sqr@1@AAH1@Z 0041acdc f i cubeloader.obj
 0001:00019d53       ?boundingbox@cubeloader@@QAEXXZ 0041ad53 f i cubeloader.obj
 0001:00019df5       ?hf@cubeloader@@QAEXHHHHHH@Z 0041adf5 f i cubeloader.obj
 0001:00019e7d       ?cornersolid@cubeloader@@QAE_NHPAUc_sqr@1@@Z 0041ae7d f i cubeloader.obj
 0001:00019ea3       ?create_cubes@cubeloader@@QAEXXZ 0041aea3 f i cubeloader.obj
 0001:0001a18f       ?load_cube_world@cubeloader@@QAEXPAD@Z 0041b18f f i cubeloader.obj
 0001:0001a68e       ?init@decalrenderer@@QAEXH@Z 0041b68e f i decal.obj
 0001:0001a757       ?freedecal@decalrenderer@@QAEHXZ 0041b757 f i decal.obj
 0001:0001a7af       ?fadedecal@decalrenderer@@QAEXAAUdecalinfo@@E@Z 0041b7af f i decal.obj
 0001:0001a888       ?clearfadeddecals@decalrenderer@@QAEXXZ 0041b888 f i decal.obj
 0001:0001a920       ?fadeindecals@decalrenderer@@QAEXXZ 0041b920 f i decal.obj
 0001:0001a9a6       ?fadeoutdecals@decalrenderer@@QAEXXZ 0041b9a6 f i decal.obj
 0001:0001aa35       ?render@decalrenderer@@QAEXXZ 0041ba35 f i decal.obj
 0001:0001ac27       ?decalclip@decalrenderer@@SAHPBUvec@@HABUplane@@PAU2@@Z 0041bc27 f i decal.obj
 0001:0001ae29       ?adddecal@decalrenderer@@QAEXABUvec@@0MABUbvec@@H@Z 0041be29 f i decal.obj
 0001:0001b132       ?gendecaltris@decalrenderer@@QAEXAAUcube@@HPAUvec@@_N@Z 0041c132 f i decal.obj
 0001:0001bde7       ?gendecaltris@decalrenderer@@QAEXPAUcube@@ABUivec@@HPAEE@Z 0041cde7 f i decal.obj
 0001:0001c1d2       ?orthogonal@vec@@QAEXABU1@@Z 0041d1d2 f i decal.obj
 0001:0001c2e1       ?rotate@vec@@QAEAAU1@MMABU1@@Z 0041d2e1 f i decal.obj
 0001:0001c427       ?rotate@vec@@QAEAAU1@MABU1@@Z 0041d427 f i decal.obj
 0001:0001c478       ?calccolor@dynlight@@QAEXXZ 0041d478 f i dynlight.obj
 0001:0001c5bf       ?insert@?$vector@PAUdynlight@@@@QAEAAPAUdynlight@@HABQAU2@@Z 0041d5bf f i dynlight.obj
 0001:0001c626       ?insert@?$vector@Udynlight@@@@QAEAAUdynlight@@HABU2@@Z 0041d626 f i dynlight.obj
 0001:0001c6c0       ?growbuf@?$vector@PAUdynlight@@@@QAEXH@Z 0041d6c0 f i dynlight.obj
 0001:0001c738       ?growbuf@?$vector@Udynlight@@@@QAEXH@Z 0041d738 f i dynlight.obj
 0001:0001c7ae       ??$dist_to_bb@Uivec@@@vec@@QBEMABUivec@@0@Z 0041d7ae f i dynlight.obj
 0001:0001c826       ?reset@physent@@QAEXXZ     0041d826 f i dynlight.obj
 0001:0001c879       ??0physent@@QAE@XZ         0041d879 f i dynlight.obj
 0001:0001c8f0       ??1rendertarget@@UAE@XZ    0041d8f0 f i glare.obj
 0001:0001c8f7       ?attachment@rendertarget@@UBEIXZ 0041d8f7 f i glare.obj
 0001:0001c8fd       ?colorformats@rendertarget@@UBEPBIXZ 0041d8fd f i glare.obj
 0001:0001c903       ?depthformats@rendertarget@@UBEPBIXZ 0041d903 f i glare.obj
 0001:0001c909       ?depthtest@rendertarget@@UBE_NXZ 0041d909 f i glare.obj
 0001:0001c909       ?dorender@rendertarget@@UAE_NXZ 0041d909 f i glare.obj
 0001:0001c909       ?filter@rendertarget@@UBE_NXZ 0041d909 f i glare.obj
 0001:0001c909       ?flipdebug@rendertarget@@UBE_NXZ 0041d909 f i glare.obj
 0001:0001c909       ?hidefrags@captureclientmode@game@@UAE_NXZ 0041d909 f i client1.obj
 0001:0001c909       ?hidefrags@captureservmode@server@@UAE_NXZ 0041d909 f i server1.obj
 0001:0001c909       ?hidefrags@ctfclientmode@game@@UAE_NXZ 0041d909 f i client1.obj
 0001:0001c909       ?hidefrags@ctfservmode@server@@UAE_NXZ 0041d909 f i server1.obj
 0001:0001c909       ?keepable@explodeevent@server@@UBE_NXZ 0041d909 f i server1.obj
 0001:0001c909       ?loaddefaultparts@animmodel@@UAE_NXZ 0041d909 f i rendermodel.obj
 0001:0001c909       ?shouldrender@rendertarget@@UAE_NXZ 0041d909 f i glare.obj
 0001:0001c909       ?usesvertexarray@?$varenderer@$00@@UAE_NXZ 0041d909 f i renderparticles.obj
 0001:0001c909       ?usesvertexarray@?$varenderer@$01@@UAE_NXZ 0041d909 f i renderparticles.obj
 0001:0001c909       ?usesvertexarray@?$varenderer@$0A@@@UAE_NXZ 0041d909 f i renderparticles.obj
 0001:0001c909       ___acrt_uninitialize_command_line 0041d909 f i libucrt:argv_data.obj
 0001:0001c909       __should_initialize_environment 0041d909 f i LIBCMT:env_mode.obj
 0001:0001c90c       ?cleanup@rendertarget@@QAEX_N@Z 0041d90c f i glare.obj
 0001:0001c968       ?cleanupblur@rendertarget@@QAEXXZ 0041d968 f i glare.obj
 0001:0001c9af       ?setupblur@rendertarget@@QAEXXZ 0041d9af f i glare.obj
 0001:0001ca9e       ?setup@rendertarget@@QAEXHH@Z 0041da9e f i glare.obj
 0001:0001cd17       ?rendertiles@rendertarget@@UAEXXZ 0041dd17 f i glare.obj
 0001:0001d0df       ?blur@rendertarget@@QAEXHMHHHH_N@Z 0041e0df f i glare.obj
 0001:0001d2bd       ?doblur@rendertarget@@UAEXHM@Z 0041e2bd f i glare.obj
 0001:0001d33a       ?scissorrender@rendertarget@@UAE_NAAH000@Z 0041e33a f i glare.obj
 0001:0001d4e7       ?scissorblur@rendertarget@@UAE_NAAH000@Z 0041e4e7 f i glare.obj
 0001:0001d67a       ?render@rendertarget@@QAEXHHHM@Z 0041e67a f i glare.obj
 0001:0001dad9       ?died@servmode@server@@UAEXPAUclientinfo@2@0@Z 0041ead9 f i server1.obj
 0001:0001dad9       ?dodebug@rendertarget@@UAEXHH@Z 0041ead9 f i glare.obj
 0001:0001dad9       ?leavegame@servmode@server@@UAEXPAUclientinfo@2@_N@Z 0041ead9 f i server1.obj
 0001:0001dad9       ?setglare@model@@UAEXMM@Z  0041ead9 f i rendermodel.obj
 0001:0001dadc       ?debug@rendertarget@@QAEXXZ 0041eadc f i glare.obj
 0001:0001dc79       ??_Erendertarget@@UAEPAXI@Z 0041ec79 f i * CIL library *:* CIL module *
 0001:0001dc79       ??_Grendertarget@@UAEPAXI@Z 0041ec79 f i glare.obj
 0001:0001dc9c       ?dorender@glaretexture@@UAE_NXZ 0041ec9c f i glare.obj
 0001:0001dca4       ??_Edepthfxtexture@@UAEPAXI@Z 0041eca4 f i * CIL library *:* CIL module *
 0001:0001dca4       ??_Eglaretexture@@UAEPAXI@Z 0041eca4 f i * CIL library *:* CIL module *
 0001:0001dca4       ??_Eshadowmaptexture@@UAEPAXI@Z 0041eca4 f i * CIL library *:* CIL module *
 0001:0001dca4       ??_Gdepthfxtexture@@UAEPAXI@Z 0041eca4 f i renderparticles.obj
 0001:0001dca4       ??_Gglaretexture@@UAEPAXI@Z 0041eca4 f i glare.obj
 0001:0001dca4       ??_Gshadowmaptexture@@UAEPAXI@Z 0041eca4 f i shadowmap.obj
 0001:0001dcf1       ??0grasswedge@@QAE@H@Z     0041ecf1 f i grass.obj
 0001:0001de95       ?add@?$vector@Ugrassvert@@@@QAEAAUgrassvert@@XZ 0041ee95 f i grass.obj
 0001:0001dec1       ?growbuf@?$vector@Ugrassgroup@@@@QAEXH@Z 0041eec1 f i grass.obj
 0001:0001df37       ?growbuf@?$vector@Ugrassvert@@@@QAEXH@Z 0041ef37 f i grass.obj
 0001:0001dfad       ??0lightcacheentry@@QAE@XZ 0041efad f i lightmap.obj
 0001:0001dfd8       ??1font@@QAE@XZ            0041efd8 f i rendertext.obj
 0001:0001dfd8       ??1lightcacheentry@@QAE@XZ 0041efd8 f i lightmap.obj
 0001:0001e00c       ?add@?$vector@ULightMapTexture@@@@QAEAAULightMapTexture@@XZ 0041f00c f i lightmap.obj
 0001:0001e05b       ?clear@?$hashset@Ucompressval@@@@QAEXXZ 0041f05b f i lightmap.obj
 0001:0001e098       ??1?$hashset@Ucompressval@@@@QAE@XZ 0041f098 f i lightmap.obj
 0001:0001e0b6       ?inrange@?$vector@ULightMap@@@@QBE_NH@Z 0041f0b6 f i lightmap.obj
 0001:0001e0cf       ?add@?$vector@ULightMap@@@@QAEAAULightMap@@XZ 0041f0cf f i lightmap.obj
 0001:0001e16a       ??1?$vector@ULightMap@@@@QAE@XZ 0041f16a f i lightmap.obj
 0001:0001e193       ?move@?$vector@Ulightmaptask@@@@QAEXAAU1@@Z 0041f193 f i lightmap.obj
 0001:0001e219       ??0?$vector@E@@QAE@XZ      0041f219 f i octaedit.obj
 0001:0001e219       ??0?$vector@G@@QAE@XZ      0041f219 f i octaedit.obj
 0001:0001e219       ??0?$vector@PAUShader@@@@QAE@XZ 0041f219 f i shader.obj
 0001:0001e219       ??0?$vector@PAUclientinfo@server@@@@QAE@XZ 0041f219 f i server1.obj
 0001:0001e219       ??0?$vector@PAUvtxarray@@@@QAE@XZ 0041f219 f i octarender.obj
 0001:0001e219       ??0?$vector@Uanimspec@animmodel@@@@QAE@XZ 0041f219 f i rendermodel.obj
 0001:0001e219       ??0?$vector@Ucubeface@@@@QAE@XZ 0041f219 f i octa.obj
 0001:0001e219       ??0?$vector@Ulightmaptask@@@@QAE@XZ 0041f219 f i lightmap.obj
 0001:0001e219       ??0?$vector@Umergedface@@@@QAE@XZ 0041f219 f i octarender.obj
 0001:0001e219       ??0?$vector@Utri@BIH@@@@QAE@XZ 0041f219 f i rendermodel.obj
 0001:0001e219       ??0?$vector@Uvec@@@@QAE@XZ 0041f219 f i rendermodel.obj
 0001:0001e226       ?add@?$vector@PAUlightmapworker@@@@QAEAAPAUlightmapworker@@ABQAU2@@Z 0041f226 f i lightmap.obj
 0001:0001e26a       ?growbuf@?$vector@ULightMapTexture@@@@QAEXH@Z 0041f26a f i lightmap.obj
 0001:0001e2e0       ?deletechunks@?$hashset@Ucompressval@@@@QAEXXZ 0041f2e0 f i lightmap.obj
 0001:0001e30a       ?growbuf@?$vector@ULightMap@@@@QAEXH@Z 0041f30a f i lightmap.obj
 0001:0001e380       ?growbuf@?$vector@Uholdspawn@ctfclientmode@game@@@@QAEXH@Z 0041f380 f i client1.obj
 0001:0001e380       ?growbuf@?$vector@Ulightmaptask@@@@QAEXH@Z 0041f380 f i lightmap.obj
 0001:0001e380       ?growbuf@?$vector@Uvert@skelmodel@@@@QAEXH@Z 0041f380 f i rendermodel.obj
 0001:0001e380       ?growbuf@?$vector@Uvvertw@skelmodel@@@@QAEXH@Z 0041f380 f i rendermodel.obj
 0001:0001e3df       ?growbuf@?$vector@PAUlightmapworker@@@@QAEXH@Z 0041f3df f i lightmap.obj
 0001:0001e457       ?insert@?$hashset@Ucompressval@@@@QAEPAUchain@1@I@Z 0041f457 f i lightmap.obj
 0001:0001e4ee       ??1LightMap@@QAE@XZ        0041f4ee f i lightmap.obj
 0001:0001e539       ?calcsize@ImageData@@QBEHXZ 0041f539 f i lightmap.obj
 0001:0001e5c3       ?setdata@ImageData@@QAEXPAEHHHHHI@Z 0041f5c3 f i lightmap.obj
 0001:0001e628       ??0ImageData@@QAE@HHHPAE@Z 0041f628 f i lightmap.obj
 0001:0001e68e       ?boundbox@model@@QAEXHAAUvec@@0@Z 0041f68e f i lightmap.obj
 0001:0001e6f4       ??8bvec@@QBE_NABU0@@Z      0041f6f4 f i lightmap.obj
 0001:0001e717       ??0bvec@@QAE@ABUvec@@@Z    0041f717 f i lightmap.obj
 0001:0001e76a       ?iszero@vec@@QBE_NXZ       0041f76a f i lightmap.obj
 0001:0001e79c       ??0PackNode@@QAE@GGGG@Z    0041f79c f i lightmap.obj
 0001:0001e7e4       ??1PackNode@@QAE@XZ        0041f7e4 f i lightmap.obj
 0001:0001e812       ?clear@PackNode@@QAEXXZ    0041f812 f i lightmap.obj
 0001:0001e84f       ?remove@?$vector@TSDL_Event@@@@QAE?ATSDL_Event@@H@Z 0041f84f f i main.obj
 0001:0001e8ab       ?add@?$vector@TSDL_Event@@@@QAEAATSDL_Event@@ABT2@@Z 0041f8ab f i main.obj
 0001:0001e8f4       ?growbuf@?$vector@TSDL_Event@@@@QAEXH@Z 0041f8f4 f i main.obj
 0001:0001e96a       ?strrchr@@YAPADQADH@Z      0041f96a f i main.obj
 0001:0001e96f       ??1QuadNode@@QAE@XZ        0041f96f f i material.obj
 0001:0001e96f       ?clear@QuadNode@@QAEXXZ    0041f96f f i material.obj
 0001:0001e99e       ?insert@QuadNode@@QAEXHHH@Z 0041f99e f i material.obj
 0001:0001ea9e       ?genmatsurf@QuadNode@@QAEXEEEHHHHAAPAUmaterialsurface@@@Z 0041fa9e f i material.obj
 0001:0001eaf4       ?genmatsurfs@QuadNode@@QAEXEEEHAAPAUmaterialsurface@@@Z 0041faf4 f i material.obj
 0001:0001eb9e       ??1cfval@@QAE@XZ           0041fb9e f i octa.obj
 0001:0001eb9e       ??1unionfind@@QAE@XZ       0041fb9e f i material.obj
 0001:0001ebcf       ?growbuf@?$vector@Uaistate@ai@@@@QAEXH@Z 0041fbcf f i ai.obj
 0001:0001ebcf       ?growbuf@?$vector@Uvert@vertmodel@@@@QAEXH@Z 0041fbcf f i rendermodel.obj
 0001:0001ebcf       ?growbuf@?$vector@Uwaterinfo@@@@QAEXH@Z 0041fbcf f i material.obj
 0001:0001ec2e       ?growbuf@?$vector@Umaterialsurface@@@@QAEXH@Z 0041fc2e f i material.obj
 0001:0001ec2e       ?growbuf@?$vector@Umd5joint@@@@QAEXH@Z 0041fc2e f i rendermodel.obj
 0001:0001ec8d       ?put@?$vector@E@@QAEXPBEH@Z 0041fc8d f i material.obj
 0001:0001ecbb       ?put@?$databuf@E@@QAEXPBEH@Z 0041fcbb f i material.obj
 0001:0001ecfe       ?compressfind@unionfind@@QAEHH@Z 0041fcfe f i material.obj
 0001:0001ed25       ?unite@unionfind@@QAEXHH@Z 0041fd25 f i material.obj
 0001:0001eda1       ?gui@menu@@UAEXAAUg3d_gui@@_N@Z 0041fda1 f i menus.obj
 0001:0001ee01       ?clear@menu@@UAEXXZ        0041fe01 f i menus.obj
 0001:0001ee19       ??_Emenu@@UAEPAXI@Z        0041fe19 f i * CIL library *:* CIL module *
 0001:0001ee19       ??_Gmenu@@UAEPAXI@Z        0041fe19 f i menus.obj
 0001:0001ee63       ??1menu@@UAE@XZ            0041fe63 f i menus.obj
 0001:0001ee95       ??1delayedupdate@@QAE@XZ   0041fe95 f i menus.obj
 0001:0001eeb7       ?schedule@delayedupdate@@QAEXPBD@Z 0041feb7 f i menus.obj
 0001:0001eedc       ?getstring@delayedupdate@@QBEPBDXZ 0041fedc f i menus.obj
 0001:0001ef1e       ?run@delayedupdate@@QAEXXZ 0041ff1e f i menus.obj
 0001:0001f004       ?gui@applymenu@@UAEXAAUg3d_gui@@_N@Z 00420004 f i menus.obj
 0001:0001f12b       ?clear@applymenu@@UAEXXZ   0042012b f i menus.obj
 0001:0001f142       ??_Eapplymenu@@UAEPAXI@Z   00420142 f i * CIL library *:* CIL module *
 0001:0001f142       ??_Gapplymenu@@UAEPAXI@Z   00420142 f i menus.obj
 0001:0001f18c       ?add@?$vector@Udelayedupdate@@@@QAEAAUdelayedupdate@@XZ 0042018c f i menus.obj
 0001:0001f1d4       ??1?$vector@Udelayedupdate@@@@QAE@XZ 004201d4 f i menus.obj
 0001:0001f1fd       ?add@?$vector@PAUmenu@@@@QAEAAPAUmenu@@ABQAU2@@Z 004201fd f i menus.obj
 0001:0001f241       ??A?$hashtable@PBDUmenu@@@@QAEAAUmenu@@ABQBD@Z 00420241 f i menus.obj
 0001:0001f293       ?access@?$hashtable@PBDUmenu@@@@QAEPAUmenu@@ABQBD@Z 00420293 f i menus.obj
 0001:0001f2d6       ??1?$hashset@U?$hashtableentry@PBDUmenu@@@@@@QAE@XZ 004202d6 f i menus.obj
 0001:0001f31c       ?growbuf@?$vector@Uchange@@@@QAEXH@Z 0042031c f i menus.obj
 0001:0001f394       ?growbuf@?$vector@Udelayedupdate@@@@QAEXH@Z 00420394 f i menus.obj
 0001:0001f40a       ?growbuf@?$vector@PAUmenu@@@@QAEXH@Z 0042040a f i menus.obj
 0001:0001f482       ??1chainchunk@?$hashset@U?$hashtableentry@PBDUmenu@@@@@@QAE@XZ 00420482 f i menus.obj
 0001:0001f4bd       ??1chain@?$hashset@U?$hashtableentry@PBDUmenu@@@@@@QAE@XZ 004204bd f i menus.obj
 0001:0001f502       ??1?$hashtableentry@PBDUmenu@@@@QAE@XZ 00420502 f i menus.obj
 0001:0001f53f       ?insert@?$hashset@U?$hashtableentry@PBDUmenu@@@@@@QAEPAUchain@1@I@Z 0042053f f i menus.obj
 0001:0001f5ef       ??0chain@?$hashset@U?$hashtableentry@PBDUmenu@@@@@@QAE@XZ 004205ef f i menus.obj
 0001:0001f637       ??_Eg3d_callback@@UAEPAXI@Z 00420637 f i * CIL library *:* CIL module *
 0001:0001f637       ??_Gg3d_callback@@UAEPAXI@Z 00420637 f i menus.obj
 0001:0001f657       ??1g3d_callback@@UAE@XZ    00420657 f i menus.obj
 0001:0001f65e       ?startchunk@aviwriter@@QAEXPBD@Z 0042065e f i movie.obj
 0001:0001f6a2       ?endchunk@aviwriter@@QAEXXZ 004206a2 f i movie.obj
 0001:0001f6f5       ?writechunk@aviwriter@@QAEXPBDPBXI@Z 004206f5 f i movie.obj
 0001:0001f732       ?close@aviwriter@@QAEXXZ   00420732 f i movie.obj
 0001:0001f89d       ??0aviwriter@@QAE@PBDIII_N@Z 0042089d f i movie.obj
 0001:0001fa0d       ??1aviwriter@@QAE@XZ       00420a0d f i movie.obj
 0001:0001fa60       ?open@aviwriter@@QAE_NXZ   00420a60 f i movie.obj
 0001:000200e3       ?boxsample@aviwriter@@SAXPBEIIIIIIIIAAI11@Z 004210e3 f i movie.obj
 0001:0002031c       ?scaleyuv@aviwriter@@QAEXPBEII@Z 0042131c f i movie.obj
 0001:00020872       ?encodeyuv@aviwriter@@QAEXPBE@Z 00421872 f i movie.obj
 0001:00020b12       ?compressyuv@aviwriter@@QAEXPBE@Z 00421b12 f i movie.obj
 0001:00020c9f       ?writesound@aviwriter@@QAEXPAEI@Z 00421c9f f i movie.obj
 0001:00020d90       ?writevideoframe@aviwriter@@QAE_NPBEIIHI@Z 00421d90 f i movie.obj
 0001:00020f66       ??0soundbuffer@recorder@@QAE@XZ 00421f66 f i movie.obj
 0001:00020f70       ??1soundbuffer@recorder@@QAE@XZ 00421f70 f i movie.obj
 0001:00020f89       ??1?$queue@Usoundbuffer@recorder@@$0CA@@@QAE@XZ 00421f89 f i movie.obj
 0001:00020fc7       ??0tag@vertmodel@@QAE@XZ   00421fc7 f i rendermodel.obj
 0001:00020fc7       ??0videobuffer@recorder@@QAE@XZ 00421fc7 f i movie.obj
 0001:00020fcd       ??1boneinfo@skelmodel@@QAE@XZ 00421fcd f i rendermodel.obj
 0001:00020fcd       ??1soundsample@@QAE@XZ     00421fcd f i sound.obj
 0001:00020fcd       ??1tag@vertmodel@@QAE@XZ   00421fcd f i rendermodel.obj
 0001:00020fcd       ??1videobuffer@recorder@@QAE@XZ 00421fcd f i movie.obj
 0001:00020fcd       ??1zipfile@@QAE@XZ         00421fcd f i zip.obj
 0001:00020fe2       ?init@videobuffer@recorder@@QAEXHHH@Z 00421fe2 f i movie.obj
 0001:00021021       ??1?$queue@Uvideobuffer@recorder@@$01@@QAE@XZ 00422021 f i movie.obj
 0001:0002105f       ?add@?$vector@Uaviindexentry@@@@QAEAAUaviindexentry@@ABU2@@Z 0042205f f i movie.obj
 0001:0002105f       ?add@?$vector@Ucubeface@@@@QAEAAUcubeface@@ABU2@@Z 0042205f f i octa.obj
 0001:0002105f       ?add@?$vector@Uvec@@@@QAEAAUvec@@ABU2@@Z 0042205f f i rendermodel.obj
 0001:00021094       ??$putlil@H@stream@@QAE_NH@Z 00422094 f i pvs.obj
 0001:00021094       ??$putlil@I@stream@@QAE_NI@Z 00422094 f i movie.obj
 0001:000210b2       ??$putlil@G@stream@@QAE_NG@Z 004220b2 f i movie.obj
 0001:000210d1       ??A?$hashtable@Uvec@@Unval@@@@QAEAAUnval@@ABUvec@@@Z 004220d1 f i normal.obj
 0001:0002114a       ??1?$hashset@U?$hashtableentry@Uvec@@Unval@@@@@@QAE@XZ 0042214a f i normal.obj
 0001:00021168       ?growbuf@?$vector@Unormal@@@@QAEXH@Z 00422168 f i normal.obj
 0001:000211de       ?deletechunks@?$hashset@U?$hashtableentry@Uvec@@Unval@@@@@@QAEXXZ 004221de f i normal.obj
 0001:00021208       ?insert@?$hashset@U?$hashtableentry@Uvec@@Unval@@@@@@QAEPAUchain@1@I@Z 00422208 f i normal.obj
 0001:000212b8       ??8facevec@@QBE_NABU0@@Z   004222b8 f i octa.obj
 0001:000212d3       ??A?$hashtable@Ucfkey@@Ucfval@@@@QAEAAUcfval@@ABUcfkey@@@Z 004222d3 f i octa.obj
 0001:0002133a       ??1?$hashset@U?$hashtableentry@Ucfkey@@Ucfval@@@@@@QAE@XZ 0042233a f i octa.obj
 0001:00021358       ?deletechunks@?$hashset@U?$hashtableentry@Ucfkey@@Ucfval@@@@@@QAEXXZ 00422358 f i octa.obj
 0001:0002138b       ??1chainchunk@?$hashset@U?$hashtableentry@Ucfkey@@Ucfval@@@@@@QAE@XZ 0042238b f i octa.obj
 0001:000213c6       ??1chain@?$hashset@U?$hashtableentry@Ucfkey@@Ucfval@@@@@@QAE@XZ 004223c6 f i octa.obj
 0001:000213f7       ??1?$hashtableentry@Ucfkey@@Ucfval@@@@QAE@XZ 004223f7 f i octa.obj
 0001:00021433       ?insert@?$hashset@U?$hashtableentry@Ucfkey@@Ucfval@@@@@@QAEPAUchain@1@I@Z 00422433 f i octa.obj
 0001:000214ce       ??0chain@?$hashset@U?$hashtableentry@Ucfkey@@Ucfval@@@@@@QAE@XZ 004224ce f i octa.obj
 0001:00021503       ??8ivec@@QBE_NABU0@@Z      00422503 f i octa.obj
 0001:00021526       ?cross@ivec@@QAEAAU1@ABU1@0@Z 00422526 f i octa.obj
 0001:0002156f       ??8plane@@QBE_NABU0@@Z     0042256f f i octa.obj
 0001:000215b6       ?toplane@plane@@QAE_NABUvec@@00@Z 004225b6 f i octa.obj
 0001:000216ec       ?mul@ivec@@QAEAAU1@H@Z     004226ec f i octa.obj
 0001:00021710       ??0ivec@@QAE@HHHH@Z        00422710 f i octa.obj
 0001:00021747       ?isheightmap@@YA_NHH_NPAUcube@@@Z 00422747 f i octaedit.obj
 0001:0002178b       ?gui@texturegui@@UAEXAAUg3d_gui@@_N@Z 0042278b f i octaedit.obj
 0001:00021962       ?showtextures@texturegui@@QAEX_N@Z 00422962 f i octaedit.obj
 0001:000219de       ??_Etexturegui@@UAEPAXI@Z  004229de f i * CIL library *:* CIL module *
 0001:000219de       ??_Gtexturegui@@UAEPAXI@Z  004229de f i octaedit.obj
 0001:00021a28       ?inrange@?$vector@PAUVSlot@@@@QBE_NH@Z 00422a28 f i octaedit.obj
 0001:00021a41       ?remove@?$vector@G@@QAEGH@Z 00422a41 f i octaedit.obj
 0001:00021a84       ?add@?$vector@G@@QAEAAGABG@Z 00422a84 f i octaedit.obj
 0001:00021ab8       ?removeobj@?$vector@PAUeditinfo@@@@QAEXABQAUeditinfo@@@Z 00422ab8 f i octaedit.obj
 0001:00021b05       ?add@?$vector@PAUeditinfo@@@@QAEAAPAUeditinfo@@ABQAU2@@Z 00422b05 f i octaedit.obj
 0001:00021b49       ?add@?$vector@UShaderParam@@@@QAEAAUShaderParam@@ABU2@@Z 00422b49 f i octaedit.obj
 0001:00021b82       ?remove@?$vector@H@@QAEHH@Z 00422b82 f i octaedit.obj
 0001:00021bad       ?get@?$databuf@E@@QAEHPAEH@Z 00422bad f i octaedit.obj
 0001:00021be7       ?get@?$databuf@E@@QAEABEXZ 00422be7 f i octaedit.obj
 0001:00021c04       ?growbuf@?$vector@Uvslotmap@@@@QAEXH@Z 00422c04 f i octaedit.obj
 0001:00021c7c       ?growbuf@?$vector@G@@QAEXH@Z 00422c7c f i octaedit.obj
 0001:00021cda       ?growbuf@?$vector@PAUeditinfo@@@@QAEXH@Z 00422cda f i octaedit.obj
 0001:00021d52       ?growbuf@?$vector@UShaderParam@@@@QAEXH@Z 00422d52 f i octaedit.obj
 0001:00021d52       ?growbuf@?$vector@Ublendcombo@skelmodel@@@@QAEXH@Z 00422d52 f i rendermodel.obj
 0001:00021d52       ?growbuf@?$vector@Udualquat@@@@QAEXH@Z 00422d52 f i rendermodel.obj
 0001:00021d52       ?growbuf@?$vector@Uhitinfo@server@@@@QAEXH@Z 00422d52 f i server1.obj
 0001:00021d52       ?growbuf@?$vector@Uvertex@@@@QAEXH@Z 00422d52 f i octarender.obj
 0001:00021d52       ?growbuf@?$vector@Uvvert@vertmodel@@@@QAEXH@Z 00422d52 f i rendermodel.obj
 0001:00021d52       ?growbuf@?$vector@Uvvertn@skelmodel@@@@QAEXH@Z 00422d52 f i rendermodel.obj
 0001:00021db1       ??$find@H@?$vector@H@@QAEHABH@Z 00422db1 f i octaedit.obj
 0001:00021db1       ??$find@PAUplatforment@@@?$vector@PAUplatforment@@@@QAEHABQAUplatforment@@@Z 00422db1 f i physics.obj
 0001:00021dd9       ??$find@H@?$vector@G@@QAEHABH@Z 00422dd9 f i octaedit.obj
 0001:00021e0c       ??1VSlot@@QAE@XZ           00422e0c f i octaedit.obj
 0001:00021e40       ?reset@VSlot@@QAEXXZ       00422e40 f i octaedit.obj
 0001:00021ee6       ??0VSlot@@QAE@PAUSlot@@H@Z 00422ee6 f i octaedit.obj
 0001:00021f4d       ??8selinfo@@QBE_NABU0@@Z   00422f4d f i octaedit.obj
 0001:00021f90       ??0selinfo@@QAE@XZ         00422f90 f i octaedit.obj
 0001:00021fbf       ?addvert@verthash@@QAEHABUvertex@@@Z 00422fbf f i octarender.obj
 0001:00022114       ??8sortkey@@QBE_NABU0@@Z   00423114 f i octarender.obj
 0001:00022155       ?clear@vacollect@@QAEXXZ   00423155 f i octarender.obj
 0001:000221e7       ?remapunlit@vacollect@@QAEXAAU?$vector@Usortkey@@@@@Z 004231e7 f i octarender.obj
 0001:00022722       ?optimize@vacollect@@QAEXXZ 00423722 f i octarender.obj
 0001:000228bf       ?texsort@vacollect@@SAHPBUsortkey@@0@Z 004238bf f i octarender.obj
 0001:0002296a       ?genverts@vacollect@@QAEXPAX@Z 0042396a f i octarender.obj
 0001:00022a69       ?setupdata@vacollect@@QAEXPAUvtxarray@@@Z 00423a69 f i octarender.obj
 0001:00022fea       ??0vacollect@@QAE@XZ       00423fea f i octarender.obj
 0001:00023154       ??1vacollect@@QAE@XZ       00424154 f i octarender.obj
 0001:000231ff       ??1verthash@@QAE@XZ        004241ff f i octarender.obj
 0001:00023249       ??1?$hashtable@Usortkey@@Usortval@@@@QAE@XZ 00424249 f i octarender.obj
 0001:0002327a       ??1vtxarray@@QAE@XZ        0042427a f i octarender.obj
 0001:000232d3       ?add@?$vector@Umergedface@@@@QAEAAUmergedface@@ABU2@@Z 004242d3 f i octarender.obj
 0001:0002330a       ??1?$hashset@U?$hashtableentry@Uedgegroup@@H@@@@QAE@XZ 0042430a f i octarender.obj
 0001:00023328       ?removeobj@?$vector@Usortkey@@@@QAEXABUsortkey@@@Z 00424328 f i octarender.obj
 0001:000233d9       ?add@?$vector@Usortkey@@@@QAEAAUsortkey@@ABU2@@Z 004243d9 f i octarender.obj
 0001:0002340f       ??A?$hashtable@Usortkey@@Usortval@@@@QAEAAUsortval@@ABUsortkey@@@Z 0042440f f i octarender.obj
 0001:00023468       ?access@?$hashtable@Usortkey@@Usortval@@@@QAEPAUsortval@@ABUsortkey@@@Z 00424468 f i octarender.obj
 0001:000234a9       ??1?$hashset@U?$hashtableentry@Usortkey@@Usortval@@@@@@QAE@XZ 004244a9 f i octarender.obj
 0001:000234c7       ??1?$hashset@U?$hashtableentry@IUvboinfo@@@@@@QAE@XZ 004244c7 f i octarender.obj
 0001:000234c7       ??1?$hashset@U?$hashtableentry@Uvec2@@H@@@@QAE@XZ 004244c7 f i worldio.obj
 0001:00023504       ?removeobj@?$vector@PAUclientinfo@server@@@@QAEXABQAUclientinfo@server@@@Z 00424504 f i server1.obj
 0001:00023504       ?removeobj@?$vector@PAUmesh@animmodel@@@@QAEXABQAUmesh@animmodel@@@Z 00424504 f i rendermodel.obj
 0001:00023504       ?removeobj@?$vector@PAUoctaentities@@@@QAEXABQAUoctaentities@@@Z 00424504 f i world.obj
 0001:00023504       ?removeobj@?$vector@PAUskelmeshgroup@skelmodel@@@@QAEXABQAUskelmeshgroup@skelmodel@@@Z 00424504 f i rendermodel.obj
 0001:00023504       ?removeobj@?$vector@PAUvtxarray@@@@QAEXABQAUvtxarray@@@Z 00424504 f i octarender.obj
 0001:00023558       ?growbuf@?$vector@Umergedface@@@@QAEXH@Z 00424558 f i octarender.obj
 0001:000235b7       ?deletechunks@?$hashset@U?$hashtableentry@Uedgegroup@@H@@@@QAEXXZ 004245b7 f i octarender.obj
 0001:000235e1       ?growbuf@?$vector@Ucubeedge@@@@QAEXH@Z 004245e1 f i octarender.obj
 0001:00023657       ?growbuf@?$vector@Utjoint@@@@QAEXH@Z 00424657 f i octarender.obj
 0001:000236cf       ?growbuf@?$vector@Usortkey@@@@QAEXH@Z 004246cf f i octarender.obj
 0001:0002372e       ?deletechunks@?$hashset@U?$hashtableentry@Usortkey@@Usortval@@@@@@QAEXXZ 0042472e f i octarender.obj
 0001:00023761       ?growbuf@?$vector@Ugrasstri@@@@QAEXH@Z 00424761 f i octarender.obj
 0001:000237c6       ??1chainchunk@?$hashset@U?$hashtableentry@Usortkey@@Usortval@@@@@@QAE@XZ 004247c6 f i octarender.obj
 0001:00023801       ??1chain@?$hashset@U?$hashtableentry@Usortkey@@Usortval@@@@@@QAE@XZ 00424801 f i octarender.obj
 0001:0002383d       ??1?$hashtableentry@Usortkey@@Usortval@@@@QAE@XZ 0042483d f i octarender.obj
 0001:00023871       ??1sortval@@QAE@XZ         00424871 f i octarender.obj
 0001:000238af       ?insert@?$hashset@U?$hashtableentry@Uedgegroup@@H@@@@QAEPAUchain@1@I@Z 004248af f i octarender.obj
 0001:00023946       ?insert@?$hashset@U?$hashtableentry@Usortkey@@Usortval@@@@@@QAEPAUchain@1@I@Z 00424946 f i octarender.obj
 0001:000239e1       ?insert@?$hashset@U?$hashtableentry@IUvboinfo@@@@@@QAEPAUchain@1@I@Z 004249e1 f i octarender.obj
 0001:00023a78       ??0chain@?$hashset@U?$hashtableentry@Usortkey@@Usortval@@@@@@QAE@XZ 00424a78 f i octarender.obj
 0001:00023ac1       ??$find@G@?$vector@H@@QAEHABG@Z 00424ac1 f i octarender.obj
 0001:00023aea       ?lerp@bvec@@QAEXABU1@0M@Z  00424aea f i octarender.obj
 0001:00023b6f       ?supportpoint@CubePlanes@mpr@@QBE?AUvec@@ABU3@@Z 00424b6f f i physics.obj
 0001:00023bfb       ?supportpoint@SolidCube@mpr@@QBE?AUvec@@ABU3@@Z 00424bfb f i physics.obj
 0001:00023c65       ??0EntOBB@mpr@@QAE@PAUphysent@@M@Z 00424c65 f i physics.obj
 0001:00023cb1       ?contactface@EntOBB@mpr@@QBE?AUvec@@ABU3@0@Z 00424cb1 f i physics.obj
 0001:0002413e       ?supportpoint@EntOBB@mpr@@QBE?AUvec@@ABU3@@Z 0042513e f i physics.obj
 0001:00024344       ?contactface@EntCylinder@mpr@@QBE?AUvec@@ABU3@0@Z 00425344 f i physics.obj
 0001:00024418       ?supportpoint@EntCylinder@mpr@@QBE?AUvec@@ABU3@@Z 00425418 f i physics.obj
 0001:000244da       ?supportpoint@EntCapsule@mpr@@QBE?AUvec@@ABU3@@Z 004254da f i physics.obj
 0001:000245ba       ?contactface@ModelOBB@mpr@@QBE?AUvec@@ABU3@0@Z 004255ba f i physics.obj
 0001:00024a2d       ?supportpoint@ModelOBB@mpr@@QBE?AUvec@@ABU3@@Z 00425a2d f i physics.obj
 0001:00024c36       ?contactface@ModelEllipse@mpr@@QBE?AUvec@@ABU3@0@Z 00425c36 f i physics.obj
 0001:00024fa9       ?supportpoint@ModelEllipse@mpr@@QBE?AUvec@@ABU3@@Z 00425fa9 f i physics.obj
 0001:00025232       ??0dynentcacheentry@@QAE@XZ 00426232 f i physics.obj
 0001:0002525d       ??1dynentcacheentry@@QAE@XZ 0042625d f i physics.obj
 0001:00025291       ?add@?$vector@Uplatformcollision@@@@QAEAAUplatformcollision@@ABU2@@Z 00426291 f i physics.obj
 0001:000252de       ?growbuf@?$vector@Uplatformcollision@@@@QAEXH@Z 004262de f i physics.obj
 0001:00025356       ?growbuf@?$vector@Uplatforment@@@@QAEXH@Z 00426356 f i physics.obj
 0001:000253cc       ??$collide@UEntOBB@mpr@@UEntCylinder@2@@mpr@@YA_NABUEntOBB@0@ABUEntCylinder@0@PAUvec@@22@Z 004263cc f i physics.obj
 0001:00026883       ??$collide@UEntOBB@mpr@@U12@@mpr@@YA_NABUEntOBB@0@0PAUvec@@11@Z 00427883 f i physics.obj
 0001:00027d3a       ??$collide@UEntOBB@mpr@@UModelEllipse@2@@mpr@@YA_NABUEntOBB@0@ABUModelEllipse@0@PAUvec@@22@Z 00428d3a f i physics.obj
 0001:000291ec       ??$collide@UEntOBB@mpr@@UModelOBB@2@@mpr@@YA_NABUEntOBB@0@ABUModelOBB@0@PAUvec@@22@Z 0042a1ec f i physics.obj
 0001:0002a69e       ??$collide@USolidCube@mpr@@UEntOBB@2@@mpr@@YA_NABUSolidCube@0@ABUEntOBB@0@@Z 0042b69e f i physics.obj
 0001:0002b1b0       ??$collide@UCubePlanes@mpr@@UEntOBB@2@@mpr@@YA_NABUCubePlanes@0@ABUEntOBB@0@@Z 0042c1b0 f i physics.obj
 0001:0002bd38       ??$collide@USolidCube@mpr@@UEntCapsule@2@@mpr@@YA_NABUSolidCube@0@ABUEntCapsule@0@@Z 0042cd38 f i physics.obj
 0001:0002c847       ??$collide@UCubePlanes@mpr@@UEntCapsule@2@@mpr@@YA_NABUCubePlanes@0@ABUEntCapsule@0@@Z 0042d847 f i physics.obj
 0001:0002d3cc       ?rescale@vec@@QAEAAU1@M@Z  0042e3cc f i physics.obj
 0001:0002d44d       ?collisionbox@model@@QAEXHAAUvec@@0@Z 0042e44d f i physics.obj
 0001:0002d4ae       ?rotate_around_z@vec@@QAEAAU1@M@Z 0042e4ae f i physics.obj
 0001:0002d549       ??0quat@@QAE@ABUvec@@M@Z   0042e549 f i physics.obj
 0001:0002d5ba       ??0shaftbb@@QAE@ABUivec@@HABUbvec@@@Z 0042e5ba f i pvs.obj
 0001:0002d66f       ?contains@shaftbb@@QBE_NABU1@@Z 0042e66f f i pvs.obj
 0001:0002d6b6       ?outside@shaftbb@@QBE_NABUivec@@H@Z 0042e6b6 f i pvs.obj
 0001:0002d720       ?calcshaft@shaft@@QAEXABUshaftbb@@0@Z 0042e720 f i pvs.obj
 0001:0002d9fe       ?outside@shaft@@QBE_NABUshaftbb@@@Z 0042e9fe f i pvs.obj
 0001:0002da9e       ?inside@shaft@@QBE_NABUshaftbb@@@Z 0042ea9e f i pvs.obj
 0001:0002db3e       ??0<unnamed-type-waterplanes>@@QAE@XZ 0042eb3e f i pvs.obj
 0001:0002db69       ??1<unnamed-type-waterplanes>@@QAE@XZ 0042eb69 f i pvs.obj
 0001:0002db69       ??1?$hashtableentry@HU?$vector@Uivec@@@@@@QAE@XZ 0042eb69 f i worldio.obj
 0001:0002db9d       ??0pvsworker@@QAE@XZ       0042eb9d f i pvs.obj
 0001:0002dc10       ??1pvsworker@@QAE@XZ       0042ec10 f i pvs.obj
 0001:0002dc58       ?hasvoxel@pvsworker@@QAEHABUivec@@HHHHPAH@Z 0042ec58 f i pvs.obj
 0001:0002df28       ?hidepvs@pvsworker@@QAEXAAUpvsnode@@@Z 0042ef28 f i pvs.obj
 0001:0002df71       ?shaftcullpvs@pvsworker@@QAEXAAUshaft@@AAUpvsnode@@ABUivec@@H@Z 0042ef71 f i pvs.obj
 0001:0002e0aa       ?cullpvs@pvsworker@@QAEXAAUpvsnode@@ABUivec@@H@Z 0042f0aa f i pvs.obj
 0001:0002ec70       ?compresspvs@pvsworker@@QAE_NAAUpvsnode@@HH@Z 0042fc70 f i pvs.obj
 0001:0002ed42       ?serializepvs@pvsworker@@QAE_NAAUpvsnode@@H@Z 0042fd42 f i pvs.obj
 0001:0002eecf       ?materialoccluded@pvsworker@@QAE_NAAUpvsnode@@ABUivec@@H11@Z 0042fecf f i pvs.obj
 0001:0002ef7e       ?materialoccluded@pvsworker@@QAE_NAAU?$vector@PAUmaterialsurface@@@@@Z 0042ff7e f i pvs.obj
 0001:0002f056       ?calcpvs@pvsworker@@QAEXABUivec@@H@Z 00430056 f i pvs.obj
 0001:0002f184       ?genviewcell@pvsworker@@QAEHABUivec@@H@Z 00430184 f i pvs.obj
 0001:0002f2d9       ?run@pvsworker@@SAHPAX@Z   004302d9 f i pvs.obj
 0001:0002f35c       ??1viewcellnode@@QAE@XZ    0043035c f i pvs.obj
 0001:0002f398       ?add@?$vector@PAUpvsworker@@@@QAEAAPAUpvsworker@@ABQAU2@@Z 00430398 f i pvs.obj
 0001:0002f3dc       ?add@?$vector@Upvsdata@@@@QAEAAUpvsdata@@ABU2@@Z 004303dc f i pvs.obj
 0001:0002f429       ??1?$hashset@U?$hashtableentry@Upvsdata@@H@@@@QAE@XZ 00430429 f i pvs.obj
 0001:0002f447       ?add@?$vector@Upvsnode@@@@QAEAAUpvsnode@@XZ 00430447 f i pvs.obj
 0001:0002f475       ?growbuf@?$vector@PAUpvsworker@@@@QAEXH@Z 00430475 f i pvs.obj
 0001:0002f4ed       ?growbuf@?$vector@Uviewcellrequest@@@@QAEXH@Z 004304ed f i pvs.obj
 0001:0002f563       ?growbuf@?$vector@Upvsdata@@@@QAEXH@Z 00430563 f i pvs.obj
 0001:0002f5db       ?deletechunks@?$hashset@U?$hashtableentry@Upvsdata@@H@@@@QAEXXZ 004305db f i pvs.obj
 0001:0002f605       ?growbuf@?$vector@Upvsnode@@@@QAEXH@Z 00430605 f i pvs.obj
 0001:0002f67d       ?insert@?$hashset@U?$hashtableentry@Upvsdata@@H@@@@QAEPAUchain@1@I@Z 0043067d f i pvs.obj
 0001:0002f714       ??$getlil@H@stream@@QAEHXZ 00430714 f i pvs.obj
 0001:0002f730       ??$getlil@G@stream@@QAEGXZ 00430730 f i pvs.obj
 0001:0002f750       ?clip@glmatrixf@@QAEXABUplane@@ABU1@@Z 00430750 f i rendergl.obj
 0001:0002f83b       ?transposedtransform@glmatrixf@@QBEXABUplane@@AAU2@@Z 0043083b f i rendergl.obj
 0001:0002f955       ?reflectz@glmatrixf@@QAEXM@Z 00430955 f i rendergl.obj
 0001:0002fa0f       ??$mul@MM@glmatrixf@@QAEXQBM0@Z 00430a0f f i rendergl.obj
 0001:0002fda1       ??0ragdollskel@@QAE@XZ     00430da1 f i rendermodel.obj
 0001:0002fe20       ?setupjoints@ragdollskel@@QAEXXZ 00430e20 f i rendermodel.obj
 0001:000301f0       ?setuprotfrictions@ragdollskel@@QAEXXZ 004311f0 f i rendermodel.obj
 0001:000302cf       ??0vert@ragdolldata@@QAE@XZ 004312cf f i rendermodel.obj
 0001:000302f2       ??0ragdolldata@@QAE@PAUragdollskel@@M@Z 004312f2 f i rendermodel.obj
 0001:00030407       ??1ragdolldata@@QAE@XZ     00431407 f i rendermodel.obj
 0001:0003043c       ?calcanimjoint@ragdolldata@@QAEXHABUmatrix3x4@@@Z 0043143c f i rendermodel.obj
 0001:000306d6       ?calctris@ragdolldata@@QAEXXZ 004316d6 f i rendermodel.obj
 0001:0003087c       ?calcboundsphere@ragdolldata@@QAEXXZ 0043187c f i rendermodel.obj
 0001:0003096b       ?init@ragdolldata@@QAEXPAUdynent@@@Z 0043196b f i rendermodel.obj
 0001:00030a9f       ?collidevert@ragdolldata@@SA_NABUvec@@0M@Z 00431a9f f i rendermodel.obj
 0001:00030b93       ?applyrotlimit@ragdolldata@@QAEXAAUtri@ragdollskel@@0MABUvec@@@Z 00431b93 f i rendermodel.obj
 0001:000316ed       ?setframes@animpos@animmodel@@QAEXABUaniminfo@@@Z 004326ed f i rendermodel.obj
 0001:000317c4       ??9animstate@animmodel@@QBE_NABU01@@Z 004327c4 f i rendermodel.obj
 0001:00031849       ?envmapped@skin@animmodel@@QAE_NXZ 00432849 f i rendermodel.obj
 0001:00031881       ?bumpmapped@skin@animmodel@@QAE_NXZ 00432881 f i rendermodel.obj
 0001:0003189b       ?normals@skin@animmodel@@QAE_NXZ 0043289b f i rendermodel.obj
 0001:000318d5       ?setuptmus@skin@animmodel@@QAEXPBUanimstate@2@_N@Z 004328d5 f i rendermodel.obj
 0001:00031d66       ?setshaderparams@skin@animmodel@@QAEXPAUmesh@2@PBUanimstate@2@_N@Z 00432d66 f i rendermodel.obj
 0001:00031fc1       ?loadshader@skin@animmodel@@QAEPAUShader@@_N0@Z 00432fc1 f i rendermodel.obj
 0001:00032250       ?preloadshader@skin@animmodel@@QAEXXZ 00433250 f i rendermodel.obj
 0001:000323b6       ?bind@skin@animmodel@@QAEXPAUmesh@2@PBUanimstate@2@@Z 004333b6 f i rendermodel.obj
 0001:00032903       ??1mesh@animmodel@@UAE@XZ  00433903 f i rendermodel.obj
 0001:00032921       ?calcbb@mesh@animmodel@@UAEXHAAUvec@@0ABUmatrix3x4@@@Z 00433921 f i rendermodel.obj
 0001:00032921       ?gentris@mesh@animmodel@@UAEXHPAUTexture@@PAU?$vector@Utri@BIH@@@@ABUmatrix3x4@@@Z 00433921 f i rendermodel.obj
 0001:00032924       ?setshader@mesh@animmodel@@UAEXPAUShader@@@Z 00433924 f i rendermodel.obj
 0001:00032944       ??0meshgroup@animmodel@@QAE@XZ 00433944 f i rendermodel.obj
 0001:00032991       ??1meshgroup@animmodel@@UAE@XZ 00433991 f i rendermodel.obj
 0001:00032a18       ?findtag@meshgroup@animmodel@@UAEHPBD@Z 00433a18 f i rendermodel.obj
 0001:00032a1e       ?concattagtransform@meshgroup@animmodel@@UAEXPAUpart@2@HHABUmatrix3x4@@AAU4@@Z 00433a1e f i rendermodel.obj
 0001:00032a1e       ?moved@servmode@server@@UAEXPAUclientinfo@2@ABUvec@@_N12@Z 00433a1e f i server1.obj
 0001:00032a1e       ?render@meshgroup@animmodel@@UAEXPBUanimstate@2@MABUvec@@PAUdynent@@PAUpart@2@@Z 00433a1e f i rendermodel.obj
 0001:00032a21       ?totalframes@meshgroup@animmodel@@UBEHXZ 00433a21 f i rendermodel.obj
 0001:00032a21       ?type@md3@@UBEHXZ          00433a21 f i rendermodel.obj
 0001:00032a21       __get_startup_argv_mode    00433a21 f i LIBCMT:argv_mode.obj
 0001:00032a25       ?adddepthfx@partrenderer@@UAEHAAUvec@@0@Z 00433a25 f i renderparticles.obj
 0001:00032a25       ?clipconsole@clientmode@game@@UAEHHH@Z 00433a25 f i client1.obj
 0001:00032a25       ?loadmeshes@animmodel@@UAEPAUmeshgroup@1@PAD0@Z 00433a25 f i rendermodel.obj
 0001:00032a25       ?read@stream@@UAEHPAXH@Z   00433a25 f i stream.obj
 0001:00032a25       ?write@stream@@UAEHPBXH@Z  00433a25 f i stream.obj
 0001:00032a2a       ?sharemeshes@animmodel@@QAAPAUmeshgroup@1@PADZZ 00433a2a f i rendermodel.obj
 0001:00032afc       ??0part@animmodel@@QAE@XZ  00433afc f i rendermodel.obj
 0001:00032b68       ??1part@animmodel@@UAE@XZ  00433b68 f i rendermodel.obj
 0001:00032bff       ?cleanup@part@animmodel@@UAEXXZ 00433bff f i rendermodel.obj
 0001:00032c0c       ?calcbb@part@animmodel@@QAEXHAAUvec@@0ABUmatrix3x4@@@Z 00433c0c f i rendermodel.obj
 0001:00032e59       ?gentris@part@animmodel@@QAEXHPAU?$vector@Utri@BIH@@@@ABUmatrix3x4@@@Z 00433e59 f i rendermodel.obj
 0001:000330b0       ?link@part@animmodel@@QAE_NPAU12@PBDABUvec@@HHPAU3@@Z 004340b0 f i rendermodel.obj
 0001:00033175       ?unlink@part@animmodel@@QAE_NPAU12@@Z 00434175 f i rendermodel.obj
 0001:000331f0       ?initskins@part@animmodel@@QAEXPAUTexture@@0H@Z 004341f0 f i rendermodel.obj
 0001:00033231       ?getdefaultanim@part@animmodel@@UAEXAAUaniminfo@@HIPAUdynent@@@Z 00434231 f i rendermodel.obj
 0001:00033243       ?calcanim@part@animmodel@@QAE_NHHHHPAUdynent@@HAAUaniminfo@@@Z 00434243 f i rendermodel.obj
 0001:00033548       ?render@part@animmodel@@QAEXHHHMABUvec@@PAUdynent@@00PAUanimstate@2@@Z 00434548 f i rendermodel.obj
 0001:00033c44       ?setanim@part@animmodel@@QAEXHHHHMH@Z 00434c44 f i rendermodel.obj
 0001:00033d3a       ?getteamscore@clientmode@game@@UAEHPBD@Z 00434d3a f i client1.obj
 0001:00033d3a       ?getteamscore@servmode@server@@UAEHPBD@Z 00434d3a f i server1.obj
 0001:00033d3a       ?linktype@animmodel@@UBEHPAU1@@Z 00434d3a f i rendermodel.obj
 0001:00033d3a       ?respawnwait@clientmode@game@@UAEHPAUfpsent@@@Z 00434d3a f i client1.obj
 0001:00033d3f       ?render@animmodel@@QAEXHHHMABUvec@@PAUdynent@@PAUmodelattach@@00@Z 00434d3f f i rendermodel.obj
 0001:00033fbe       ?render@animmodel@@UAEXHHHABUvec@@MMPAUdynent@@PAUmodelattach@@00M@Z 00434fbe f i rendermodel.obj
 0001:0003451c       ??0animmodel@@QAE@PBD@Z    0043551c f i rendermodel.obj
 0001:000345d2       ??1animmodel@@UAE@XZ       004355d2 f i rendermodel.obj
 0001:0003464b       ?name@animmodel@@UAEPADXZ  0043564b f i rendermodel.obj
 0001:0003464f       ?cleanup@animmodel@@UAEXXZ 0043564f f i rendermodel.obj
 0001:00034675       ?initmatrix@animmodel@@QAEXAAUmatrix3x4@@@Z 00435675 f i rendermodel.obj
 0001:000348af       ?gentris@animmodel@@QAEXHPAU?$vector@Utri@BIH@@@@@Z 004358af f i rendermodel.obj
 0001:000348e5       ?preloadBIH@animmodel@@UAEXXZ 004358e5 f i rendermodel.obj
 0001:00034954       ?setBIH@animmodel@@UAEPAUBIH@@XZ 00435954 f i rendermodel.obj
 0001:000349db       ?envmapped@animmodel@@UAE_NXZ 004359db f i rendermodel.obj
 0001:00034a1d       ?preloadshaders@animmodel@@UAEXXZ 00435a1d f i rendermodel.obj
 0001:00034a72       ?setshader@animmodel@@UAEXPAUShader@@@Z 00435a72 f i rendermodel.obj
 0001:00034ac3       ?setenvmap@animmodel@@UAEXMMPAUTexture@@@Z 00435ac3 f i rendermodel.obj
 0001:00034b3d       ?setspec@animmodel@@UAEXM@Z 00435b3d f i rendermodel.obj
 0001:00034b90       ?setambient@animmodel@@UAEXM@Z 00435b90 f i rendermodel.obj
 0001:00034be3       ?setglow@animmodel@@UAEXM@Z 00435be3 f i rendermodel.obj
 0001:00034c36       ?setglare@animmodel@@UAEXMM@Z 00435c36 f i rendermodel.obj
 0001:00034c95       ?setalphatest@animmodel@@UAEXM@Z 00435c95 f i rendermodel.obj
 0001:00034ce8       ?setalphablend@animmodel@@UAEX_N@Z 00435ce8 f i rendermodel.obj
 0001:00034d37       ?setfullbright@animmodel@@UAEXM@Z 00435d37 f i rendermodel.obj
 0001:00034d8a       ?setcullface@animmodel@@UAEX_N@Z 00435d8a f i rendermodel.obj
 0001:00034dd9       ?calcbb@animmodel@@UAEXHAAUvec@@0@Z 00435dd9 f i rendermodel.obj
 0001:00034ed2       ?startrender@animmodel@@UAEXXZ 00435ed2 f i rendermodel.obj
 0001:00034fe7       ?disablebones@animmodel@@SAXXZ 00435fe7 f i rendermodel.obj
 0001:00034fff       ?disablemtc@animmodel@@SAXXZ 00435fff f i rendermodel.obj
 0001:00035028       ?disabletc@animmodel@@SAXXZ 00436028 f i rendermodel.obj
 0001:00035049       ?disablevbo@animmodel@@SAXXZ 00436049 f i rendermodel.obj
 0001:000350ec       ?disableglow@animmodel@@SAXXZ 004360ec f i rendermodel.obj
 0001:0003512e       ?disableenvmap@animmodel@@SAX_N@Z 0043612e f i rendermodel.obj
 0001:0003519b       ?endrender@animmodel@@UAEXXZ 0043619b f i rendermodel.obj
 0001:00035267       ??_Emesh@animmodel@@UAEPAXI@Z 00436267 f i * CIL library *:* CIL module *
 0001:00035267       ??_Gmesh@animmodel@@UAEPAXI@Z 00436267 f i rendermodel.obj
 0001:00035286       ??_Emeshgroup@animmodel@@UAEPAXI@Z 00436286 f i * CIL library *:* CIL module *
 0001:00035286       ??_Gmeshgroup@animmodel@@UAEPAXI@Z 00436286 f i rendermodel.obj
 0001:000352a5       ??_Epart@animmodel@@UAEPAXI@Z 004362a5 f i * CIL library *:* CIL module *
 0001:000352a5       ??_Gpart@animmodel@@UAEPAXI@Z 004362a5 f i rendermodel.obj
 0001:000352c4       ??_Eanimmodel@@UAEPAXI@Z   004362c4 f i * CIL library *:* CIL module *
 0001:000352c4       ??_Ganimmodel@@UAEPAXI@Z   004362c4 f i rendermodel.obj
 0001:000352e3       ??0vertmesh@vertmodel@@QAE@XZ 004362e3 f i rendermodel.obj
 0001:00035329       ??1vertmesh@vertmodel@@UAE@XZ 00436329 f i rendermodel.obj
 0001:000353b1       ?smoothnorms@vertmesh@vertmodel@@QAEXM_N@Z 004363b1 f i rendermodel.obj
 0001:00035842       ?buildnorms@vertmesh@vertmodel@@QAEX_N@Z 00436842 f i rendermodel.obj
 0001:00035a16       ?calctangents@vertmesh@vertmodel@@QAEXXZ 00436a16 f i rendermodel.obj
 0001:00035e7e       ?calcbb@vertmesh@vertmodel@@UAEXHAAUvec@@0ABUmatrix3x4@@@Z 00436e7e f i rendermodel.obj
 0001:00035ef9       ?gentris@vertmesh@vertmodel@@UAEXHPAUTexture@@PAU?$vector@Utri@BIH@@@@ABUmatrix3x4@@@Z 00436ef9 f i rendermodel.obj
 0001:0003603f       ?genvbo@vertmesh@vertmodel@@QAEHAAU?$vector@G@@H@Z 0043703f f i rendermodel.obj
 0001:000360dd       ?filltc@vertmesh@vertmodel@@QAEXPAEI@Z 004370dd f i rendermodel.obj
 0001:00036117       ?interpverts@vertmesh@vertmodel@@QAEXABUanimstate@animmodel@@_N1PIAXAAUskin@4@@Z 00437117 f i rendermodel.obj
 0001:00036b0c       ?render@vertmesh@vertmodel@@QAEXPBUanimstate@animmodel@@AAUskin@4@AAUvbocacheentry@2@@Z 00437b0c f i rendermodel.obj
 0001:00036dec       ??0vertmeshgroup@vertmodel@@QAE@XZ 00437dec f i rendermodel.obj
 0001:00036e56       ??1vertmeshgroup@vertmodel@@UAE@XZ 00437e56 f i rendermodel.obj
 0001:00036f20       ?findtag@vertmeshgroup@vertmodel@@UAEHPBD@Z 00437f20 f i rendermodel.obj
 0001:00036f59       ?totalframes@vertmeshgroup@vertmodel@@UBEHXZ 00437f59 f i rendermodel.obj
 0001:00036f5d       ?concattagtransform@vertmeshgroup@vertmodel@@UAEXPAUpart@animmodel@@HHABUmatrix3x4@@AAU5@@Z 00437f5d f i rendermodel.obj
 0001:00036ff1       ?calctagmatrix@vertmeshgroup@vertmodel@@QAEXPAUpart@animmodel@@HABUanimstate@4@AAUglmatrixf@@@Z 00437ff1 f i rendermodel.obj
 0001:000370f2       ?genvbo@vertmeshgroup@vertmodel@@QAEX_N0AAUvbocacheentry@2@@Z 004380f2 f i rendermodel.obj
 0001:00037619       ?bindvbo@vertmeshgroup@vertmodel@@QAEXPBUanimstate@animmodel@@AAUvbocacheentry@2@@Z 00438619 f i rendermodel.obj
 0001:000377dc       ?cleanup@vertmeshgroup@vertmodel@@UAEXXZ 004387dc f i rendermodel.obj
 0001:00037851       ?render@vertmeshgroup@vertmodel@@UAEXPBUanimstate@animmodel@@MABUvec@@PAUdynent@@PAUpart@4@@Z 00438851 f i rendermodel.obj
 0001:00037bf2       ??_Evertmesh@vertmodel@@UAEPAXI@Z 00438bf2 f i * CIL library *:* CIL module *
 0001:00037bf2       ??_Gvertmesh@vertmodel@@UAEPAXI@Z 00438bf2 f i rendermodel.obj
 0001:00037c11       ??1?$hashtable@Uvec@@H@@QAE@XZ 00438c11 f i rendermodel.obj
 0001:00037c42       ??_Evertmeshgroup@vertmodel@@UAEPAXI@Z 00438c42 f i * CIL library *:* CIL module *
 0001:00037c42       ??_Gvertmeshgroup@vertmodel@@UAEPAXI@Z 00438c42 f i rendermodel.obj
 0001:00037c64       ??_Eskelmodel@@UAEPAXI@Z   00438c64 f i * CIL library *:* CIL module *
 0001:00037c64       ??_Evertmodel@@UAEPAXI@Z   00438c64 f i * CIL library *:* CIL module *
 0001:00037c64       ??_Gskelmodel@@UAEPAXI@Z   00438c64 f i rendermodel.obj
 0001:00037c64       ??_Gvertmodel@@UAEPAXI@Z   00438c64 f i rendermodel.obj
 0001:00037cad       ??1skelmodel@@UAE@XZ       00438cad f i rendermodel.obj
 0001:00037cad       ??1vertmodel@@UAE@XZ       00438cad f i rendermodel.obj
 0001:00037cde       ?size@blendcombo@skelmodel@@QBEHXZ 00438cde f i rendermodel.obj
 0001:00037d01       ?sortcmp@blendcombo@skelmodel@@SAHPBU12@0@Z 00438d01 f i rendermodel.obj
 0001:00037d4f       ?addweight@blendcombo@skelmodel@@QAEHHMH@Z 00438d4f f i rendermodel.obj
 0001:00037df7       ?finalize@blendcombo@skelmodel@@QAEXH@Z 00438df7 f i rendermodel.obj
 0001:00037e61       ?serialize@blendcombo@skelmodel@@QAEXAAUvvertw@2@@Z 00438e61 f i rendermodel.obj
 0001:00037f6a       ??8animcacheentry@skelmodel@@QBE_NABU01@@Z 00438f6a f i rendermodel.obj
 0001:00037fda       ??0vbocacheentry@skelmodel@@QAE@XZ 00438fda f i rendermodel.obj
 0001:00038006       ??0skelcacheentry@skelmodel@@QAE@XZ 00439006 f i rendermodel.obj
 0001:00038041       ??0skelmesh@skelmodel@@QAE@XZ 00439041 f i rendermodel.obj
 0001:0003808d       ??1skelmesh@skelmodel@@UAE@XZ 0043908d f i rendermodel.obj
 0001:00038104       ?addblendcombo@skelmesh@skelmodel@@QAEHABUblendcombo@2@@Z 00439104 f i rendermodel.obj
 0001:0003812a       ?smoothnorms@skelmesh@skelmodel@@QAEXM_N@Z 0043912a f i rendermodel.obj
 0001:000385a9       ?buildnorms@skelmesh@skelmodel@@QAEX_N@Z 004395a9 f i rendermodel.obj
 0001:00038746       ?calctangents@skelmesh@skelmodel@@QAEX_N@Z 00439746 f i rendermodel.obj
 0001:00038b5e       ?calcbb@skelmesh@skelmodel@@UAEXHAAUvec@@0ABUmatrix3x4@@@Z 00439b5e f i rendermodel.obj
 0001:00038bd0       ?gentris@skelmesh@skelmodel@@UAEXHPAUTexture@@PAU?$vector@Utri@BIH@@@@ABUmatrix3x4@@@Z 00439bd0 f i rendermodel.obj
 0001:00038ce8       ?genvbo@skelmesh@skelmodel@@QAEHAAU?$vector@G@@H@Z 00439ce8 f i rendermodel.obj
 0001:00038dc7       ?filltc@skelmesh@skelmodel@@QAEXPAEI@Z 00439dc7 f i rendermodel.obj
 0001:00038e08       ?fillbump@skelmesh@skelmodel@@QAEXPAEI@Z 00439e08 f i rendermodel.obj
 0001:00038e85       ?setshader@skelmesh@skelmodel@@UAEXPAUShader@@@Z 00439e85 f i rendermodel.obj
 0001:00038efb       ?render@skelmesh@skelmodel@@QAEXPBUanimstate@animmodel@@AAUskin@4@AAUvbocacheentry@2@@Z 00439efb f i rendermodel.obj
 0001:00039203       ??0boneinfo@skelmodel@@QAE@XZ 0043a203 f i rendermodel.obj
 0001:00039238       ??0skeleton@skelmodel@@QAE@XZ 0043a238 f i rendermodel.obj
 0001:000392b4       ??1skeleton@skelmodel@@QAE@XZ 0043a2b4 f i rendermodel.obj
 0001:000393f3       ?findskelanim@skeleton@skelmodel@@QAEPAUskelanimspec@2@PBDD@Z 0043a3f3 f i rendermodel.obj
 0001:0003948e       ?addskelanim@skeleton@skelmodel@@QAEAAUskelanimspec@2@PBD@Z 0043a48e f i rendermodel.obj
 0001:000394e3       ?findbone@skeleton@skelmodel@@QAEHPBD@Z 0043a4e3 f i rendermodel.obj
 0001:00039522       ?findtag@skeleton@skelmodel@@QAEHPBD@Z 0043a522 f i rendermodel.obj
 0001:00039554       ?addtag@skeleton@skelmodel@@QAE_NPBDH@Z 0043a554 f i rendermodel.obj
 0001:000395ba       ?calcantipodes@skeleton@skelmodel@@QAEXXZ 0043a5ba f i rendermodel.obj
 0001:000397a2       ?remapbones@skeleton@skelmodel@@QAEXXZ 0043a7a2 f i rendermodel.obj
 0001:00039ad3       ?expandbonemask@skeleton@skelmodel@@QAEXPAEHH@Z 0043aad3 f i rendermodel.obj
 0001:00039b13       ?applybonemask@skeleton@skelmodel@@QAEXPAGPAEH@Z 0043ab13 f i rendermodel.obj
 0001:00039bba       ?linkchildren@skeleton@skelmodel@@QAEXXZ 0043abba f i rendermodel.obj
 0001:00039bff       ?availgpubones@skeleton@skelmodel@@QBEHXZ 0043abff f i rendermodel.obj
 0001:00039c4a       ?gpuaccelerate@skeleton@skelmodel@@QBE_NXZ 0043ac4a f i rendermodel.obj
 0001:00039c76       ?interpmatbones@skeleton@skelmodel@@QAEXPBUanimstate@animmodel@@MABUvec@@HPBEAAUskelcacheentry@2@@Z 0043ac76 f i rendermodel.obj
 0001:0003a051       ?interpbones@skeleton@skelmodel@@QAEXPBUanimstate@animmodel@@MABUvec@@HPBEAAUskelcacheentry@2@@Z 0043b051 f i rendermodel.obj
 0001:0003a323       ?initmatragdoll@skeleton@skelmodel@@QAEXAAUragdolldata@@AAUskelcacheentry@2@PAUpart@animmodel@@@Z 0043b323 f i rendermodel.obj
 0001:0003a624       ?initragdoll@skeleton@skelmodel@@QAEXAAUragdolldata@@AAUskelcacheentry@2@PAUpart@animmodel@@@Z 0043b624 f i rendermodel.obj
 0001:0003ab9e       ?genmatragdollbones@skeleton@skelmodel@@QAEXAAUragdolldata@@AAUskelcacheentry@2@PAUpart@animmodel@@@Z 0043bb9e f i rendermodel.obj
 0001:0003ad82       ?genragdollbones@skeleton@skelmodel@@QAEXAAUragdolldata@@AAUskelcacheentry@2@PAUpart@animmodel@@@Z 0043bd82 f i rendermodel.obj
 0001:0003af98       ?calctags@skeleton@skelmodel@@QAEXAAUskelcacheentry@2@PAUpart@animmodel@@@Z 0043bf98 f i rendermodel.obj
 0001:0003b0ea       ?calctags@skeleton@skelmodel@@QAEXPAUpart@animmodel@@@Z 0043c0ea f i rendermodel.obj
 0001:0003b217       ?cleanup@skeleton@skelmodel@@QAEX_N@Z 0043c217 f i rendermodel.obj
 0001:0003b2c7       ?checkskelcache@skeleton@skelmodel@@QAEAAUskelcacheentry@2@PAUpart@animmodel@@PBUanimstate@5@MABUvec@@PAUragdolldata@@@Z 0043c2c7 f i rendermodel.obj
 0001:0003b483       ?setasmbones@skeleton@skelmodel@@QAEXAAUskelcacheentry@2@H@Z 0043c483 f i rendermodel.obj
 0001:0003b636       ?bindubo@skeleton@skelmodel@@QAEXAAUUniformLoc@@AAUskelcacheentry@2@1H@Z 0043c636 f i rendermodel.obj
 0001:0003b7f9       ?setglslbones@skeleton@skelmodel@@QAEXAAUUniformLoc@@AAUskelcacheentry@2@1H@Z 0043c7f9 f i rendermodel.obj
 0001:0003b8f2       ?setgpubones@skeleton@skelmodel@@QAEXAAUskelcacheentry@2@PAUblendcacheentry@2@H@Z 0043c8f2 f i rendermodel.obj
 0001:0003b98c       ??0skelmeshgroup@skelmodel@@QAE@XZ 0043c98c f i rendermodel.obj
 0001:0003ba2f       ??1skelmeshgroup@skelmodel@@UAE@XZ 0043ca2f f i rendermodel.obj
 0001:0003bb5f       ?shareskeleton@skelmeshgroup@skelmodel@@QAEXPAD@Z 0043cb5f f i rendermodel.obj
 0001:0003bcb1       ?findtag@skelmeshgroup@skelmodel@@UAEHPBD@Z 0043ccb1 f i rendermodel.obj
 0001:0003bcb9       ?totalframes@skelmeshgroup@skelmodel@@UBEHXZ 0043ccb9 f i rendermodel.obj
 0001:0003bcc9       ?genvbo@skelmeshgroup@skelmodel@@QAEX_N0AAUvbocacheentry@2@@Z 0043ccc9 f i rendermodel.obj
 0001:0003c4f5       ?bindvbo@skelmeshgroup@skelmodel@@QAEXPBUanimstate@animmodel@@AAUvbocacheentry@2@PAUskelcacheentry@2@PAUblendcacheentry@2@@Z 0043d4f5 f i rendermodel.obj
 0001:0003c737       ?concattagtransform@skelmeshgroup@skelmodel@@UAEXPAUpart@animmodel@@HHABUmatrix3x4@@AAU5@@Z 0043d737 f i rendermodel.obj
 0001:0003c7c9       ?addblendcombo@skelmeshgroup@skelmodel@@QAEHABUblendcombo@2@@Z 0043d7c9 f i rendermodel.obj
 0001:0003c8b7       ?sortblendcombos@skelmeshgroup@skelmodel@@QAEXXZ 0043d8b7 f i rendermodel.obj
 0001:0003c95a       ?blendmatbones@skelmeshgroup@skelmodel@@QAEXABUskelcacheentry@2@AAUblendcacheentry@2@@Z 0043d95a f i rendermodel.obj
 0001:0003ca3f       ?blendbones@skelmeshgroup@skelmodel@@QAEXABUskelcacheentry@2@AAUblendcacheentry@2@@Z 0043da3f f i rendermodel.obj
 0001:0003cbe8       ?cleanup@skelmeshgroup@skelmodel@@UAEXXZ 0043dbe8 f i rendermodel.obj
 0001:0003ccc4       ?checkvbocache@skelmeshgroup@skelmodel@@QAEAAUvbocacheentry@2@AAUskelcacheentry@2@H@Z 0043dcc4 f i rendermodel.obj
 0001:0003cd51       ?checkblendcache@skelmeshgroup@skelmodel@@QAEAAUblendcacheentry@2@AAUskelcacheentry@2@H@Z 0043dd51 f i rendermodel.obj
 0001:0003cdc1       ?render@skelmeshgroup@skelmodel@@UAEXPBUanimstate@animmodel@@MABUvec@@PAUdynent@@PAUpart@4@@Z 0043ddc1 f i rendermodel.obj
 0001:0003d2a8       ??0skelpart@skelmodel@@QAE@XZ 0043e2a8 f i rendermodel.obj
 0001:0003d2e0       ??1skelpart@skelmodel@@UAE@XZ 0043e2e0 f i rendermodel.obj
 0001:0003d334       ?sharepartmask@skelpart@skelmodel@@QAEPAEPAUanimpartmask@2@@Z 0043e334 f i rendermodel.obj
 0001:0003d382       ?initanimparts@skelpart@skelmodel@@QAEXXZ 0043e382 f i rendermodel.obj
 0001:0003d3ce       ?addanimpart@skelpart@skelmodel@@QAE_NPAG@Z 0043e3ce f i rendermodel.obj
 0001:0003d401       ?endanimparts@skelpart@skelmodel@@QAEXXZ 0043e401 f i rendermodel.obj
 0001:0003d44a       ?linktype@skelmodel@@UBEHPAUanimmodel@@@Z 0043e44a f i rendermodel.obj
 0001:0003d48c       ??_Eskelmesh@skelmodel@@UAEPAXI@Z 0043e48c f i * CIL library *:* CIL module *
 0001:0003d48c       ??_Gskelmesh@skelmodel@@UAEPAXI@Z 0043e48c f i rendermodel.obj
 0001:0003d4ab       ??_Eskelmeshgroup@skelmodel@@UAEPAXI@Z 0043e4ab f i * CIL library *:* CIL module *
 0001:0003d4ab       ??_Gskelmeshgroup@skelmodel@@UAEPAXI@Z 0043e4ab f i rendermodel.obj
 0001:0003d4cd       ??_Eskelpart@skelmodel@@UAEPAXI@Z 0043e4cd f i * CIL library *:* CIL module *
 0001:0003d4cd       ??_Gskelpart@skelmodel@@UAEPAXI@Z 0043e4cd f i rendermodel.obj
 0001:0003d4ec       ??1ragdollskel@@QAE@XZ     0043e4ec f i rendermodel.obj
 0001:0003d56f       ?getcrc@stream@@UAEIXZ     0043e56f f i stream.obj
 0001:0003d56f       ?setBIH@model@@UAEPAUBIH@@XZ 0043e56f f i rendermodel.obj
 0001:0003d56f       ?type@md2@@UBEHXZ          0043e56f f i rendermodel.obj
 0001:0003d56f       ___scrt_exe_initialize_mta 0043e56f f i LIBCMT:utility_desktop.obj
 0001:0003d56f       ___scrt_initialize_winrt   0043e56f f i LIBCMT:utility_desktop.obj
 0001:0003d56f       ___scrt_stub_for_initialize_mta 0043e56f f i LIBCMT:utility_desktop.obj
 0001:0003d56f       __get_startup_commit_mode  0043e56f f i LIBCMT:commit_mode.obj
 0001:0003d56f       __get_startup_new_mode     0043e56f f i LIBCMT:new_mode.obj
 0001:0003d56f       __get_startup_thread_locale_mode 0043e56f f i LIBCMT:thread_locale.obj
 0001:0003d56f       __matherr                  0043e56f f i LIBCMT:matherr.obj
 0001:0003d572       ?linktype@md2@@UBEHPAUanimmodel@@@Z 0043e572 f i rendermodel.obj
 0001:0003d578       ?genverts@md2meshgroup@md2@@QAEXPAHAAU?$vector@Utcvert@vertmodel@@@@AAU?$vector@G@@AAU?$vector@Utri@vertmodel@@@@@Z 0043e578 f i rendermodel.obj
 0001:0003d75a       ?load@md2meshgroup@md2@@QAE_NPAD@Z 0043e75a f i rendermodel.obj
 0001:0003daea       ?getdefaultanim@md2part@md2@@UAEXAAUaniminfo@@HIPAUdynent@@@Z 0043eaea f i rendermodel.obj
 0001:0003db6c       ?loadmeshes@md2@@UAEPAUmeshgroup@animmodel@@PAD0@Z 0043eb6c f i rendermodel.obj
 0001:0003dbcc       ?load@md2@@UAE_NXZ         0043ebcc f i rendermodel.obj
 0001:0003ddcb       ??_Eiqm@@UAEPAXI@Z         0043edcb f i * CIL library *:* CIL module *
 0001:0003ddcb       ??_Emd2@@UAEPAXI@Z         0043edcb f i * CIL library *:* CIL module *
 0001:0003ddcb       ??_Emd3@@UAEPAXI@Z         0043edcb f i * CIL library *:* CIL module *
 0001:0003ddcb       ??_Emd5@@UAEPAXI@Z         0043edcb f i * CIL library *:* CIL module *
 0001:0003ddcb       ??_Eobj@@UAEPAXI@Z         0043edcb f i * CIL library *:* CIL module *
 0001:0003ddcb       ??_Esmd@@UAEPAXI@Z         0043edcb f i * CIL library *:* CIL module *
 0001:0003ddcb       ??_Giqm@@UAEPAXI@Z         0043edcb f i rendermodel.obj
 0001:0003ddcb       ??_Gmd2@@UAEPAXI@Z         0043edcb f i rendermodel.obj
 0001:0003ddcb       ??_Gmd3@@UAEPAXI@Z         0043edcb f i rendermodel.obj
 0001:0003ddcb       ??_Gmd5@@UAEPAXI@Z         0043edcb f i rendermodel.obj
 0001:0003ddcb       ??_Gobj@@UAEPAXI@Z         0043edcb f i rendermodel.obj
 0001:0003ddcb       ??_Gsmd@@UAEPAXI@Z         0043edcb f i rendermodel.obj
 0001:0003de14       ??1?$hashtable@Uivec@@H@@QAE@XZ 0043ee14 f i rendermodel.obj
 0001:0003de45       ??_Emd2meshgroup@md2@@UAEPAXI@Z 0043ee45 f i * CIL library *:* CIL module *
 0001:0003de45       ??_Emd3meshgroup@md3@@UAEPAXI@Z 0043ee45 f i * CIL library *:* CIL module *
 0001:0003de45       ??_Eobjmeshgroup@obj@@UAEPAXI@Z 0043ee45 f i * CIL library *:* CIL module *
 0001:0003de45       ??_Gmd2meshgroup@md2@@UAEPAXI@Z 0043ee45 f i rendermodel.obj
 0001:0003de45       ??_Gmd3meshgroup@md3@@UAEPAXI@Z 0043ee45 f i rendermodel.obj
 0001:0003de45       ??_Gobjmeshgroup@obj@@UAEPAXI@Z 0043ee45 f i rendermodel.obj
 0001:0003de91       ??_Emd2part@md2@@UAEPAXI@Z 0043ee91 f i * CIL library *:* CIL module *
 0001:0003de91       ??_Gmd2part@md2@@UAEPAXI@Z 0043ee91 f i rendermodel.obj
 0001:0003deda       ?load@md3meshgroup@md3@@QAE_NPAD@Z 0043eeda f i rendermodel.obj
 0001:0003e45a       ?loadmeshes@md3@@UAEPAUmeshgroup@animmodel@@PAD0@Z 0043f45a f i rendermodel.obj
 0001:0003e4ba       ?loaddefaultparts@md3@@UAE_NXZ 0043f4ba f i rendermodel.obj
 0001:0003e5c9       ?load@md3@@UAE_NXZ         0043f5c9 f i rendermodel.obj
 0001:0003e703       ?type@md5@@UBEHXZ          0043f703 f i rendermodel.obj
 0001:0003e707       ??1md5mesh@md5@@UAE@XZ     0043f707 f i rendermodel.obj
 0001:0003e74d       ?cleanup@md5mesh@md5@@QAEXXZ 0043f74d f i rendermodel.obj
 0001:0003e778       ?buildverts@md5mesh@md5@@QAEXAAU?$vector@Umd5joint@@@@@Z 0043f778 f i rendermodel.obj
 0001:0003e9cf       ?load@md5mesh@md5@@QAEXPAUstream@@PADI@Z 0043f9cf f i rendermodel.obj
 0001:0003ed2c       ?loadmd5mesh@md5meshgroup@md5@@QAE_NPBDM@Z 0043fd2c f i rendermodel.obj
 0001:0003f385       ?loadmd5anim@md5meshgroup@md5@@QAEPAUskelanimspec@skelmodel@@PBD@Z 00440385 f i rendermodel.obj
 0001:0003fce3       ?loadmeshes@md5@@UAEPAUmeshgroup@animmodel@@PAD0@Z 00440ce3 f i rendermodel.obj
 0001:0003fd7d       ?loaddefaultparts@md5@@UAE_NXZ 00440d7d f i rendermodel.obj
 0001:0003fe9f       ?load@md5@@UAE_NXZ         00440e9f f i rendermodel.obj
 0001:0003ffc9       ??_Emd5mesh@md5@@UAEPAXI@Z 00440fc9 f i * CIL library *:* CIL module *
 0001:0003ffc9       ??_Gmd5mesh@md5@@UAEPAXI@Z 00440fc9 f i rendermodel.obj
 0001:0003ffe8       ??_Eiqmmeshgroup@iqm@@UAEPAXI@Z 00440fe8 f i * CIL library *:* CIL module *
 0001:0003ffe8       ??_Emd5meshgroup@md5@@UAEPAXI@Z 00440fe8 f i * CIL library *:* CIL module *
 0001:0003ffe8       ??_Esmdmeshgroup@smd@@UAEPAXI@Z 00440fe8 f i * CIL library *:* CIL module *
 0001:0003ffe8       ??_Giqmmeshgroup@iqm@@UAEPAXI@Z 00440fe8 f i rendermodel.obj
 0001:0003ffe8       ??_Gmd5meshgroup@md5@@UAEPAXI@Z 00440fe8 f i rendermodel.obj
 0001:0003ffe8       ??_Gsmdmeshgroup@smd@@UAEPAXI@Z 00440fe8 f i rendermodel.obj
 0001:00040034       ?type@obj@@UBEHXZ          00441034 f i rendermodel.obj
 0001:00040038       ?parsevert@objmeshgroup@obj@@QAEXPADAAU?$vector@Uvec@@@@@Z 00441038 f i rendermodel.obj
 0001:000400be       ?load@objmeshgroup@obj@@QAE_NPADM@Z 004410be f i rendermodel.obj
 0001:000408e6       ?loadmeshes@obj@@UAEPAUmeshgroup@animmodel@@PAD0@Z 004418e6 f i rendermodel.obj
 0001:00040951       ?loaddefaultparts@obj@@UAE_NXZ 00441951 f i rendermodel.obj
 0001:00040a7c       ?load@obj@@UAE_NXZ         00441a7c f i rendermodel.obj
 0001:00040bb6       ?type@smd@@UBEHXZ          00441bb6 f i rendermodel.obj
 0001:00040bba       ?skipcomment@smdmeshgroup@smd@@QAE_NAAPAD@Z 00441bba f i rendermodel.obj
 0001:00040c05       ?skipsection@smdmeshgroup@smd@@QAEXPAUstream@@PADI@Z 00441c05 f i rendermodel.obj
 0001:00040c52       ?readnodes@smdmeshgroup@smd@@QAEXPAUstream@@PADIAAU?$vector@Usmdbone@@@@@Z 00441c52 f i rendermodel.obj
 0001:00040df8       ?finalize@smdmeshdata@smdmeshgroup@smd@@QAEXXZ 00441df8 f i rendermodel.obj
 0001:00040f05       ?readtriangles@smdmeshgroup@smd@@QAEXPAUstream@@PADI@Z 00441f05 f i rendermodel.obj
 0001:00041410       ?readskeleton@smdmeshgroup@smd@@QAEXPAUstream@@PADI@Z 00442410 f i rendermodel.obj
 0001:000417b2       ?loadmesh@smdmeshgroup@smd@@QAE_NPBD@Z 004427b2 f i rendermodel.obj
 0001:00041a3c       ?readframes@smdmeshgroup@smd@@QAEHPAUstream@@PADIAAU?$vector@Udualquat@@@@@Z 00442a3c f i rendermodel.obj
 0001:0004210a       ?loadanim@smdmeshgroup@smd@@QAEPAUskelanimspec@skelmodel@@PBD@Z 0044310a f i rendermodel.obj
 0001:000423d3       ?loadmeshes@smd@@UAEPAUmeshgroup@animmodel@@PAD0@Z 004433d3 f i rendermodel.obj
 0001:00042455       ?loaddefaultparts@smd@@UAE_NXZ 00443455 f i rendermodel.obj
 0001:00042533       ?load@smd@@UAE_NXZ         00443533 f i rendermodel.obj
 0001:0004265d       ??1?$hashtable@PBDUsmdmeshdata@smdmeshgroup@smd@@@@QAE@XZ 0044365d f i rendermodel.obj
 0001:0004268e       ??_Esmdmesh@smd@@UAEPAXI@Z 0044368e f i * CIL library *:* CIL module *
 0001:0004268e       ??_Gsmdmesh@smd@@UAEPAXI@Z 0044368e f i rendermodel.obj
 0001:000426d7       ?type@iqm@@UBEHXZ          004436d7 f i rendermodel.obj
 0001:000426db       ?loadiqmmeshes@iqmmeshgroup@iqm@@QAE_NPBDABUiqmheader@@PAE@Z 004436db f i rendermodel.obj
 0001:00042e8c       ?loadiqmanims@iqmmeshgroup@iqm@@QAE_NPBDABUiqmheader@@PAE@Z 00443e8c f i rendermodel.obj
 0001:0004346a       ?loadiqm@iqmmeshgroup@iqm@@QAE_NPBD_N1@Z 0044446a f i rendermodel.obj
 0001:0004355e       ?loadanim@iqmmeshgroup@iqm@@QAEPAUskelanimspec@skelmodel@@PBD@Z 0044455e f i rendermodel.obj
 0001:000435f1       ?loadmeshes@iqm@@UAEPAUmeshgroup@animmodel@@PAD0@Z 004445f1 f i rendermodel.obj
 0001:00043677       ?loaddefaultparts@iqm@@UAE_NXZ 00444677 f i rendermodel.obj
 0001:00043755       ?load@iqm@@UAE_NXZ         00444755 f i rendermodel.obj
 0001:0004387f       ?access@?$hashtable@PBDPAUmodel@@@@QAEAAPAUmodel@@ABQBDABQAU2@@Z 0044487f f i rendermodel.obj
 0001:000438d9       ?access@?$hashtable@PBDPAUmodel@@@@QAEPAPAUmodel@@ABQBD@Z 004448d9 f i rendermodel.obj
 0001:0004391c       ?add@?$vector@Uiqmadjustment@@@@QAEAAUiqmadjustment@@ABU2@@Z 0044491c f i rendermodel.obj
 0001:00043965       ??1?$hashset@H@@QAE@XZ     00444965 f i rendermodel.obj
 0001:00043965       ??1?$hashset@PBD@@QAE@XZ   00444965 f i shader.obj
 0001:000439a2       ??A?$hashtable@PBDUsmdmeshdata@smdmeshgroup@smd@@@@QAEAAUsmdmeshdata@smdmeshgroup@smd@@ABQBD@Z 004449a2 f i rendermodel.obj
 0001:000439f4       ??1?$hashset@U?$hashtableentry@PBDUsmdmeshdata@smdmeshgroup@smd@@@@@@QAE@XZ 004449f4 f i rendermodel.obj
 0001:00043a3a       ?add@?$vector@Usmdadjustment@@@@QAEAAUsmdadjustment@@ABU2@@Z 00444a3a f i rendermodel.obj
 0001:00043a83       ?add@?$vector@Umd5joint@@@@QAEAAUmd5joint@@ABU2@@Z 00444a83 f i rendermodel.obj
 0001:00043aba       ?add@?$vector@Umd5adjustment@@@@QAEAAUmd5adjustment@@ABU2@@Z 00444aba f i rendermodel.obj
 0001:00043b03       ??A?$hashtable@Uivec@@H@@QAEAAHABUivec@@@Z 00444b03 f i rendermodel.obj
 0001:00043bc1       ?access@?$hashtable@Uivec@@H@@QAEPAHABUivec@@@Z 00444bc1 f i rendermodel.obj
 0001:00043bfb       ??0?$hashtable@Uivec@@H@@QAE@H@Z 00444bfb f i rendermodel.obj
 0001:00043c73       ??1?$hashset@U?$hashtableentry@Uivec@@H@@@@QAE@XZ 00444c73 f i rendermodel.obj
 0001:00043c91       ??A?$hashtable@PADPAUskeleton@skelmodel@@@@QAEAAPAUskeleton@skelmodel@@ABQAD@Z 00444c91 f i rendermodel.obj
 0001:00043ce3       ??0?$hashtable@PADPAUskeleton@skelmodel@@@@QAE@H@Z 00444ce3 f i rendermodel.obj
 0001:00043d57       ??1?$vector@Utag@skelmodel@@@@QAE@XZ 00444d57 f i rendermodel.obj
 0001:00043d96       ??1?$vector@Uskelanimspec@skelmodel@@@@QAE@XZ 00444d96 f i rendermodel.obj
 0001:00043dd1       ?access@?$hashtable@Uvec@@H@@QAEAAHABUvec@@ABH@Z 00444dd1 f i rendermodel.obj
 0001:00043ebd       ??A?$hashtable@PADPAUmeshgroup@animmodel@@@@QAEAAPAUmeshgroup@animmodel@@ABQAD@Z 00444ebd f i rendermodel.obj
 0001:00043f0f       ??0?$hashtable@PADPAUmeshgroup@animmodel@@@@QAE@H@Z 00444f0f f i rendermodel.obj
 0001:00043f83       ?add@?$vector@Uskin@animmodel@@@@QAEAAUskin@animmodel@@XZ 00444f83 f i rendermodel.obj
 0001:00044005       ?growbuf@?$vector@Umodelattach@@@@QAEXH@Z 00445005 f i rendermodel.obj
 0001:0004407b       ?growbuf@?$vector@PAUmodelbatch@@@@QAEXH@Z 0044507b f i rendermodel.obj
 0001:000440f3       ?growbuf@?$vector@Ubatchedmodel@@@@QAEXH@Z 004450f3 f i rendermodel.obj
 0001:000440f3       ?growbuf@?$vector@Uskin@animmodel@@@@QAEXH@Z 004450f3 f i rendermodel.obj
 0001:00044152       ?growbuf@?$vector@Umapmodelinfo@@@@QAEXH@Z 00445152 f i rendermodel.obj
 0001:000441ce       ?growbuf@?$vector@Uiqmadjustment@@@@QAEXH@Z 004451ce f i rendermodel.obj
 0001:00044244       ?growbuf@?$vector@Uscore@captureclientmode@game@@@@QAEXH@Z 00445244 f i client1.obj
 0001:00044244       ?growbuf@?$vector@Uscore@captureservmode@server@@@@QAEXH@Z 00445244 f i server1.obj
 0001:00044244       ?growbuf@?$vector@Usmdbone@@@@QAEXH@Z 00445244 f i rendermodel.obj
 0001:000442a9       ?growbuf@?$vector@Utri@skelmodel@@@@QAEXH@Z 004452a9 f i rendermodel.obj
 0001:000442a9       ?growbuf@?$vector@Utri@vertmodel@@@@QAEXH@Z 004452a9 f i rendermodel.obj
 0001:00044308       ?growbuf@?$vector@Usmdadjustment@@@@QAEXH@Z 00445308 f i rendermodel.obj
 0001:0004437e       ?growbuf@?$vector@Umd5adjustment@@@@QAEXH@Z 0044537e f i rendermodel.obj
 0001:000443f4       ?deletechunks@?$hashset@U?$hashtableentry@Uivec@@H@@@@QAEXXZ 004453f4 f i rendermodel.obj
 0001:0004441e       ?growbuf@?$vector@Uskelcacheentry@skelmodel@@@@QAEXH@Z 0044541e f i rendermodel.obj
 0001:00044483       ??0?$hashset@U?$hashtableentry@Uvec@@H@@@@QAE@H@Z 00445483 f i rendermodel.obj
 0001:00044515       ?growbuf@?$vector@Utri@BIH@@@@QAEXH@Z 00445515 f i rendermodel.obj
 0001:00044574       ?growbuf@?$vector@Uanimspec@animmodel@@@@QAEXH@Z 00445574 f i rendermodel.obj
 0001:00044574       ?growbuf@?$vector@Udistlimit@ragdollskel@@@@QAEXH@Z 00445574 f i rendermodel.obj
 0001:000445d3       ?growbuf@?$vector@Ulinkedpart@animmodel@@@@QAEXH@Z 004455d3 f i rendermodel.obj
 0001:00044632       ?growbuf@?$vector@Ujoint@ragdollskel@@@@QAEXH@Z 00445632 f i rendermodel.obj
 0001:00044691       ?growbuf@?$vector@Urotfriction@ragdollskel@@@@QAEXH@Z 00445691 f i rendermodel.obj
 0001:000446f0       ?growbuf@?$vector@Uinterest@ai@@@@QAEXH@Z 004456f0 f i ai.obj
 0001:000446f0       ?growbuf@?$vector@Uvert@ragdollskel@@@@QAEXH@Z 004456f0 f i rendermodel.obj
 0001:000446f0       ?growbuf@?$vector@Uvvert@skelmodel@@@@QAEXH@Z 004456f0 f i rendermodel.obj
 0001:000446f0       ?growbuf@?$vector@Uvvertff@vertmodel@@@@QAEXH@Z 004456f0 f i rendermodel.obj
 0001:000446f0       ?growbuf@?$vector@Uzipfile@@@@QAEXH@Z 004456f0 f i zip.obj
 0001:0004474f       ??1chainchunk@?$hashset@U?$hashtableentry@PBDUsmdmeshdata@smdmeshgroup@smd@@@@@@QAE@XZ 0044574f f i rendermodel.obj
 0001:0004478a       ??1chain@?$hashset@U?$hashtableentry@PBDUsmdmeshdata@smdmeshgroup@smd@@@@@@QAE@XZ 0044578a f i rendermodel.obj
 0001:000447c6       ??1?$hashtableentry@PBDUsmdmeshdata@smdmeshgroup@smd@@@@QAE@XZ 004457c6 f i rendermodel.obj
 0001:000447fa       ??1smdmeshdata@smdmeshgroup@smd@@QAE@XZ 004457fa f i rendermodel.obj
 0001:000447fa       ??1worldstate@server@@QAE@XZ 004457fa f i server1.obj
 0001:0004483e       ?insert@?$hashset@U?$hashtableentry@PBDPAUmodel@@@@@@QAEPAUchain@1@I@Z 0044583e f i rendermodel.obj
 0001:000448d5       ?insert@?$hashset@U?$hashtableentry@PBDUsmdmeshdata@smdmeshgroup@smd@@@@@@QAEPAUchain@1@I@Z 004458d5 f i rendermodel.obj
 0001:00044970       ?insert@?$hashset@U?$hashtableentry@PADPAUskeleton@skelmodel@@@@@@QAEPAUchain@1@I@Z 00445970 f i rendermodel.obj
 0001:00044a07       ?insert@?$hashset@U?$hashtableentry@PADPAUmeshgroup@animmodel@@@@@@QAEPAUchain@1@I@Z 00445a07 f i rendermodel.obj
 0001:00044a9e       ??0chain@?$hashset@U?$hashtableentry@PBDUsmdmeshdata@smdmeshgroup@smd@@@@@@QAE@XZ 00445a9e f i rendermodel.obj
 0001:00044ae0       ??$genvbo@Uvvertbump@vertmodel@@@vertmesh@vertmodel@@QAEHAAU?$vector@G@@HAAU?$vector@Uvvertbump@vertmodel@@@@PAHH@Z 00445ae0 f i rendermodel.obj
 0001:00044d79       ??$genvbo@Uvvert@vertmodel@@@vertmesh@vertmodel@@QAEHAAU?$vector@G@@HAAU?$vector@Uvvert@vertmodel@@@@PAHH@Z 00445d79 f i rendermodel.obj
 0001:00044fd8       ??$genvbo@Uvvertff@vertmodel@@@vertmesh@vertmodel@@QAEHAAU?$vector@G@@HAAU?$vector@Uvvertff@vertmodel@@@@PAHH@Z 00445fd8 f i rendermodel.obj
 0001:00045214       ??$genvbo@Uvvertbumpw@skelmodel@@@skelmesh@skelmodel@@QAEHAAU?$vector@G@@HAAU?$vector@Uvvertbumpw@skelmodel@@@@@Z 00446214 f i rendermodel.obj
 0001:00045397       ??$genvbo@Uvvertw@skelmodel@@@skelmesh@skelmodel@@QAEHAAU?$vector@G@@HAAU?$vector@Uvvertw@skelmodel@@@@@Z 00446397 f i rendermodel.obj
 0001:000454b9       ??$genvbo@Uvvertbump@skelmodel@@@skelmesh@skelmodel@@QAEHAAU?$vector@G@@HAAU?$vector@Uvvertbump@skelmodel@@@@PAHH@Z 004464b9 f i rendermodel.obj
 0001:0004575f       ??$genvbo@Uvvertn@skelmodel@@@skelmesh@skelmodel@@QAEHAAU?$vector@G@@HAAU?$vector@Uvvertn@skelmodel@@@@PAHH@Z 0044675f f i rendermodel.obj
 0001:000459a4       ??$genvbo@Uvvert@skelmodel@@@skelmesh@skelmodel@@QAEHAAU?$vector@G@@HAAU?$vector@Uvvert@skelmodel@@@@PAHH@Z 004469a4 f i rendermodel.obj
 0001:00045bb4       ??$blendbones@Umatrix3x4@@@skelmeshgroup@skelmodel@@SAXAAUmatrix3x4@@PBU2@ABUblendcombo@1@@Z 00446bb4 f i rendermodel.obj
 0001:00045c50       ??$interpverts@Umatrix3x4@@@skelmesh@skelmodel@@QAEXPIBUmatrix3x4@@0_N1PIAXAAUskin@animmodel@@@Z 00446c50 f i rendermodel.obj
 0001:00045e7b       ??$interpverts@Udualquat@@@skelmesh@skelmodel@@QAEXPIBUdualquat@@0_N1PIAXAAUskin@animmodel@@@Z 00446e7b f i rendermodel.obj
 0001:00046903       ??$access@Usmdvertkey@smdmeshgroup@smd@@@?$hashset@H@@QAEAAHABUsmdvertkey@smdmeshgroup@smd@@ABH@Z 00447903 f i rendermodel.obj
 0001:000469d2       ?growbuf@?$vector@Uvvertbumpw@skelmodel@@@@QAEXH@Z 004479d2 f i rendermodel.obj
 0001:00046a31       ?accumulate@matrix3x4@@QAEXABU1@M@Z 00447a31 f i rendermodel.obj
 0001:00046b41       ??_Emodel@@UAEPAXI@Z       00447b41 f i * CIL library *:* CIL module *
 0001:00046b41       ??_Gmodel@@UAEPAXI@Z       00447b41 f i rendermodel.obj
 0001:00046b60       ??0matrix3x3@@QAE@ABUquat@@@Z 00447b60 f i rendermodel.obj
 0001:00046c91       ?translate@dualquat@@QAEXABUvec@@@Z 00447c91 f i rendermodel.obj
 0001:00046d67       ?mulorient@dualquat@@QAEXABUquat@@@Z 00447d67 f i rendermodel.obj
 0001:00046eb1       ??0dualquat@@QAE@ABUquat@@ABUvec@@@Z 00447eb1 f i rendermodel.obj
 0001:00046fab       ___local_stdio_scanf_options 00447fab f i rendermodel.obj
 0001:00046fb1       _sscanf                    00447fb1 f i rendermodel.obj
 0001:00046fd5       ??$convertmatrix@Umatrix3x4@@@quat@@QAEXABUmatrix3x4@@@Z 00447fd5 f i rendermodel.obj
 0001:000471ec       ??0dualquat@@QAE@ABUmatrix3x4@@@Z 004481ec f i rendermodel.obj
 0001:000472c4       ?transposemul@matrix3x4@@QAEXABUmatrix3x3@@ABUvec@@ABU1@@Z 004482c4 f i rendermodel.obj
 0001:000475a4       ?mul@dualquat@@QAEXABU1@@Z 004485a4 f i rendermodel.obj
 0001:000475cc       ?transposemul@matrix3x4@@QAEXABU1@0@Z 004485cc f i rendermodel.obj
 0001:00047912       ?fixantipodal@dualquat@@QAEXABU1@@Z 00448912 f i rendermodel.obj
 0001:00047990       ?mulorient@dualquat@@QAEXABUquat@@ABU1@@Z 00448990 f i rendermodel.obj
 0001:00047e97       ?mul@quat@@QAEAAU1@ABU1@0@Z 00448e97 f i rendermodel.obj
 0001:00047f7f       ?mul@dualquat@@QAEXABU1@0@Z 00448f7f f i rendermodel.obj
 0001:00047ff8       ?normalize@dualquat@@QAEXXZ 00448ff8 f i rendermodel.obj
 0001:00048066       ?mulorient@matrix3x4@@QAEXABUmatrix3x3@@ABUdualquat@@@Z 00449066 f i rendermodel.obj
 0001:000483df       ??0matrix3x4@@QAE@ABUdualquat@@@Z 004493df f i rendermodel.obj
 0001:00048683       ?accumulate@dualquat@@QAEXABU1@M@Z 00449683 f i rendermodel.obj
 0001:00048791       ??0glmatrixf@@QAE@ABUmatrix3x4@@@Z 00449791 f i rendermodel.obj
 0001:000487f3       ?lerp@matrix3x4@@QAEXABU1@0M@Z 004497f3 f i rendermodel.obj
 0001:0004891a       ?transformnormal@matrix3x4@@QBE?AUvec@@ABU2@@Z 0044991a f i rendermodel.obj
 0001:00048997       ?mul@matrix3x4@@QAEXABU1@0@Z 00449997 f i rendermodel.obj
 0001:00048c67       ?transform@matrix3x4@@QBE?AUvec@@ABU2@@Z 00449c67 f i rendermodel.obj
 0001:00048cf3       ??1BIH@@QAE@XZ             00449cf3 f i rendermodel.obj
 0001:00048d1e       ??1model@@UAE@XZ           00449d1e f i rendermodel.obj
 0001:00048d47       ?aifind@clientmode@game@@UAEXPAUfpsent@@AAUaistate@ai@@AAU?$vector@Uinterest@ai@@@@@Z 00449d47 f i client1.obj
 0001:00048d47       ?changeteam@servmode@server@@UAEXPAUclientinfo@2@PBD1@Z 00449d47 f i server1.obj
 0001:00048d47       ?drawhud@clientmode@game@@UAEXPAUfpsent@@HH@Z 00449d47 f i client1.obj
 0001:00048d47       ?initclient@servmode@server@@UAEXPAUclientinfo@2@AAUpacketbuf@@_N@Z 00449d47 f i server1.obj
 0001:00048d47       ?setenvmap@model@@UAEXMMPAUTexture@@@Z 00449d47 f i rendermodel.obj
 0001:00048d4a       ?preloadBIH@model@@UAEXXZ  00449d4a f i rendermodel.obj
 0001:00048d56       ?rotate_around_z@glmatrixf@@QAEXM@Z 00449d56 f i rendermodel.obj
 0001:00048e51       ?invertnormal@glmatrixf@@QBEXAAUvec@@@Z 00449e51 f i rendermodel.obj
 0001:00048edd       ?rotate@glmatrixf@@QAEXMMABUvec@@@Z 00449edd f i rendermodel.obj
 0001:0004913e       ?setvariant_@Shader@@QAEXHHPAU1@@Z 0044a13e f i rendermodel.obj
 0001:00049198       ?setvariant@Shader@@QAEXHH@Z 0044a198 f i rendermodel.obj
 0001:000491c5       ?calcangleaxis@matrix3x3@@QAE_NAAMAAUvec@@M@Z 0044a1c5 f i rendermodel.obj
 0001:0004943b       ?mul@matrix3x3@@QAEXABU1@0@Z 0044a43b f i rendermodel.obj
 0001:00049660       ?transposemul@matrix3x3@@QAEXABU1@0@Z 0044a660 f i rendermodel.obj
 0001:00049885       ?mul@matrix3x4@@QAEXABUmatrix3x3@@ABUvec@@ABU1@@Z 0044a885 f i rendermodel.obj
 0001:00049b65       ?addblurtiles@rendertarget@@QAE_NMMMMM@Z 0044ab65 f i renderparticles.obj
 0001:00049cf0       ?debugscissor@rendertarget@@QAEXHH_N@Z 0044acf0 f i renderparticles.obj
 0001:00049e12       ?debugblurtiles@rendertarget@@QAEXHH_N@Z 0044ae12 f i renderparticles.obj
 0001:0004a10f       ?finalize@particleemitter@@QAEXXZ 0044b10f f i renderparticles.obj
 0001:0004a2b9       ??1partrenderer@@UAE@XZ    0044b2b9 f i renderparticles.obj
 0001:0004a2c0       ?seedemitter@partrenderer@@UAEXAAUparticleemitter@@ABUvec@@1HMH@Z 0044b2c0 f i renderparticles.obj
 0001:0004a2c3       ?calc@partrenderer@@QAEXPAUparticle@@AAH1AAUvec@@2_N@Z 0044b2c3 f i renderparticles.obj
 0001:0004a69b       ??_Epartrenderer@@UAEPAXI@Z 0044b69b f i * CIL library *:* CIL module *
 0001:0004a69b       ??_Gpartrenderer@@UAEPAXI@Z 0044b69b f i renderparticles.obj
 0001:0004a6bb       ??1listrenderer@@UAE@XZ    0044b6bb f i renderparticles.obj
 0001:0004a6f3       ?reset@listrenderer@@UAEXXZ 0044b6f3 f i renderparticles.obj
 0001:0004a728       ?resettracked@listrenderer@@UAEXPAUphysent@@@Z 0044b728 f i renderparticles.obj
 0001:0004a76f       ?addpart@listrenderer@@UAEPAUparticle@@ABUvec@@0HHMHH@Z 0044b76f f i renderparticles.obj
 0001:0004a83c       ?count@listrenderer@@UAEHXZ 0044b83c f i renderparticles.obj
 0001:0004a84c       ?haswork@listrenderer@@UAE_NXZ 0044b84c f i renderparticles.obj
 0001:0004a854       ?render@listrenderer@@UAEXXZ 0044b854 f i renderparticles.obj
 0001:0004a916       ??_Elistrenderer@@UAEPAXI@Z 0044b916 f i * CIL library *:* CIL module *
 0001:0004a916       ??_Glistrenderer@@UAEPAXI@Z 0044b916 f i renderparticles.obj
 0001:0004a966       ?startrender@meterrenderer@@UAEXXZ 0044b966 f i renderparticles.obj
 0001:0004a987       ?endrender@meterrenderer@@UAEXXZ 0044b987 f i renderparticles.obj
 0001:0004a9a8       ?renderpart@meterrenderer@@UAEXPAUlistparticle@@ABUvec@@1HHPAE@Z 0044b9a8 f i renderparticles.obj
 0001:0004ae72       ??_Efireballrenderer@@UAEPAXI@Z 0044be72 f i * CIL library *:* CIL module *
 0001:0004ae72       ??_Elightningrenderer@@UAEPAXI@Z 0044be72 f i * CIL library *:* CIL module *
 0001:0004ae72       ??_Emeterrenderer@@UAEPAXI@Z 0044be72 f i * CIL library *:* CIL module *
 0001:0004ae72       ??_Etextrenderer@@UAEPAXI@Z 0044be72 f i * CIL library *:* CIL module *
 0001:0004ae72       ??_Gfireballrenderer@@UAEPAXI@Z 0044be72 f i renderparticles.obj
 0001:0004ae72       ??_Glightningrenderer@@UAEPAXI@Z 0044be72 f i renderparticles.obj
 0001:0004ae72       ??_Gmeterrenderer@@UAEPAXI@Z 0044be72 f i renderparticles.obj
 0001:0004ae72       ??_Gtextrenderer@@UAEPAXI@Z 0044be72 f i renderparticles.obj
 0001:0004aec6       ?cleanup@textrenderer@@UAEXPAUlistparticle@@@Z 0044bec6 f i renderparticles.obj
 0001:0004aee2       ?renderpart@textrenderer@@UAEXPAUlistparticle@@ABUvec@@1HHPAE@Z 0044bee2 f i renderparticles.obj
 0001:0004b055       ?colorformats@depthfxtexture@@UBEPBIXZ 0044c055 f i renderparticles.obj
 0001:0004b0b3       ?addscissorbox@depthfxtexture@@QAE_NABUvec@@0@Z 0044c0b3 f i renderparticles.obj
 0001:0004b22d       ?screenview@depthfxtexture@@UBE_NXZ 0044c22d f i renderparticles.obj
 0001:0004b238       ?texrect@depthfxtexture@@UBE_NXZ 0044c238 f i renderparticles.obj
 0001:0004b250       ?filter@depthfxtexture@@UBE_NXZ 0044c250 f i renderparticles.obj
 0001:0004b25b       ?highprecision@depthfxtexture@@QBE_NXZ 0044c25b f i renderparticles.obj
 0001:0004b27c       ?shouldrender@depthfxtexture@@UAE_NXZ 0044c27c f i renderparticles.obj
 0001:0004b2c0       ?dorender@depthfxtexture@@UAE_NXZ 0044c2c0 f i renderparticles.obj
 0001:0004b364       ?dodebug@depthfxtexture@@UAEXHH@Z 0044c364 f i renderparticles.obj
 0001:0004b3e6       ?startrender@fireballrenderer@@UAEXXZ 0044c3e6 f i renderparticles.obj
 0001:0004b3eb       ?endrender@fireballrenderer@@UAEXXZ 0044c3eb f i renderparticles.obj
 0001:0004b3fb       ?cleanup@fireballrenderer@@UAEXXZ 0044c3fb f i renderparticles.obj
 0001:0004b400       ?finddepthfxranges@fireballrenderer@@QAEHPAPAXPAMHHAAUvec@@2@Z 0044c400 f i renderparticles.obj
 0001:0004b7cb       ?seedemitter@fireballrenderer@@UAEXAAUparticleemitter@@ABUvec@@1HMH@Z 0044c7cb f i renderparticles.obj
 0001:0004b875       ?renderpart@fireballrenderer@@UAEXPAUlistparticle@@ABUvec@@1HHPAE@Z 0044c875 f i renderparticles.obj
 0001:0004bfd3       ??0flarerenderer@@QAE@PBDH@Z 0044cfd3 f i renderparticles.obj
 0001:0004c06a       ?reset@flarerenderer@@UAEXXZ 0044d06a f i renderparticles.obj
 0001:0004c06f       ?newflare@flarerenderer@@QAEXAAUvec@@ABU2@EEEMM_N2@Z 0044d06f f i renderparticles.obj
 0001:0004c120       ?addflare@flarerenderer@@QAEXAAUvec@@EEE_N1@Z 0044d120 f i renderparticles.obj
 0001:0004c2c4       ?makelightflares@flarerenderer@@QAEXXZ 0044d2c4 f i renderparticles.obj
 0001:0004c508       ?count@flarerenderer@@UAEHXZ 0044d508 f i renderparticles.obj
 0001:0004c50c       ?haswork@flarerenderer@@UAE_NXZ 0044d50c f i renderparticles.obj
 0001:0004c52e       ?render@flarerenderer@@UAEXXZ 0044d52e f i renderparticles.obj
 0001:0004c981       ?addpart@flarerenderer@@UAEPAUparticle@@ABUvec@@0HHMHH@Z 0044d981 f i renderparticles.obj
 0001:0004c986       ??_Eflarerenderer@@UAEPAXI@Z 0044d986 f i * CIL library *:* CIL module *
 0001:0004c986       ??_Gflarerenderer@@UAEPAXI@Z 0044d986 f i renderparticles.obj
 0001:0004c9d0       ?startrender@lightningrenderer@@UAEXXZ 0044d9d0 f i renderparticles.obj
 0001:0004c9dc       ?endrender@lightningrenderer@@UAEXXZ 0044d9dc f i renderparticles.obj
 0001:0004c9e8       ?update@lightningrenderer@@UAEXXZ 0044d9e8 f i renderparticles.obj
 0001:0004c9ed       ?seedemitter@lightningrenderer@@UAEXAAUparticleemitter@@ABUvec@@1HMH@Z 0044d9ed f i renderparticles.obj
 0001:0004cae0       ?renderpart@lightningrenderer@@UAEXPAUlistparticle@@ABUvec@@1HHPAE@Z 0044dae0 f i renderparticles.obj
 0001:0004cb5e       ?render@?$varenderer@$00@@UAEXXZ 0044db5e f i renderparticles.obj
 0001:0004cb5e       ?render@?$varenderer@$01@@UAEXXZ 0044db5e f i renderparticles.obj
 0001:0004cb5e       ?render@?$varenderer@$0A@@@UAEXXZ 0044db5e f i renderparticles.obj
 0001:0004cc42       ?update@?$varenderer@$00@@UAEXXZ 0044dc42 f i renderparticles.obj
 0001:0004ccf6       ?seedemitter@?$varenderer@$00@@UAEXAAUparticleemitter@@ABUvec@@1HMH@Z 0044dcf6 f i renderparticles.obj
 0001:0004cf40       ?addpart@?$varenderer@$00@@UAEPAUparticle@@ABUvec@@0HHMHH@Z 0044df40 f i renderparticles.obj
 0001:0004cf40       ?addpart@?$varenderer@$01@@UAEPAUparticle@@ABUvec@@0HHMHH@Z 0044df40 f i renderparticles.obj
 0001:0004cf40       ?addpart@?$varenderer@$0A@@@UAEPAUparticle@@ABUvec@@0HHMHH@Z 0044df40 f i renderparticles.obj
 0001:0004cffc       ?haswork@?$varenderer@$00@@UAE_NXZ 0044dffc f i renderparticles.obj
 0001:0004cffc       ?haswork@?$varenderer@$01@@UAE_NXZ 0044dffc f i renderparticles.obj
 0001:0004cffc       ?haswork@?$varenderer@$0A@@@UAE_NXZ 0044dffc f i renderparticles.obj
 0001:0004d004       ?count@?$varenderer@$00@@UAEHXZ 0044e004 f i renderparticles.obj
 0001:0004d004       ?count@?$varenderer@$01@@UAEHXZ 0044e004 f i renderparticles.obj
 0001:0004d004       ?count@?$varenderer@$0A@@@UAEHXZ 0044e004 f i renderparticles.obj
 0001:0004d008       ?resettracked@?$varenderer@$00@@UAEXPAUphysent@@@Z 0044e008 f i renderparticles.obj
 0001:0004d008       ?resettracked@?$varenderer@$01@@UAEXPAUphysent@@@Z 0044e008 f i renderparticles.obj
 0001:0004d008       ?resettracked@?$varenderer@$0A@@@UAEXPAUphysent@@@Z 0044e008 f i renderparticles.obj
 0001:0004d044       ?reset@?$varenderer@$00@@UAEXXZ 0044e044 f i renderparticles.obj
 0001:0004d044       ?reset@?$varenderer@$01@@UAEXXZ 0044e044 f i renderparticles.obj
 0001:0004d044       ?reset@?$varenderer@$0A@@@UAEXXZ 0044e044 f i renderparticles.obj
 0001:0004d04d       ?init@?$varenderer@$00@@UAEXH@Z 0044e04d f i renderparticles.obj
 0001:0004d04d       ?init@?$varenderer@$01@@UAEXH@Z 0044e04d f i renderparticles.obj
 0001:0004d04d       ?init@?$varenderer@$0A@@@UAEXH@Z 0044e04d f i renderparticles.obj
 0001:0004d0ef       ?update@?$varenderer@$01@@UAEXXZ 0044e0ef f i renderparticles.obj
 0001:0004d1a3       ?seedemitter@?$varenderer@$01@@UAEXAAUparticleemitter@@ABUvec@@1HMH@Z 0044e1a3 f i renderparticles.obj
 0001:0004d38d       ??0?$varenderer@$01@@QAE@PBDHH@Z 0044e38d f i renderparticles.obj
 0001:0004d427       ?update@?$varenderer@$0A@@@UAEXXZ 0044e427 f i renderparticles.obj
 0001:0004d4db       ?seedemitter@?$varenderer@$0A@@@UAEXAAUparticleemitter@@ABUvec@@1HMH@Z 0044e4db f i renderparticles.obj
 0001:0004d6c2       ??0?$varenderer@$0A@@@QAE@PBDHH@Z 0044e6c2 f i renderparticles.obj
 0001:0004d75c       ??_E?$varenderer@$00@@UAEPAXI@Z 0044e75c f i * CIL library *:* CIL module *
 0001:0004d75c       ??_E?$varenderer@$01@@UAEPAXI@Z 0044e75c f i * CIL library *:* CIL module *
 0001:0004d75c       ??_E?$varenderer@$0A@@@UAEPAXI@Z 0044e75c f i * CIL library *:* CIL module *
 0001:0004d75c       ??_G?$varenderer@$00@@UAEPAXI@Z 0044e75c f i renderparticles.obj
 0001:0004d75c       ??_G?$varenderer@$01@@UAEPAXI@Z 0044e75c f i renderparticles.obj
 0001:0004d75c       ??_G?$varenderer@$0A@@@UAEPAXI@Z 0044e75c f i renderparticles.obj
 0001:0004d7a6       ?genverts@?$varenderer@$00@@QAEXPAUparticle@@PAUpartvert@@_N@Z 0044e7a6 f i renderparticles.obj
 0001:0004d9fd       ?genverts@?$varenderer@$01@@QAEXPAUparticle@@PAUpartvert@@_N@Z 0044e9fd f i renderparticles.obj
 0001:0004dc67       ?genverts@?$varenderer@$0A@@@QAEXPAUparticle@@PAUpartvert@@_N@Z 0044ec67 f i renderparticles.obj
 0001:0004e035       ?growbuf@?$vector@Uparticleemitter@@@@QAEXH@Z 0044f035 f i renderparticles.obj
 0001:0004e0ab       ??0domevert@@QAE@ABUvec@@ABUbvec@@M@Z 0044f0ab f i rendersky.obj
 0001:0004e0ef       ??A?$hashtable@PBDUfont@@@@QAEAAUfont@@ABQBD@Z 0044f0ef f i rendertext.obj
 0001:0004e141       ?access@?$hashtable@PBDUfont@@@@QAEPAUfont@@ABQBD@Z 0044f141 f i rendertext.obj
 0001:0004e184       ??1?$hashset@U?$hashtableentry@PBDUfont@@@@@@QAE@XZ 0044f184 f i rendertext.obj
 0001:0004e1ca       ?growbuf@?$vector@PAUfont@@@@QAEXH@Z 0044f1ca f i rendertext.obj
 0001:0004e242       ??1chainchunk@?$hashset@U?$hashtableentry@PBDUfont@@@@@@QAE@XZ 0044f242 f i rendertext.obj
 0001:0004e27d       ??1chain@?$hashset@U?$hashtableentry@PBDUfont@@@@@@QAE@XZ 0044f27d f i rendertext.obj
 0001:0004e2ae       ??1?$hashtableentry@PBDUfont@@@@QAE@XZ 0044f2ae f i rendertext.obj
 0001:0004e2ed       ?insert@?$hashset@U?$hashtableentry@PBDUfont@@@@@@QAEPAUchain@1@I@Z 0044f2ed f i rendertext.obj
 0001:0004e39d       ??0chain@?$hashset@U?$hashtableentry@PBDUfont@@@@@@QAE@XZ 0044f39d f i rendertext.obj
 0001:0004e3d3       ??0renderstate@@QAE@XZ     0044f3d3 f i renderva.obj
 0001:0004e487       ??0geombatch@@QAE@ABUelementset@@PAGPAUvtxarray@@@Z 0044f487 f i renderva.obj
 0001:0004e4bb       ?compare@geombatch@@QBEHABU1@@Z 0044f4bb f i renderva.obj
 0001:0004e558       ?add@?$vector@Ugeombatch@@@@QAEAAUgeombatch@@ABU2@@Z 0044f558 f i renderva.obj
 0001:0004e5a1       ?growbuf@?$vector@Ugeombatch@@@@QAEXH@Z 0044f5a1 f i renderva.obj
 0001:0004e617       ?setvariant@Shader@@QAEXHHAAUSlot@@AAUVSlot@@@Z 0044f617 f i renderva.obj
 0001:0004e652       ?setvariant@Shader@@QAEXHHAAUSlot@@AAUVSlot@@PAU1@@Z 0044f652 f i renderva.obj
 0001:0004e68c       ?normalize@plane@@QAEAAU1@XZ 0044f68c f i renderva.obj
 0001:0004e6e4       ?getrow@glmatrixf@@QBE?AUvec4@@H@Z 0044f6e4 f i renderva.obj
 0001:0004e716       ?inrange@?$vector@PAUclient@@@@QBE_NH@Z 0044f716 f i server.obj
 0001:0004e72f       ?growbuf@?$vector@PAUclient@@@@QAEXH@Z 0044f72f f i server.obj
 0001:0004e7a7       ?put@?$databuf@E@@QAEXABE@Z 0044f7a7 f i server.obj
 0001:0004e7c8       ?subbuf@?$databuf@E@@QAE?AU1@H@Z 0044f7c8 f i server.obj
 0001:0004e7f9       ?finalize@packetbuf@@QAEPAU_ENetPacket@@XZ 0044f7f9 f i server.obj
 0001:0004e819       ?checkspace@packetbuf@@QAEXH@Z 0044f819 f i server.obj
 0001:0004e85b       ??0packetbuf@@QAE@HH@Z     0044f85b f i server.obj
 0001:0004e894       ??0serverinfo@@QAE@XZ      0044f894 f i serverbrowser.obj
 0001:0004e909       ??1serverinfo@@QAE@XZ      0044f909 f i serverbrowser.obj
 0001:0004e960       ?compare@serverinfo@@SAHPAPAU1@0@Z 0044f960 f i serverbrowser.obj
 0001:0004e9fa       ?growbuf@?$vector@PAUserverinfo@@@@QAEXH@Z 0044f9fa f i serverbrowser.obj
 0001:0004ea72       ?growbuf@?$vector@Uresolverresult@@@@QAEXH@Z 0044fa72 f i serverbrowser.obj
 0001:0004eae8       ?growbuf@?$vector@Uresolverthread@@@@QAEXH@Z 0044fae8 f i serverbrowser.obj
 0001:0004eb5e       ??0GlobalShaderParamState@@QAE@XZ 0044fb5e f i shader.obj
 0001:0004eb87       ?add@?$vector@Upostfxpass@@@@QAEAAUpostfxpass@@XZ 0044fb87 f i shader.obj
 0001:0004ebd4       ?insert@?$vector@D@@QAEPADHPBDH@Z 0044fbd4 f i shader.obj
 0001:0004ec53       ??A?$hashtable@PBDUShader@@@@QAEAAUShader@@ABQBD@Z 0044fc53 f i shader.obj
 0001:0004eca8       ?access@?$hashtable@PBDUShader@@@@QAEPAUShader@@ABQBD@Z 0044fca8 f i shader.obj
 0001:0004ecee       ??1?$hashset@U?$hashtableentry@PBDUShader@@@@@@QAE@XZ 0044fcee f i shader.obj
 0001:0004ed34       ?add@?$vector@UUniformLoc@@@@QAEAAUUniformLoc@@ABU2@@Z 0044fd34 f i shader.obj
 0001:0004ed6b       ?add@?$vector@ULocalShaderParamState@@@@QAEAAULocalShaderParamState@@ABU2@@Z 0044fd6b f i shader.obj
 0001:0004eda2       ?growbuf@?$vector@Upostfxpass@@@@QAEXH@Z 0044fda2 f i shader.obj
 0001:0004ee18       ?growbuf@?$vector@Upostfxtex@@@@QAEXH@Z 0044fe18 f i shader.obj
 0001:0004ee8e       ?growbuf@?$vector@UUniformLoc@@@@QAEXH@Z 0044fe8e f i shader.obj
 0001:0004eeed       ?growbuf@?$vector@ULocalShaderParamState@@@@QAEXH@Z 0044feed f i shader.obj
 0001:0004ef4c       ??1chainchunk@?$hashset@U?$hashtableentry@PBDUShader@@@@@@QAE@XZ 0044ff4c f i shader.obj
 0001:0004ef8a       ??1chain@?$hashset@U?$hashtableentry@PBDUShader@@@@@@QAE@XZ 0044ff8a f i shader.obj
 0001:0004efc6       ??1?$hashtableentry@PBDUShader@@@@QAE@XZ 0044ffc6 f i shader.obj
 0001:0004effa       ?insert@?$hashset@U?$hashtableentry@PBDUShader@@@@@@QAEPAUchain@1@I@Z 0044fffa f i shader.obj
 0001:0004f0b8       ??0chain@?$hashset@U?$hashtableentry@PBDUShader@@@@@@QAE@XZ 004500b8 f i shader.obj
 0001:0004f0e8       ??$remove@PAD@?$hashset@U?$hashtableentry@PBDUShader@@@@@@QAE_NABQAD@Z 004500e8 f i shader.obj
 0001:0004f182       ??$?APBD@?$hashset@PBD@@QAEAAPBDABQBD@Z 00450182 f i shader.obj
 0001:0004f1cc       ?insert@?$hashset@PBD@@QAEPAUchain@1@I@Z 004501cc f i shader.obj
 0001:0004f247       ??0Shader@@QAE@XZ          00450247 f i shader.obj
 0001:0004f320       ??1Shader@@QAE@XZ          00450320 f i shader.obj
 0001:0004f40b       ??0LocalShaderParamState@@QAE@XZ 0045040b f i shader.obj
 0001:0004f429       ?checkblurtiles@rendertarget@@QAE_NMMMMM@Z 00450429 f i shadowmap.obj
 0001:0004f577       ?attachment@shadowmaptexture@@UBEIXZ 00450577 f i shadowmap.obj
 0001:0004f58a       ?colorformats@shadowmaptexture@@UBEPBIXZ 0045058a f i shadowmap.obj
 0001:0004f5d2       ?shadowcompare@shadowmaptexture@@UBE_NXZ 004505d2 f i shadowmap.obj
 0001:0004f5dd       ?filter@shadowmaptexture@@UBE_NXZ 004505dd f i shadowmap.obj
 0001:0004f5f5       ?swaptexs@shadowmaptexture@@UBE_NXZ 004505f5 f i shadowmap.obj
 0001:0004f600       ?scissorblur@shadowmaptexture@@UAE_NAAH000@Z 00450600 f i shadowmap.obj
 0001:0004f75e       ?scissorrender@shadowmaptexture@@UAE_NAAH000@Z 0045075e f i shadowmap.obj
 0001:0004f78a       ?doclear@shadowmaptexture@@UAEXXZ 0045078a f i shadowmap.obj
 0001:0004f81f       ?dorender@shadowmaptexture@@UAE_NXZ 0045081f f i shadowmap.obj
 0001:0004ff3d       ?dodebug@shadowmaptexture@@UAEXHH@Z 00450f3d f i shadowmap.obj
 0001:0004ff90       ??$transform@Uvec@@@glmatrixf@@QBEXABUvec@@AAUvec4@@@Z 00450f90 f i shadowmap.obj
 0001:00050086       ?projective@glmatrixf@@QAEXMM@Z 00451086 f i shadowmap.obj
 0001:00050101       ?reset@soundchannel@@QAEXXZ 00451101 f i sound.obj
 0001:00050144       ??A?$hashtable@PBDUsoundsample@@@@QAEAAUsoundsample@@ABQBD@Z 00451144 f i sound.obj
 0001:00050196       ?clear@?$hashset@U?$hashtableentry@PBDUsoundsample@@@@@@QAEXXZ 00451196 f i sound.obj
 0001:000501bd       ??1?$hashset@U?$hashtableentry@PBDUsoundsample@@@@@@QAE@XZ 004511bd f i sound.obj
 0001:000501db       ?inrange@?$vector@Usoundchannel@@@@QBE_NH@Z 004511db f i sound.obj
 0001:000501f4       ?deletechunks@?$hashset@U?$hashtableentry@PBDUsoundsample@@@@@@QAEXXZ 004511f4 f i sound.obj
 0001:00050227       ?growbuf@?$vector@Usoundchannel@@@@QAEXH@Z 00451227 f i sound.obj
 0001:0005029d       ??1chainchunk@?$hashset@U?$hashtableentry@PBDUsoundsample@@@@@@QAE@XZ 0045129d f i sound.obj
 0001:000502d8       ??1chain@?$hashset@U?$hashtableentry@PBDUsoundsample@@@@@@QAE@XZ 004512d8 f i sound.obj
 0001:000502d8       ??1chain@?$hashset@U?$hashtableentry@PBDUzipfile@@@@@@QAE@XZ 004512d8 f i zip.obj
 0001:00050309       ??1?$hashtableentry@PBDUsoundsample@@@@QAE@XZ 00451309 f i sound.obj
 0001:00050309       ??1?$hashtableentry@PBDUzipfile@@@@QAE@XZ 00451309 f i zip.obj
 0001:0005034c       ?insert@?$hashset@U?$hashtableentry@PBDUsoundsample@@@@@@QAEPAUchain@1@I@Z 0045134c f i sound.obj
 0001:000503fc       ??0chain@?$hashset@U?$hashtableentry@PBDUsoundsample@@@@@@QAE@XZ 004513fc f i sound.obj
 0001:00050424       ??1MSlot@@QAE@XZ           00451424 f i texture.obj
 0001:00050472       ?add@?$vector@PAUVSlot@@@@QAEAAPAUVSlot@@ABQAU2@@Z 00451472 f i texture.obj
 0001:000504b6       ??A?$hashtable@PADUTexture@@@@QAEAAUTexture@@ABQAD@Z 004514b6 f i texture.obj
 0001:00050508       ?access@?$hashtable@PADUTexture@@@@QAEPAUTexture@@ABQAD@Z 00451508 f i texture.obj
 0001:0005054b       ??1?$hashset@U?$hashtableentry@PADUTexture@@@@@@QAE@XZ 0045154b f i texture.obj
 0001:00050588       ?growbuf@?$vector@Uenvmap@@@@QAEXH@Z 00451588 f i texture.obj
 0001:000505fe       ?growbuf@?$vector@PAUSlot@@@@QAEXH@Z 004515fe f i texture.obj
 0001:00050676       ?growbuf@?$vector@PAUVSlot@@@@QAEXH@Z 00451676 f i texture.obj
 0001:000506ee       ?growbuf@?$vector@UTex@Slot@@@@QAEXH@Z 004516ee f i texture.obj
 0001:00050753       ?insert@?$hashset@U?$hashtableentry@PADUTexture@@@@@@QAEPAUchain@1@I@Z 00451753 f i texture.obj
 0001:000507ff       ??$remove@PAD@?$hashset@U?$hashtableentry@PADUTexture@@@@@@QAE_NABQAD@Z 004517ff f i texture.obj
 0001:00050864       ??$putbig@I@stream@@QAE_NI@Z 00451864 f i texture.obj
 0001:00050884       ?cleanup@Slot@@QAEXXZ      00451884 f i texture.obj
 0001:000508b8       ?reset@Slot@@QAEXXZ        004518b8 f i texture.obj
 0001:0005093a       ??0Slot@@QAE@H@Z           0045193a f i texture.obj
 0001:00050991       ??1Slot@@QAE@XZ            00451991 f i texture.obj
 0001:000509d5       ??0MSlot@@QAE@XZ           004519d5 f i texture.obj
 0001:00050a0f       ?wrap@ImageData@@QAEXPAUSDL_Surface@@@Z 00451a0f f i texture.obj
 0001:00050a83       ?calclevelsize@ImageData@@QBEHH@Z 00451a83 f i texture.obj
 0001:00050ac7       ?replace@ImageData@@QAEXAAU1@@Z 00451ac7 f i texture.obj
 0001:00050af7       ??0Reflection@@QAE@XZ      00451af7 f i water.obj
 0001:00050b37       ??1Reflection@@QAE@XZ      00451b37 f i water.obj
 0001:00050b6b       ??1aiinfo@ai@@QAE@XZ       00451b6b f i ai.obj
 0001:00050b6b       ??1avoidset@ai@@QAE@XZ     00451b6b f i ai.obj
 0001:00050b6b       ??1octaentities@@QAE@XZ    00451b6b f i world.obj
 0001:00050bae       ?removeobj@?$vector@H@@QAEXABH@Z 00451bae f i world.obj
 0001:00050bdc       ?growbuf@?$vector@Uentity@@@@QAEXH@Z 00451bdc f i world.obj
 0001:00050c52       ??1?$hashtable@Uvec2@@H@@QAE@XZ 00451c52 f i worldio.obj
 0001:00050c83       ??1?$hashtable@HU?$vector@Uivec@@@@@@QAE@XZ 00451c83 f i worldio.obj
 0001:00050cb4       ??A?$hashtable@HU?$vector@Uivec@@@@@@QAEAAU?$vector@Uivec@@@@ABH@Z 00451cb4 f i worldio.obj
 0001:00050ce6       ??0?$hashtable@HU?$vector@Uivec@@@@@@QAE@H@Z 00451ce6 f i worldio.obj
 0001:00050d5e       ??1?$hashset@U?$hashtableentry@HU?$vector@Uivec@@@@@@@@QAE@XZ 00451d5e f i worldio.obj
 0001:00050da4       ?access@?$hashtable@Uvec2@@H@@QAEAAHABUvec2@@ABH@Z 00451da4 f i worldio.obj
 0001:00050e8e       ??0?$hashtable@Uvec2@@H@@QAE@H@Z 00451e8e f i worldio.obj
 0001:00050f06       ??1chainchunk@?$hashset@U?$hashtableentry@HU?$vector@Uivec@@@@@@@@QAE@XZ 00451f06 f i worldio.obj
 0001:00050f41       ??1chain@?$hashset@U?$hashtableentry@HU?$vector@Uivec@@@@@@@@QAE@XZ 00451f41 f i worldio.obj
 0001:00050f7d       ?insert@?$hashset@U?$hashtableentry@HU?$vector@Uivec@@@@@@@@QAEPAUchain@1@I@Z 00451f7d f i worldio.obj
 0001:00051018       ??0chain@?$hashset@U?$hashtableentry@HU?$vector@Uivec@@@@@@@@QAE@XZ 00452018 f i worldio.obj
 0001:00051047       ??$getlil@M@stream@@QAEMXZ 00452047 f i worldio.obj
 0001:00051067       ?removeunordered@?$vector@Uinterest@ai@@@@QAE?AUinterest@ai@@H@Z 00452067 f i ai.obj
 0001:000510a3       ?add@?$vector@Uinterest@ai@@@@QAEAAUinterest@ai@@XZ 004520a3 f i ai.obj
 0001:000510dd       ?inrange@?$vector@Uwaypoint@ai@@@@QBE_NH@Z 004520dd f i ai.obj
 0001:000510f6       ?add@avoidset@ai@@QAEXPAXM@Z 004520f6 f i ai.obj
 0001:00051138       ?add@avoidset@ai@@QAEXAAU12@@Z 00452138 f i ai.obj
 0001:000511f2       ?addprevnode@aiinfo@ai@@QAEXH@Z 004521f2 f i ai.obj
 0001:00051215       ?canpickup@fpsstate@@QAE_NH@Z 00452215 f i ai.obj
 0001:000513a5       ?switchstate@aiinfo@ai@@QAEAAUaistate@2@AAU32@HHH@Z 004523a5 f i ai.obj
 0001:000513e5       ?find@avoidset@ai@@QBE_NHPAUfpsent@@@Z 004523e5 f i ai.obj
 0001:0005144f       ?hasprevnode@aiinfo@ai@@QBE_NH@Z 0045244f f i ai.obj
 0001:0005146e       ?clearsetup@aiinfo@ai@@QAEXXZ 0045246e f i ai.obj
 0001:000514e7       ?addstate@aiinfo@ai@@QAEAAUaistate@2@HHH@Z 004524e7 f i ai.obj
 0001:00051546       ?wipe@aiinfo@ai@@QAEXXZ    00452546 f i ai.obj
 0001:00051579       ?reset@aiinfo@ai@@QAEX_N@Z 00452579 f i ai.obj
 0001:000515c7       ??0entitylight@@QAE@XZ     004525c7 f i entities.obj
 0001:000515f1       ?pickup@fpsstate@@QAEXH@Z  004525f1 f i entities.obj
 0001:00051881       ?removeobj@?$vector@PAUfpsent@@@@QAEXABQAUfpsent@@@Z 00452881 f i fps.obj
 0001:000518ce       ?buttonf@g3d_gui@@QAAHPBDH0ZZ 004528ce f i fps.obj
 0001:0005190d       ??1fpsent@@QAE@XZ          0045290d f i fps.obj
 0001:000519c0       ??0animinterpinfo@@QAE@XZ  004529c0 f i fps.obj
 0001:000519f7       ??0dynent@@QAE@XZ          004529f7 f i fps.obj
 0001:00051a5e       ??1dynent@@QAE@XZ          00452a5e f i fps.obj
 0001:00051a6c       ??0fpsent@@QAE@XZ          00452a6c f i fps.obj
 0001:00051b7a       ?spawnstate@fpsstate@@QAEXH@Z 00452b7a f i fps.obj
 0001:00051dea       ?respawn@fpsstate@@QAEXXZ  00452dea f i fps.obj
 0001:00051ec0       ?stopattacksound@fpsent@@QAEXXZ 00452ec0 f i fps.obj
 0001:00051eee       ?respawn@fpsent@@QAEXXZ    00452eee f i fps.obj
 0001:00051f7b       ??0monster@game@@QAE@HHHHHH@Z 00452f7b f i monster.obj
 0001:00052147       ?transition@monster@game@@QAEXHHHH@Z 00453147 f i monster.obj
 0001:000521aa       ?monsteraction@monster@game@@QAEXH@Z 004531aa f i monster.obj
 0001:000527d1       ?monsterpain@monster@game@@QAEXHPAUfpsent@@@Z 004537d1 f i monster.obj
 0001:00052958       ?add@?$vector@PAUmonster@game@@@@QAEAAPAUmonster@game@@ABQAU23@@Z 00453958 f i monster.obj
 0001:0005299c       ?growbuf@?$vector@PAUmonster@game@@@@QAEXH@Z 0045399c f i monster.obj
 0001:00052a14       ??0movable@game@@QAE@ABUentity@@@Z 00453a14 f i movable.obj
 0001:00052c19       ?explode@movable@game@@QAEXPAUdynent@@@Z 00453c19 f i movable.obj
 0001:00052c41       ?deletecontents@?$vector@PAUmovable@game@@@@QAEXXZ 00453c41 f i movable.obj
 0001:00052ca5       ?growbuf@?$vector@PAUmovable@game@@@@QAEXH@Z 00453ca5 f i movable.obj
 0001:00052d1d       ?show@scoreboardgui@game@@QAEX_N@Z 00453d1d f i scoreboard.obj
 0001:00052d5f       ?gui@scoreboardgui@game@@UAEXAAUg3d_gui@@_N@Z 00453d5f f i scoreboard.obj
 0001:00052d90       ??_Escoreboardgui@game@@UAEPAXI@Z 00453d90 f i * CIL library *:* CIL module *
 0001:00052d90       ??_Gscoreboardgui@game@@UAEPAXI@Z 00453d90 f i scoreboard.obj
 0001:00052dda       ?add@?$vector@Uteamscore@@@@QAEAAUteamscore@@ABU2@@Z 00453dda f i scoreboard.obj
 0001:00052e15       ?growbuf@?$vector@PAUscoregroup@game@@@@QAEXH@Z 00453e15 f i scoreboard.obj
 0001:00052e8d       ?textf@g3d_gui@@QAAHPBDH0ZZ 00453e8d f i scoreboard.obj
 0001:00052ecc       ?titlef@g3d_gui@@QAAHPBDH0ZZ 00453ecc f i scoreboard.obj
 0001:00052f0b       ?compare@teamscore@@SAHPBU1@0@Z 00453f0b f i scoreboard.obj
 0001:00052f31       ?upheap@?$vector@PAUwaypoint@ai@@@@QAEHH@Z 00453f31 f i waypoint.obj
 0001:00052f97       ?add@?$vector@PAUwaypoint@ai@@@@QAEAAPAUwaypoint@ai@@ABQAU23@@Z 00453f97 f i waypoint.obj
 0001:00052fdb       ?add@?$vector@PAUwpcachenode@ai@@@@QAEAAPAUwpcachenode@ai@@ABQAU23@@Z 00453fdb f i waypoint.obj
 0001:0005301f       ?add@?$vector@Uwaypoint@ai@@@@QAEAAUwaypoint@ai@@ABU23@@Z 0045401f f i waypoint.obj
 0001:00053068       ?downheap@?$vector@PAUwaypoint@ai@@@@QAEHH@Z 00454068 f i waypoint.obj
 0001:00053140       ?growbuf@?$vector@PAUwaypoint@ai@@@@QAEXH@Z 00454140 f i waypoint.obj
 0001:000531b8       ?growbuf@?$vector@PAUwpcachenode@ai@@@@QAEXH@Z 004541b8 f i waypoint.obj
 0001:00053230       ?growbuf@?$vector@Uwpcachenode@ai@@@@QAEXH@Z 00454230 f i waypoint.obj
 0001:000532a6       ?growbuf@?$vector@Uwaypoint@ai@@@@QAEXH@Z 004542a6 f i waypoint.obj
 0001:0005331c       ??0waypoint@ai@@QAE@ABUvec@@H@Z 0045431c f i waypoint.obj
 0001:0005334e       ?add@avoidset@ai@@QAEXPAXMH@Z 0045434e f i waypoint.obj
 0001:00053388       ??1bouncer@game@@QAE@XZ    00454388 f i weapon.obj
 0001:000533c9       ??_Gbouncer@game@@QAEPAXI@Z 004543c9 f i weapon.obj
 0001:000533e4       ??1projectile@game@@QAE@XZ 004543e4 f i weapon.obj
 0001:0005341f       ?remove@?$vector@Uprojectile@game@@@@QAE?AUprojectile@game@@H@Z 0045441f f i weapon.obj
 0001:00053499       ?shrink@?$vector@Uprojectile@game@@@@QAEXH@Z 00454499 f i weapon.obj
 0001:000534c4       ?remove@?$vector@PAUbouncer@game@@@@QAEPAUbouncer@game@@H@Z 004544c4 f i weapon.obj
 0001:00053503       ?growbuf@?$vector@Uprojectile@game@@@@QAEXH@Z 00454503 f i weapon.obj
 0001:00053579       ?growbuf@?$vector@PAUbouncer@game@@@@QAEXH@Z 00454579 f i weapon.obj
 0001:000535f1       ?growbuf@?$vector@Uhitmsg@game@@@@QAEXH@Z 004545f1 f i weapon.obj
 0001:00053667       ?stopidlesound@fpsent@@QAEXXZ 00454667 f i weapon.obj
 0001:00053692       ?invert@gfield@@QAE_NABU1@@Z 00454692 f i crypto.obj
 0001:000538bc       ?sqrt@gfield@@QAE_NABU1@@Z 004548bc f i crypto.obj
 0001:00053998       ?mul2@ecjacobian@@QAEXXZ   00454998 f i crypto.obj
 0001:00053b05       ?add@ecjacobian@@QAEXABU1@@Z 00454b05 f i crypto.obj
 0001:00053e1d       ?normalize@ecjacobian@@QAEXXZ 00454e1d f i crypto.obj
 0001:00053ea9       ?calcy@ecjacobian@@QAE_N_N@Z 00454ea9 f i crypto.obj
 0001:00053f30       ?print@ecjacobian@@QAEXAAU?$vector@D@@@Z 00454f30 f i crypto.obj
 0001:00053f69       ?parse@ecjacobian@@QAEXPBD@Z 00454f69 f i crypto.obj
 0001:00053fbf       ?shrink@?$bigint@$0N@@@QAEXXZ 00454fbf f i crypto.obj
 0001:00053fd5       ?hasbit@?$bigint@$0N@@@QBE_NH@Z 00454fd5 f i crypto.obj
 0001:0005400e       ?printdigits@?$bigint@$0N@@@QBEXAAU?$vector@D@@@Z 0045500e f i crypto.obj
 0001:00054067       ?parsedigits@?$bigint@$0N@@@SAHPAGHPBD@Z 00455067 f i crypto.obj
 0001:0005410f       ??$square@$0N@@gfield@@QAEAAU0@ABU?$bigint@$0N@@@@Z 0045510f f i crypto.obj
 0001:00054138       ??$?M$0N@@?$bigint@$0N@@@QBE_NABU0@@Z 00455138 f i crypto.obj
 0001:00054176       ??$sub@$0N@$00@?$bigint@$0N@@@QAEAAU0@ABU0@ABU?$bigint@$00@@@Z 00455176 f i crypto.obj
 0001:00054176       ??$sub@$0N@$0N@@?$bigint@$0N@@@QAEAAU0@ABU0@0@Z 00455176 f i crypto.obj
 0001:00054215       ??$legendre@$0N@@gfield@@SAHABU?$bigint@$0N@@@@Z 00455215 f i crypto.obj
 0001:000542dc       ??$pow@$0N@$0N@@gfield@@QAEAAU0@ABU?$bigint@$0N@@@0@Z 004552dc f i crypto.obj
 0001:00054385       ??$sub@$0N@$0N@@gfield@@QAEAAU0@ABU?$bigint@$0N@@@0@Z 00455385 f i crypto.obj
 0001:000543ca       ??$mul@$0N@@gfield@@QAEAAU0@ABU?$bigint@$0N@@@@Z 004553ca f i crypto.obj
 0001:000543f1       ??$add@$0N@$0N@@gfield@@QAEAAU0@ABU?$bigint@$0N@@@0@Z 004553f1 f i crypto.obj
 0001:00054423       ??$mul@$0M@@ecjacobian@@QAEXU?$bigint@$0M@@@@Z 00455423 f i crypto.obj
 0001:000544d0       ??$mul@$0N@@ecjacobian@@QAEXU?$bigint@$0N@@@@Z 004554d0 f i crypto.obj
 0001:00054536       ??$rshift@$0N@@?$bigint@$0N@@@QAEAAU0@ABU0@H@Z 00455536 f i crypto.obj
 0001:00054628       ?numbits@?$bigint@$0N@@@QBEHXZ 00455628 f i crypto.obj
 0001:00054663       ??$add@$0N@$00@?$bigint@$0N@@@QAEAAU0@ABU0@ABU?$bigint@$00@@@Z 00455663 f i crypto.obj
 0001:00054663       ??$add@$0N@$0N@@?$bigint@$0N@@@QAEAAU0@ABU0@0@Z 00455663 f i crypto.obj
 0001:00054720       ??$mul@$0N@$0N@@?$bigint@$0BK@@@QAEAAU0@ABU?$bigint@$0N@@@0@Z 00455720 f i crypto.obj
 0001:00054819       ??$reduce@$0BK@@gfield@@QAEXABU?$bigint@$0BK@@@@Z 00455819 f i crypto.obj
 0001:00054a0f       ??1filestream@@UAE@XZ      00455a0f f i stream.obj
 0001:00054a54       ?close@filestream@@UAEXXZ  00455a54 f i stream.obj
 0001:00054a6c       ?end@filestream@@UAE_NXZ   00455a6c f i stream.obj
 0001:00054a7b       ?tell@filestream@@UAEJXZ   00455a7b f i stream.obj
 0001:00054a85       ?seek@filestream@@UAE_NJH@Z 00455a85 f i stream.obj
 0001:00054aa0       ?read@filestream@@UAEHPAXH@Z 00455aa0 f i stream.obj
 0001:00054ab8       ?write@filestream@@UAEHPBXH@Z 00455ab8 f i stream.obj
 0001:00054ad0       ?getchar@filestream@@UAEHXZ 00455ad0 f i stream.obj
 0001:00054ada       ?putchar@filestream@@UAE_NH@Z 00455ada f i stream.obj
 0001:00054af1       ?getline@filestream@@UAE_NPADH@Z 00455af1 f i stream.obj
 0001:00054b0c       ?putstring@filestream@@UAE_NPBD@Z 00455b0c f i stream.obj
 0001:00054b23       ?printf@filestream@@UAAHPBDZZ 00455b23 f i stream.obj
 0001:00054b48       ??_Efilestream@@UAEPAXI@Z  00455b48 f i * CIL library *:* CIL module *
 0001:00054b48       ??_Gfilestream@@UAEPAXI@Z  00455b48 f i stream.obj
 0001:00054b67       ??1gzstream@@UAE@XZ        00455b67 f i stream.obj
 0001:00054bac       ?readbuf@gzstream@@QAEXH@Z 00455bac f i stream.obj
 0001:00054bf0       ?readbyte@gzstream@@QAEHH@Z 00455bf0 f i stream.obj
 0001:00054c1b       ?skipbytes@gzstream@@QAEXH@Z 00455c1b f i stream.obj
 0001:00054c51       ?checkheader@gzstream@@QAE_NXZ 00455c51 f i stream.obj
 0001:00054d38       ?open@gzstream@@QAE_NPAUstream@@PBD_NH@Z 00455d38 f i stream.obj
 0001:00054e51       ?getcrc@gzstream@@UAEIXZ   00455e51 f i stream.obj
 0001:00054e55       ?finishreading@gzstream@@QAEXXZ 00455e55 f i stream.obj
 0001:00054edb       ?stopreading@gzstream@@QAEXXZ 00455edb f i stream.obj
 0001:00054ef5       ?close@gzstream@@UAEXXZ    00455ef5 f i stream.obj
 0001:00054fc6       ?end@gzstream@@UAE_NXZ     00455fc6 f i stream.obj
 0001:00054fd8       ?tell@gzstream@@UAEJXZ     00455fd8 f i stream.obj
 0001:00054ff0       ?seek@gzstream@@UAE_NJH@Z  00455ff0 f i stream.obj
 0001:000550cc       ?read@gzstream@@UAEHPAXH@Z 004560cc f i stream.obj
 0001:00055182       ?flush@gzstream@@QAE_NXZ   00456182 f i stream.obj
 0001:000551c2       ?write@gzstream@@UAEHPBXH@Z 004561c2 f i stream.obj
 0001:00055246       ??_Egzstream@@UAEPAXI@Z    00456246 f i * CIL library *:* CIL module *
 0001:00055246       ??_Ggzstream@@UAEPAXI@Z    00456246 f i stream.obj
 0001:00055265       ??_Estream@@UAEPAXI@Z      00456265 f i * CIL library *:* CIL module *
 0001:00055265       ??_Gstream@@UAEPAXI@Z      00456265 f i stream.obj
 0001:00055285       ?getchar@stream@@UAEHXZ    00456285 f i stream.obj
 0001:000552a5       ?putstring@stream@@UAE_NPBD@Z 004562a5 f i stream.obj
 0001:000552cb       ?putchar@stream@@UAE_NH@Z  004562cb f i stream.obj
 0001:000552ea       ?putline@stream@@UAE_NPBD@Z 004562ea f i stream.obj
 0001:00055311       ?printf@stream@@UAAHPBDZZ  00456311 f i stream.obj
 0001:00055311       ?tell@stream@@UAEJXZ       00456311 f i stream.obj
 0001:00055315       ??1stream@@UAE@XZ          00456315 f i stream.obj
 0001:0005531c       ?aicheck@captureclientmode@game@@UAE_NPAUfpsent@@AAUaistate@ai@@@Z 0045631c f i client1.obj
 0001:0005531c       ?aicheck@clientmode@game@@UAE_NPAUfpsent@@AAUaistate@ai@@@Z 0045631c f i client1.obj
 0001:0005531c       ?aidefend@clientmode@game@@UAE_NPAUfpsent@@AAUaistate@ai@@@Z 0045631c f i client1.obj
 0001:0005531c       ?aipursue@clientmode@game@@UAE_NPAUfpsent@@AAUaistate@ai@@@Z 0045631c f i client1.obj
 0001:0005531c       ?extinfoteam@servmode@server@@UAE_NPBDAAU?$databuf@E@@@Z 0045631c f i server1.obj
 0001:0005531c       ?seek@stream@@UAE_NJH@Z    0045631c f i stream.obj
 0001:00055321       ??0ziparchive@@QAE@XZ      00456321 f i zip.obj
 0001:000553b3       ??1ziparchive@@QAE@XZ      004563b3 f i zip.obj
 0001:00055419       ??1?$hashtable@PBDUzipfile@@@@QAE@XZ 00456419 f i zip.obj
 0001:0005544a       ??1zipstream@@UAE@XZ       0045644a f i zip.obj
 0001:0005548f       ?readbuf@zipstream@@QAEXI@Z 0045648f f i zip.obj
 0001:0005551c       ?open@zipstream@@QAE_NPAUziparchive@@PAUzipfile@@@Z 0045651c f i zip.obj
 0001:000555b3       ?stopreading@zipstream@@QAEXXZ 004565b3 f i zip.obj
 0001:00055612       ?close@zipstream@@UAEXXZ   00456612 f i zip.obj
 0001:00055644       ?size@zipstream@@UAEJXZ    00456644 f i zip.obj
 0001:0005564b       ?end@zipstream@@UAE_NXZ    0045664b f i zip.obj
 0001:0005565a       ?tell@zipstream@@UAEJXZ    0045665a f i zip.obj
 0001:00055676       ?seek@zipstream@@UAE_NJH@Z 00456676 f i zip.obj
 0001:000557dc       ?read@zipstream@@UAEHPAXH@Z 004567dc f i zip.obj
 0001:000558c6       ??_Ezipstream@@UAEPAXI@Z   004568c6 f i * CIL library *:* CIL module *
 0001:000558c6       ??_Gzipstream@@UAEPAXI@Z   004568c6 f i zip.obj
 0001:000558e5       ?removeobj@?$vector@PAUziparchive@@@@QAEXABQAUziparchive@@@Z 004568e5 f i zip.obj
 0001:00055932       ??1?$vector@Uzipfile@@@@QAE@XZ 00456932 f i zip.obj
 0001:0005596d       ?access@?$hashtable@PBDUzipfile@@@@QAEPAUzipfile@@ABQBD@Z 0045696d f i zip.obj
 0001:000559ab       ??1?$hashset@U?$hashtableentry@PBDUzipfile@@@@@@QAE@XZ 004569ab f i zip.obj
 0001:000559f1       ?growbuf@?$vector@PAUziparchive@@@@QAEXH@Z 004569f1 f i zip.obj
 0001:00055a69       ??1chainchunk@?$hashset@U?$hashtableentry@PBDUzipfile@@@@@@QAE@XZ 00456a69 f i zip.obj
 0001:00055aa4       ?insert@?$hashset@U?$hashtableentry@PBDUzipfile@@@@@@QAEPAUchain@1@I@Z 00456aa4 f i zip.obj
 0001:00055b3f       ??0chain@?$hashset@U?$hashtableentry@PBDUzipfile@@@@@@QAE@XZ 00456b3f f i zip.obj
 0001:00055b75       _fprintf                   00456b75 f i SDL_win32_main.obj
 0001:00055b97       ?getteamscore@captureclientmode@game@@UAEHPBD@Z 00456b97 f i client1.obj
 0001:00055b97       ?getteamscore@captureservmode@server@@UAEHPBD@Z 00456b97 f i server1.obj
 0001:00055bd8       ?getteamscores@captureclientmode@game@@UAEXAAU?$vector@Uteamscore@@@@@Z 00456bd8 f i client1.obj
 0001:00055bd8       ?getteamscores@captureservmode@server@@UAEXAAU?$vector@Uteamscore@@@@@Z 00456bd8 f i server1.obj
 0001:00055c1b       ?findscore@captureclientmode@game@@QAEAAUscore@12@PBD@Z 00456c1b f i client1.obj
 0001:00055cb2       ?initbase@captureclientmode@game@@QAEXHHPBD0HH@Z 00456cb2 f i client1.obj
 0001:00055d28       ?disttoenemy@captureclientmode@game@@QAEMAAUbaseinfo@12@@Z 00456d28 f i client1.obj
 0001:00055dad       ?insidebase@captureclientmode@game@@QAE_NABUbaseinfo@12@ABUvec@@@Z 00456dad f i client1.obj
 0001:00055dad       ?insidebase@captureservmode@server@@QAE_NABUbaseinfo@12@ABUvec@@@Z 00456dad f i server1.obj
 0001:00055e1a       ??0captureclientmode@game@@QAE@XZ 00456e1a f i client1.obj
 0001:00055ed7       ?run@_ccmd_repammo@?1???0captureclientmode@game@@QAE@XZ@SAXPAU23@@Z 00456ed7 f i client1.obj
 0001:00055ee0       ?replenishammo@captureclientmode@game@@QAEXXZ 00456ee0 f i client1.obj
 0001:00055fe0       ?receiveammo@captureclientmode@game@@QAEXPAUfpsent@@H@Z 00456fe0 f i client1.obj
 0001:00056085       ?checkitems@captureclientmode@game@@UAEXPAUfpsent@@@Z 00457085 f i client1.obj
 0001:00056234       ?rendertether@captureclientmode@game@@QAEXPAUfpsent@@@Z 00457234 f i client1.obj
 0001:0005658a       ?preload@captureclientmode@game@@UAEXXZ 0045758a f i client1.obj
 0001:000565a4       ?rendergame@captureclientmode@game@@UAEXXZ 004575a4 f i client1.obj
 0001:00056bf1       ?drawblips@captureclientmode@game@@QAEXPAUfpsent@@MHHH_N@Z 00457bf1 f i client1.obj
 0001:0005703c       ?respawnwait@captureclientmode@game@@UAEHPAUfpsent@@@Z 0045803c f i client1.obj
 0001:00057088       ?clipconsole@captureclientmode@game@@UAEHHH@Z 00458088 f i client1.obj
 0001:00057088       ?clipconsole@ctfclientmode@game@@UAEHHH@Z 00458088 f i client1.obj
 0001:00057096       ?drawminimap@captureclientmode@game@@QAEXPAUfpsent@@MMM@Z 00458096 f i client1.obj
 0001:00057096       ?drawminimap@ctfclientmode@game@@QAEXPAUfpsent@@MMM@Z 00458096 f i client1.obj
 0001:00057256       ?drawradar@captureclientmode@game@@QAEXMMM@Z 00458256 f i client1.obj
 0001:00057256       ?drawradar@ctfclientmode@game@@QAEXMMM@Z 00458256 f i client1.obj
 0001:00057343       ?drawhud@captureclientmode@game@@UAEXPAUfpsent@@HH@Z 00458343 f i client1.obj
 0001:000576d6       ?setup@captureclientmode@game@@UAEXXZ 004586d6 f i client1.obj
 0001:00057851       ?senditems@captureclientmode@game@@UAEXAAUpacketbuf@@@Z 00458851 f i client1.obj
 0001:000578ef       ?updatebase@captureclientmode@game@@QAEXHPBD0HH@Z 004588ef f i client1.obj
 0001:00057b92       ?setscore@captureclientmode@game@@QAEXHPBDH@Z 00458b92 f i client1.obj
 0001:00057caa       ?closesttoenemy@captureclientmode@game@@QAEHPBD_N1@Z 00458caa f i client1.obj
 0001:00057da0       ?pickteamspawn@captureclientmode@game@@QAEHPBD@Z 00458da0 f i client1.obj
 0001:00057eb9       ?pickspawn@captureclientmode@game@@UAEXPAUfpsent@@@Z 00458eb9 f i client1.obj
 0001:00057eda       ?prefixnextmap@captureclientmode@game@@UAEPBDXZ 00458eda f i client1.obj
 0001:00057ee0       ?aifind@captureclientmode@game@@UAEXPAUfpsent@@AAUaistate@ai@@AAU?$vector@Uinterest@ai@@@@@Z 00458ee0 f i client1.obj
 0001:00058287       ?aidefend@captureclientmode@game@@UAE_NPAUfpsent@@AAUaistate@ai@@@Z 00459287 f i client1.obj
 0001:00058578       ?aipursue@captureclientmode@game@@UAE_NPAUfpsent@@AAUaistate@ai@@@Z 00459578 f i client1.obj
 0001:0005858f       ??_Ecaptureclientmode@game@@UAEPAXI@Z 0045958f f i * CIL library *:* CIL module *
 0001:0005858f       ??_Gcaptureclientmode@game@@UAEPAXI@Z 0045958f f i client1.obj
 0001:000585ae       ??1captureclientmode@game@@UAE@XZ 004595ae f i client1.obj
 0001:000585ae       ??1ctfclientmode@game@@UAE@XZ 004595ae f i client1.obj
 0001:000585ff       ??_E_ccmd_dropflag@?1???0ctfclientmode@game@@QAE@XZ@UAEPAXI@Z 004595ff f i * CIL library *:* CIL module *
 0001:000585ff       ??_E_ccmd_repammo@?1???0captureclientmode@game@@QAE@XZ@UAEPAXI@Z 004595ff f i * CIL library *:* CIL module *
 0001:000585ff       ??_G_ccmd_dropflag@?1???0ctfclientmode@game@@QAE@XZ@UAEPAXI@Z 004595ff f i client1.obj
 0001:000585ff       ??_G_ccmd_repammo@?1???0captureclientmode@game@@QAE@XZ@UAEPAXI@Z 004595ff f i client1.obj
 0001:00058649       ?reset@flag@ctfclientmode@game@@QAEXXZ 00459649 f i client1.obj
 0001:000586e4       ?pos@flag@ctfclientmode@game@@QAEABUvec@@XZ 004596e4 f i client1.obj
 0001:00058702       ?addflag@ctfclientmode@game@@QAE_NHABUvec@@HH@Z 00459702 f i client1.obj
 0001:00058777       ?addholdspawn@ctfclientmode@game@@QAE_NABUvec@@@Z 00459777 f i client1.obj
 0001:000587c3       ?ownflag@ctfclientmode@game@@QAEXHPAUfpsent@@H@Z 004597c3 f i client1.obj
 0001:0005881c       ?dropflag@ctfclientmode@game@@QAEXHABUvec@@MH@Z 0045981c f i client1.obj
 0001:0005887b       ?returnflag@ctfclientmode@game@@QAEXHH@Z 0045987b f i client1.obj
 0001:000588c8       ?getteamscore@ctfclientmode@game@@UAEHPBD@Z 004598c8 f i client1.obj
 0001:000588c8       ?getteamscore@ctfservmode@server@@UAEHPBD@Z 004598c8 f i server1.obj
 0001:0005890d       ?getteamscores@ctfclientmode@game@@UAEXAAU?$vector@Uteamscore@@@@@Z 0045990d f i client1.obj
 0001:0005890d       ?getteamscores@ctfservmode@server@@UAEXAAU?$vector@Uteamscore@@@@@Z 0045990d f i server1.obj
 0001:00058957       ?insidebase@ctfclientmode@game@@QAE_NABUflag@12@ABUvec@@@Z 00459957 f i client1.obj
 0001:000589c5       ??0ctfclientmode@game@@QAE@XZ 004599c5 f i client1.obj
 0001:00058a7d       ?run@_ccmd_dropflag@?1???0ctfclientmode@game@@QAE@XZ@SAXPAU23@@Z 00459a7d f i client1.obj
 0001:00058ad3       ?preload@ctfclientmode@game@@UAEXXZ 00459ad3 f i client1.obj
 0001:00058b10       ?drawblip@ctfclientmode@game@@QAEXPAUfpsent@@MMMABUvec@@_N@Z 00459b10 f i client1.obj
 0001:00058cd2       ?drawblip@ctfclientmode@game@@QAEXPAUfpsent@@MMMH_N@Z 00459cd2 f i client1.obj
 0001:00058e62       ?drawhud@ctfclientmode@game@@UAEXPAUfpsent@@HH@Z 00459e62 f i client1.obj
 0001:0005935f       ?removeplayer@ctfclientmode@game@@UAEXPAUfpsent@@@Z 0045a35f f i client1.obj
 0001:000593a5       ?interpflagpos@ctfclientmode@game@@QAE?AUvec@@AAUflag@12@AAM@Z 0045a3a5 f i client1.obj
 0001:00059574       ?rendergame@ctfclientmode@game@@UAEXXZ 0045a574 f i client1.obj
 0001:00059e82       ?setup@ctfclientmode@game@@UAEXXZ 0045ae82 f i client1.obj
 0001:0005a056       ?senditems@ctfclientmode@game@@UAEXAAUpacketbuf@@@Z 0045b056 f i client1.obj
 0001:0005a16d       ?parseflags@ctfclientmode@game@@QAEXAAU?$databuf@E@@_N@Z 0045b16d f i client1.obj
 0001:0005a33f       ?dropflag@ctfclientmode@game@@QAEXPAUfpsent@@HHABUvec@@@Z 0045b33f f i client1.obj
 0001:0005a4d6       ?flagexplosion@ctfclientmode@game@@QAEXHHABUvec@@@Z 0045b4d6 f i client1.obj
 0001:0005a5fb       ?flageffect@ctfclientmode@game@@QAEXHHABUvec@@0@Z 0045b5fb f i client1.obj
 0001:0005a7d8       ?returnflag@ctfclientmode@game@@QAEXPAUfpsent@@HH@Z 0045b7d8 f i client1.obj
 0001:0005aa40       ?spawnflag@ctfclientmode@game@@QAEXAAUflag@12@@Z 0045ba40 f i client1.obj
 0001:0005aa76       ?resetflag@ctfclientmode@game@@QAEXHHHHH@Z 0045ba76 f i client1.obj
 0001:0005acee       ?scoreflag@ctfclientmode@game@@QAEXPAUfpsent@@HHHHHHHH@Z 0045bcee f i client1.obj
 0001:0005b113       ?takeflag@ctfclientmode@game@@QAEXPAUfpsent@@HH@Z 0045c113 f i client1.obj
 0001:0005b3cc       ?checkitems@ctfclientmode@game@@UAEXPAUfpsent@@@Z 0045c3cc f i client1.obj
 0001:0005b56b       ?respawned@ctfclientmode@game@@UAEXPAUfpsent@@@Z 0045c56b f i client1.obj
 0001:0005b682       ?respawnwait@ctfclientmode@game@@UAEHPAUfpsent@@@Z 0045c682 f i client1.obj
 0001:0005b6e2       ?pickholdspawn@ctfclientmode@game@@QAE_NPAUfpsent@@@Z 0045c6e2 f i client1.obj
 0001:0005b8b9       ?pickspawn@ctfclientmode@game@@UAEXPAUfpsent@@@Z 0045c8b9 f i client1.obj
 0001:0005b950       ?prefixnextmap@ctfclientmode@game@@UAEPBDXZ 0045c950 f i client1.obj
 0001:0005b97d       ?aihomerun@ctfclientmode@game@@QAE_NPAUfpsent@@AAUaistate@ai@@@Z 0045c97d f i client1.obj
 0001:0005bcb1       ?aicheck@ctfclientmode@game@@UAE_NPAUfpsent@@AAUaistate@ai@@@Z 0045ccb1 f i client1.obj
 0001:0005be6b       ?aifind@ctfclientmode@game@@UAEXPAUfpsent@@AAUaistate@ai@@AAU?$vector@Uinterest@ai@@@@@Z 0045ce6b f i client1.obj
 0001:0005c3fd       ?aidefend@ctfclientmode@game@@UAE_NPAUfpsent@@AAUaistate@ai@@@Z 0045d3fd f i client1.obj
 0001:0005c83a       ?aipursue@ctfclientmode@game@@UAE_NPAUfpsent@@AAUaistate@ai@@@Z 0045d83a f i client1.obj
 0001:0005c942       ??_Ectfclientmode@game@@UAEPAXI@Z 0045d942 f i * CIL library *:* CIL module *
 0001:0005c942       ??_Gctfclientmode@game@@UAEPAXI@Z 0045d942 f i client1.obj
 0001:0005c961       ?growbuf@?$vector@PAUauthkey@game@@@@QAEXH@Z 0045d961 f i client1.obj
 0001:0005c9d9       ?growbuf@?$vector@Uflag@ctfclientmode@game@@@@QAEXH@Z 0045d9d9 f i client1.obj
 0001:0005ca38       ?growbuf@?$vector@Ubaseinfo@captureclientmode@game@@@@QAEXH@Z 0045da38 f i client1.obj
 0001:0005ca9d       ??_Eclientmode@game@@UAEPAXI@Z 0045da9d f i * CIL library *:* CIL module *
 0001:0005ca9d       ??_Gclientmode@game@@UAEPAXI@Z 0045da9d f i client1.obj
 0001:0005cabd       ?pickspawn@clientmode@game@@UAEXPAUfpsent@@@Z 0045dabd f i client1.obj
 0001:0005cacf       ?prefixnextmap@clientmode@game@@UAEPBDXZ 0045dacf f i client1.obj
 0001:0005cad5       ??1clientmode@game@@UAE@XZ 0045dad5 f i client1.obj
 0001:0005cadc       ??1gameevent@server@@UAE@XZ 0045dadc f i server1.obj
 0001:0005cae3       ??_Egameevent@server@@UAEPAXI@Z 0045dae3 f i * CIL library *:* CIL module *
 0001:0005cae3       ??_Ggameevent@server@@UAEPAXI@Z 0045dae3 f i server1.obj
 0001:0005cb03       ?reset@gamestate@server@@QAEXXZ 0045db03 f i server1.obj
 0001:0005cb83       ?respawn@gamestate@server@@QAEXXZ 0045db83 f i server1.obj
 0001:0005cbce       ?save@savedscore@server@@QAEXAAUgamestate@2@@Z 0045dbce f i server1.obj
 0001:0005cc3e       ?restore@savedscore@server@@QAEXAAUgamestate@2@@Z 0045dc3e f i server1.obj
 0001:0005ccbd       ??0clientinfo@server@@QAE@XZ 0045dcbd f i server1.obj
 0001:0005cde2       ??1clientinfo@server@@QAE@XZ 0045dde2 f i server1.obj
 0001:0005ce65       ?addevent@clientinfo@server@@QAEXPAUgameevent@2@@Z 0045de65 f i server1.obj
 0001:0005ceb2       ?calcpushrange@clientinfo@server@@QAEHXZ 0045deb2 f i server1.obj
 0001:0005ced9       ?scheduleexceeded@clientinfo@server@@QAEXXZ 0045ded9 f i server1.obj
 0001:0005cf07       ?setexceeded@clientinfo@server@@QAEXXZ 0045df07 f i server1.obj
 0001:0005cf4b       ?setpushed@clientinfo@server@@QAEXXZ 0045df4b f i server1.obj
 0001:0005cf8d       ?mapchange@clientinfo@server@@QAEXXZ 0045df8d f i server1.obj
 0001:0005cfe0       ?reassign@clientinfo@server@@QAEXXZ 0045dfe0 f i server1.obj
 0001:0005d039       ?cleanclipboard@clientinfo@server@@QAEX_N@Z 0045e039 f i server1.obj
 0001:0005d070       ?geteventmillis@clientinfo@server@@QAEHHH@Z 0045e070 f i server1.obj
 0001:0005d0c0       ??1servmode@server@@UAE@XZ 0045e0c0 f i server1.obj
 0001:0005d0c7       ?canspawn@servmode@server@@UAE_NPAUclientinfo@2@_N@Z 0045e0c7 f i server1.obj
 0001:0005d0cc       ?fragvalue@servmode@server@@UAEHPAUclientinfo@2@0@Z 0045e0cc f i server1.obj
 0001:0005d11e       ?canchangeteam@servmode@server@@UAE_NPAUclientinfo@2@PBD1@Z 0045e11e f i server1.obj
 0001:0005d123       ??_Eservmode@server@@UAEPAXI@Z 0045e123 f i * CIL library *:* CIL module *
 0001:0005d123       ??_Gservmode@server@@UAEPAXI@Z 0045e123 f i server1.obj
 0001:0005d143       ?enter@baseinfo@captureservmode@server@@QAE_NPBD@Z 0045e143 f i server1.obj
 0001:0005d1c2       ?leave@baseinfo@captureservmode@server@@QAE_NPBD@Z 0045e1c2 f i server1.obj
 0001:0005d21d       ?occupy@baseinfo@captureservmode@server@@QAEHPBDH@Z 0045e21d f i server1.obj
 0001:0005d2ec       ?findscore@captureservmode@server@@QAEAAUscore@12@PBD@Z 0045e2ec f i server1.obj
 0001:0005d378       ?addbase@captureservmode@server@@QAEXHABUvec@@@Z 0045e378 f i server1.obj
 0001:0005d4df       ?reset@captureservmode@server@@UAEX_N@Z 0045e4df f i server1.obj
 0001:0005d50d       ?stealbase@captureservmode@server@@QAEXHPBD@Z 0045e50d f i server1.obj
 0001:0005d595       ?replenishammo@captureservmode@server@@QAEXPAUclientinfo@2@@Z 0045e595 f i server1.obj
 0001:0005d6d2       ?movebases@captureservmode@server@@QAEXPBDABUvec@@_N12@Z 0045e6d2 f i server1.obj
 0001:0005d7c5       ?leavebases@captureservmode@server@@QAEXPBDABUvec@@@Z 0045e7c5 f i server1.obj
 0001:0005d7f7       ?enterbases@captureservmode@server@@QAEXPBDABUvec@@@Z 0045e7f7 f i server1.obj
 0001:0005d829       ?regenowners@captureservmode@server@@QAEXAAUbaseinfo@12@H@Z 0045e829 f i server1.obj
 0001:0005d9a4       ?update@captureservmode@server@@UAEXXZ 0045e9a4 f i server1.obj
 0001:0005db62       ?sendbaseinfo@captureservmode@server@@QAEXH@Z 0045eb62 f i server1.obj
 0001:0005dbb3       ?initclient@captureservmode@server@@UAEXPAUclientinfo@2@AAUpacketbuf@@_N@Z 0045ebb3 f i server1.obj
 0001:0005dca1       ?endcheck@captureservmode@server@@QAEXXZ 0045eca1 f i server1.obj
 0001:0005dd1c       ?entergame@captureservmode@server@@UAEXPAUclientinfo@2@@Z 0045ed1c f i server1.obj
 0001:0005dd4e       ?spawned@captureservmode@server@@UAEXPAUclientinfo@2@@Z 0045ed4e f i server1.obj
 0001:0005dd77       ?leavegame@captureservmode@server@@UAEXPAUclientinfo@2@_N@Z 0045ed77 f i server1.obj
 0001:0005dda9       ?died@captureservmode@server@@UAEXPAUclientinfo@2@0@Z 0045eda9 f i server1.obj
 0001:0005ddd2       ?moved@captureservmode@server@@UAEXPAUclientinfo@2@ABUvec@@_N12@Z 0045edd2 f i server1.obj
 0001:0005ddf9       ?changeteam@captureservmode@server@@UAEXPAUclientinfo@2@PBD1@Z 0045edf9 f i server1.obj
 0001:0005de31       ?parsebases@captureservmode@server@@QAEXAAU?$databuf@E@@_N@Z 0045ee31 f i server1.obj
 0001:0005df7b       ?extinfoteam@captureservmode@server@@UAE_NPBDAAU?$databuf@E@@@Z 0045ef7b f i server1.obj
 0001:0005e007       ??_Ecaptureservmode@server@@UAEPAXI@Z 0045f007 f i * CIL library *:* CIL module *
 0001:0005e007       ??_Gcaptureservmode@server@@UAEPAXI@Z 0045f007 f i server1.obj
 0001:0005e026       ??1captureservmode@server@@UAE@XZ 0045f026 f i server1.obj
 0001:0005e026       ??1ctfservmode@server@@UAE@XZ 0045f026 f i server1.obj
 0001:0005e077       ?reset@flag@ctfservmode@server@@QAEXXZ 0045f077 f i server1.obj
 0001:0005e0bb       ?addflag@ctfservmode@server@@QAE_NHABUvec@@HH@Z 0045f0bb f i server1.obj
 0001:0005e122       ?reset@ctfservmode@server@@UAEX_N@Z 0045f122 f i server1.obj
 0001:0005e154       ?dropflag@ctfservmode@server@@QAEXPAUclientinfo@2@@Z 0045f154 f i server1.obj
 0001:0005e35e       ?died@ctfservmode@server@@UAEXPAUclientinfo@2@0@Z 0045f35e f i server1.obj
 0001:0005e35e       ?leavegame@ctfservmode@server@@UAEXPAUclientinfo@2@_N@Z 0045f35e f i server1.obj
 0001:0005e395       ?canchangeteam@ctfservmode@server@@UAE_NPAUclientinfo@2@PBD1@Z 0045f395 f i server1.obj
 0001:0005e3ce       ?changeteam@ctfservmode@server@@UAEXPAUclientinfo@2@PBD1@Z 0045f3ce f i server1.obj
 0001:0005e3da       ?spawnflag@ctfservmode@server@@QAEXH@Z 0045f3da f i server1.obj
 0001:0005e416       ?scoreflag@ctfservmode@server@@QAEXPAUclientinfo@2@HH@Z 0045f416 f i server1.obj
 0001:0005e554       ?takeflag@ctfservmode@server@@QAEXPAUclientinfo@2@HH@Z 0045f554 f i server1.obj
 0001:0005e7e7       ?update@ctfservmode@server@@UAEXXZ 0045f7e7 f i server1.obj
 0001:0005ea1f       ?initclient@ctfservmode@server@@UAEXPAUclientinfo@2@AAUpacketbuf@@_N@Z 0045fa1f f i server1.obj
 0001:0005eb14       ?parseflags@ctfservmode@server@@QAEXAAU?$databuf@E@@_N@Z 0045fb14 f i server1.obj
 0001:0005ed0e       ??_Ectfservmode@server@@UAEPAXI@Z 0045fd0e f i * CIL library *:* CIL module *
 0001:0005ed0e       ??_Gctfservmode@server@@UAEPAXI@Z 0045fd0e f i server1.obj
 0001:0005ed2d       ?compare@crcinfo@server@@SAHPBU12@0@Z 0045fd2d f i server1.obj
 0001:0005ed4b       ??_Esuicideevent@server@@UAEPAXI@Z 0045fd4b f i * CIL library *:* CIL module *
 0001:0005ed4b       ??_Gsuicideevent@server@@UAEPAXI@Z 0045fd4b f i server1.obj
 0001:0005ed95       ??_Eshotevent@server@@UAEPAXI@Z 0045fd95 f i * CIL library *:* CIL module *
 0001:0005ed95       ??_Gshotevent@server@@UAEPAXI@Z 0045fd95 f i server1.obj
 0001:0005edeb       ??1timedevent@server@@UAE@XZ 0045fdeb f i server1.obj
 0001:0005ee1d       ??_Epickupevent@server@@UAEPAXI@Z 0045fe1d f i * CIL library *:* CIL module *
 0001:0005ee1d       ??_Etimedevent@server@@UAEPAXI@Z 0045fe1d f i * CIL library *:* CIL module *
 0001:0005ee1d       ??_Gpickupevent@server@@UAEPAXI@Z 0045fe1d f i server1.obj
 0001:0005ee1d       ??_Gtimedevent@server@@UAEPAXI@Z 0045fe1d f i server1.obj
 0001:0005ee67       ??_Eexplodeevent@server@@UAEPAXI@Z 0045fe67 f i * CIL library *:* CIL module *
 0001:0005ee67       ??_Gexplodeevent@server@@UAEPAXI@Z 0045fe67 f i server1.obj
 0001:0005eebd       ?add@?$vector@Ubaseinfo@captureservmode@server@@@@QAEAAUbaseinfo@captureservmode@server@@XZ 0045febd f i server1.obj
 0001:0005ef21       ?add@?$vector@Userver_entity@server@@@@QAEAAUserver_entity@server@@ABU23@@Z 0045ff21 f i server1.obj
 0001:0005ef68       ?remove@?$vector@Udemofile@server@@@@QAE?AUdemofile@server@@H@Z 0045ff68 f i server1.obj
 0001:0005efd0       ?removeobj@?$vector@I@@QAEXABI@Z 0045ffd0 f i server1.obj
 0001:0005f01d       ?deletecontents@?$vector@PAUgameevent@server@@@@QAEXXZ 0046001d f i server1.obj
 0001:0005f040       ?remove@?$projectilestate@$0BI@@server@@QAE_NH@Z 00460040 f i server1.obj
 0001:0005f06c       ?add@?$projectilestate@$0BI@@server@@QAEXH@Z 0046006c f i server1.obj
 0001:0005f086       ?growbuf@?$vector@Ugbaninfo@server@@@@QAEXH@Z 00460086 f i server1.obj
 0001:0005f0fe       ?growbuf@?$vector@Uflag@ctfservmode@server@@@@QAEXH@Z 004600fe f i server1.obj
 0001:0005f15d       ?growbuf@?$vector@Ubaseinfo@captureservmode@server@@@@QAEXH@Z 0046015d f i server1.obj
 0001:0005f1c2       ?growbuf@?$vector@Usavedscore@server@@@@QAEXH@Z 004601c2 f i server1.obj
 0001:0005f23e       ?growbuf@?$vector@Userver_entity@server@@@@QAEXH@Z 0046023e f i server1.obj
 0001:0005f2b4       ?growbuf@?$vector@Udemofile@server@@@@QAEXH@Z 004602b4 f i server1.obj
 0001:0005f330       ?growbuf@?$vector@PAUworldstate@server@@@@QAEXH@Z 00460330 f i server1.obj
 0001:0005f3a8       ?growbuf@?$vector@Uban@server@@@@QAEXH@Z 004603a8 f i server1.obj
 0001:0005f420       ?growbuf@?$vector@I@@QAEXH@Z 00460420 f i server1.obj
 0001:0005f498       ??$sendstate@Upacketbuf@@@server@@YAXAAUgamestate@0@AAUpacketbuf@@@Z 00460498 f i server1.obj
 0001:0005f4f8       ??$sendstate@U?$vector@E@@@server@@YAXAAUgamestate@0@AAU?$vector@E@@@Z 004604f8 f i server1.obj
 0001:0005f558       ___WSAFDIsSet@8            00460558 f   ws2_32:WS2_32.dll
 0001:0005f55e       _htons@4                   0046055e f   ws2_32:WS2_32.dll
 0001:0005f564       _htonl@4                   00460564 f   ws2_32:WS2_32.dll
 0001:0005f56a       _ntohl@4                   0046056a f   ws2_32:WS2_32.dll
 0001:0005f570       _ntohs@4                   00460570 f   ws2_32:WS2_32.dll
 0001:0005f576       _WSAStartup@8              00460576 f   ws2_32:WS2_32.dll
 0001:0005f57c       _WSACleanup@0              0046057c f   ws2_32:WS2_32.dll
 0001:0005f582       _gethostbyname@4           00460582 f   ws2_32:WS2_32.dll
 0001:0005f588       _inet_addr@4               00460588 f   ws2_32:WS2_32.dll
 0001:0005f58e       _inet_ntoa@4               0046058e f   ws2_32:WS2_32.dll
 0001:0005f594       _gethostbyaddr@12          00460594 f   ws2_32:WS2_32.dll
 0001:0005f59a       _bind@12                   0046059a f   ws2_32:WS2_32.dll
 0001:0005f5a0       _listen@8                  004605a0 f   ws2_32:WS2_32.dll
 0001:0005f5a6       _socket@12                 004605a6 f   ws2_32:WS2_32.dll
 0001:0005f5ac       _ioctlsocket@12            004605ac f   ws2_32:WS2_32.dll
 0001:0005f5b2       _setsockopt@20             004605b2 f   ws2_32:WS2_32.dll
 0001:0005f5b8       _connect@12                004605b8 f   ws2_32:WS2_32.dll
 0001:0005f5be       _accept@12                 004605be f   ws2_32:WS2_32.dll
 0001:0005f5c4       _closesocket@4             004605c4 f   ws2_32:WS2_32.dll
 0001:0005f5ca       _WSASendTo@36              004605ca f   ws2_32:WS2_32.dll
 0001:0005f5d0       _WSARecvFrom@36            004605d0 f   ws2_32:WS2_32.dll
 0001:0005f5d6       _WSAGetLastError@0         004605d6 f   ws2_32:WS2_32.dll
 0001:0005f5dc       _select@20                 004605dc f   ws2_32:WS2_32.dll
 0001:0005f5e2       _timeBeginPeriod@4         004605e2 f   winmm:WINMM.dll
 0001:0005f5e8       _timeEndPeriod@4           004605e8 f   winmm:WINMM.dll
 0001:0005f5ee       _timeGetTime@0             004605ee f   winmm:WINMM.dll
 0001:0005f5f4       ??_V@YAXPAX@Z              004605f4 f   LIBCMT:delete_array.obj
 0001:0005f5f9       ??3@YAXPAXI@Z              004605f9 f   LIBCMT:delete_scalar_size.obj
 0001:0005f607       ??_U@YAPAXI@Z              00460607 f   LIBCMT:new_array.obj
 0001:0005f610       ??_Etype_info@@UAEPAXI@Z   00460610 f i LIBCMT:std_type_info_static.obj
 0001:0005f610       ??_Gtype_info@@UAEPAXI@Z   00460610 f i LIBCMT:std_type_info_static.obj
 0001:0005f677       ___scrt_acquire_startup_lock 00460677 f   LIBCMT:utility.obj
 0001:0005f6a9       ___scrt_initialize_crt     004606a9 f   LIBCMT:utility.obj
 0001:0005f6e2       ___scrt_initialize_onexit_tables 004606e2 f   LIBCMT:utility.obj
 0001:0005f769       ___scrt_is_nonwritable_in_current_image 00460769 f   LIBCMT:utility.obj
 0001:0005f7fd       ___scrt_release_startup_lock 004607fd f   LIBCMT:utility.obj
 0001:0005f81a       ___scrt_uninitialize_crt   0046081a f   LIBCMT:utility.obj
 0001:0005f842       __onexit                   00460842 f   LIBCMT:utility.obj
 0001:0005f86f       _atexit                    0046086f f   LIBCMT:utility.obj
 0001:0005f884       ??2@YAPAXI@Z               00460884 f   LIBCMT:new_scalar.obj
 0001:0005f8b4       ??_V@YAXPAXI@Z             004608b4 f   LIBCMT:delete_array_size.obj
 0001:0005f987       __Init_thread_abort        00460987 f   LIBCMT:thread_safe_statics.obj
 0001:0005f9ab       __Init_thread_footer       004609ab f   LIBCMT:thread_safe_statics.obj
 0001:0005f9f5       __Init_thread_header       004609f5 f   LIBCMT:thread_safe_statics.obj
 0001:0005fa47       __Init_thread_notify       00460a47 f   LIBCMT:thread_safe_statics.obj
 0001:0005fa7d       __Init_thread_wait         00460a7d f   LIBCMT:thread_safe_statics.obj
 0001:0005facb       ??_M@YGXPAXIIP6EX0@Z@Z     00460acb f   LIBCMT:ehvecdtr.obj
 0001:0005fb50       ?__ArrayUnwind@@YGXPAXIIP6EX0@Z@Z 00460b50 f   LIBCMT:ehvecdtr.obj
 0001:0005fbe0       ??_L@YGXPAXIIP6EX0@Z1@Z    00460be0 f   LIBCMT:ehvecctr.obj
 0001:0005fe9b       _mainCRTStartup            00460e9b f   LIBCMT:exe_main.obj
 0001:0005fea5       ??3@YAXPAX@Z               00460ea5 f   LIBCMT:delete_scalar.obj
 0001:0005feaa       ___isa_available_init      00460eaa f   LIBCMT:cpu_disp.obj
 0001:0006007e       ___scrt_is_ucrt_dll_in_use 0046107e f   LIBCMT:ucrt_detection.obj
 0001:0006008a       ___scrt_fastfail           0046108a f   LIBCMT:utility_desktop.obj
 0001:000601a5       ___scrt_initialize_mta     004611a5 f   LIBCMT:utility_desktop.obj
 0001:000601aa       ___scrt_is_managed_app     004611aa f   LIBCMT:utility_desktop.obj
 0001:000601ec       ___scrt_set_unhandled_exception_filter 004611ec f   LIBCMT:utility_desktop.obj
 0001:000601f8       ___scrt_unhandled_exception_filter@4 004611f8 f   LIBCMT:utility_desktop.obj
 0001:0006024e       __crt_debugger_hook        0046124e f   LIBCMT:utility_desktop.obj
 0001:00060260       __SEH_prolog4              00461260 f   LIBCMT:sehprolg4.obj
 0001:000602a5       ??0bad_alloc@std@@QAE@ABV01@@Z 004612a5 f i LIBCMT:throw_bad_alloc.obj
 0001:000602c0       ??0bad_alloc@std@@QAE@XZ   004612c0 f i LIBCMT:throw_bad_alloc.obj
 0001:000602d8       ??0bad_array_new_length@std@@QAE@ABV01@@Z 004612d8 f i LIBCMT:throw_bad_alloc.obj
 0001:000602f3       ??0bad_array_new_length@std@@QAE@XZ 004612f3 f i LIBCMT:throw_bad_alloc.obj
 0001:0006030b       ??0exception@std@@QAE@ABV01@@Z 0046130b f i LIBCMT:throw_bad_alloc.obj
 0001:00060337       ??1__non_rtti_object@std@@UAE@XZ 00461337 f i libvcruntime:rtti.obj
 0001:00060337       ??1bad_alloc@std@@UAE@XZ   00461337 f i LIBCMT:throw_bad_alloc.obj
 0001:00060337       ??1bad_array_new_length@std@@UAE@XZ 00461337 f i LIBCMT:throw_bad_alloc.obj
 0001:00060337       ??1bad_cast@std@@UAE@XZ    00461337 f i libvcruntime:rtti.obj
 0001:00060337       ??1bad_exception@std@@UAE@XZ 00461337 f i libvcruntime:frame.obj
 0001:00060348       ??_E__non_rtti_object@std@@UAEPAXI@Z 00461348 f i libvcruntime:rtti.obj
 0001:00060348       ??_Ebad_alloc@std@@UAEPAXI@Z 00461348 f i LIBCMT:throw_bad_alloc.obj
 0001:00060348       ??_Ebad_array_new_length@std@@UAEPAXI@Z 00461348 f i LIBCMT:throw_bad_alloc.obj
 0001:00060348       ??_Ebad_cast@std@@UAEPAXI@Z 00461348 f i libvcruntime:rtti.obj
 0001:00060348       ??_Ebad_exception@std@@UAEPAXI@Z 00461348 f i libvcruntime:frame.obj
 0001:00060348       ??_Ebad_typeid@std@@UAEPAXI@Z 00461348 f i libvcruntime:rtti.obj
 0001:00060348       ??_Eexception@std@@UAEPAXI@Z 00461348 f i LIBCMT:throw_bad_alloc.obj
 0001:00060348       ??_G__non_rtti_object@std@@UAEPAXI@Z 00461348 f i libvcruntime:rtti.obj
 0001:00060348       ??_Gbad_alloc@std@@UAEPAXI@Z 00461348 f i LIBCMT:throw_bad_alloc.obj
 0001:00060348       ??_Gbad_array_new_length@std@@UAEPAXI@Z 00461348 f i LIBCMT:throw_bad_alloc.obj
 0001:00060348       ??_Gbad_cast@std@@UAEPAXI@Z 00461348 f i libvcruntime:rtti.obj
 0001:00060348       ??_Gbad_exception@std@@UAEPAXI@Z 00461348 f i libvcruntime:frame.obj
 0001:00060348       ??_Gbad_typeid@std@@UAEPAXI@Z 00461348 f i libvcruntime:rtti.obj
 0001:00060348       ??_Gexception@std@@UAEPAXI@Z 00461348 f i LIBCMT:throw_bad_alloc.obj
 0001:00060375       ?__scrt_throw_std_bad_alloc@@YAXXZ 00461375 f   LIBCMT:throw_bad_alloc.obj
 0001:00060392       ?__scrt_throw_std_bad_array_new_length@@YAXXZ 00461392 f   LIBCMT:throw_bad_alloc.obj
 0001:000603af       ?what@exception@std@@UBEPBDXZ 004613af f i LIBCMT:throw_bad_alloc.obj
 0001:00060409       ___security_init_cookie    00461409 f   LIBCMT:gs_support.obj
 0001:00060454       __get_startup_file_mode    00461454 f   LIBCMT:file_mode.obj
 0001:0006045a       ?__scrt_initialize_type_info@@YAXXZ 0046145a f   LIBCMT:tncleanup.obj
 0001:00060466       __initialize_default_precision 00461466 f   LIBCMT:default_precision.obj
 0001:00060487       ___scrt_initialize_default_local_stdio_options 00461487 f   LIBCMT:default_local_stdio_options.obj
 0001:000604a4       ___scrt_is_user_matherr_present 004614a4 f   LIBCMT:matherr_detection.obj
 0001:000604b0       ___scrt_get_dyn_tls_init_callback 004614b0 f   LIBCMT:dyn_tls_init.obj
 0001:000604b6       ___scrt_get_dyn_tls_dtor_callback 004614b6 f   LIBCMT:dyn_tls_dtor.obj
 0001:000604bc       __RTC_Initialize           004614bc f   LIBCMT:initsect.obj
 0001:000604e8       __RTC_Terminate            004614e8 f   LIBCMT:initsect.obj
 0001:00060514       @__security_check_cookie@4 00461514 f   LIBCMT:secchk.obj
 0001:00060522       ___raise_securityfailure   00461522 f   LIBCMT:gs_report.obj
 0001:0006054a       ___report_gsfailure        0046154a f   LIBCMT:gs_report.obj
 0001:00060644       ?GetRangeOfTrysToCheck@__FrameHandler3@@SA?AU?$pair@Viterator@TryBlockMap@__FrameHandler3@@V123@@std@@AAVTryBlockMap@1@HPAXPBU_s_FuncInfo@@H@Z 00461644 f   libvcruntime:trnsctrl.obj
 0001:000606b4       ?_CallCatchBlock2@@YAPAXPAUEHRegistrationNode@@PBU_s_FuncInfo@@PAXHK@Z 004616b4 f   libvcruntime:trnsctrl.obj
 0001:00060711       ?_CallSETranslator@@YAHPAUEHExceptionRecord@@PAUEHRegistrationNode@@PAX2PBU_s_FuncInfo@@H1@Z 00461711 f   libvcruntime:trnsctrl.obj
 0001:00060807       ?_JumpToContinuation@@YGXPAXPAUEHRegistrationNode@@@Z 00461807 f   libvcruntime:trnsctrl.obj
 0001:00060837       ?_UnwindNestedFrames@@YGXPAUEHRegistrationNode@@PAUEHExceptionRecord@@@Z 00461837 f   libvcruntime:trnsctrl.obj
 0001:0006088a       __CatchGuardHandler        0046188a f   libvcruntime:trnsctrl.obj
 0001:000608bb       __CreateFrameInfo          004618bb f   libvcruntime:trnsctrl.obj
 0001:000608df       __FindAndUnlinkFrame       004618df f   libvcruntime:trnsctrl.obj
 0001:00060927       __TranslatorGuardHandler   00461927 f   libvcruntime:trnsctrl.obj
 0001:000609c4       ___CxxFrameHandler3        004619c4 f   libvcruntime:trnsctrl.obj
 0001:00060a00       _memcpy                    00461a00 f   libvcruntime:memcpy.obj
 0001:00060a00       _memmove                   00461a00 f   libvcruntime:memmove.obj
 0001:00060f80       __get_purecall_handler     00461f80 f   libvcruntime:purevirt.obj
 0001:00060f87       __purecall                 00461f87 f   libvcruntime:purevirt.obj
 0001:00060fb0       _strrchr                   00461fb0 f   libvcruntime:strrchr.obj
 0001:000610f0       _memset                    004620f0 f   libvcruntime:memset.obj
 0001:00061250       _strchr                    00462250 f   libvcruntime:strchr.obj
 0001:000612be       ___from_strstr_to_strchr   004622be     libvcruntime:strchr.obj
 0001:00061380       _strstr                    00462380 f   libvcruntime:strstr.obj
 0001:000615eb       _memcmp                    004625eb f   libvcruntime:memcmp.obj
 0001:00062cb0       __except_handler4          00463cb0 f   libvcruntime:chandler4.obj
 0001:00062e10       _memchr                    00463e10 f   libvcruntime:memchr.obj
 0001:00062ebd       ___vcrt_initialize         00463ebd f   libvcruntime:initialization.obj
 0001:00062edc       ___vcrt_uninitialize       00463edc f   libvcruntime:initialization.obj
 0001:00062ef3       ___DestructExceptionObject 00463ef3 f   libvcruntime:ehhelpers.obj
 0001:00062f94       ?_CallMemberFunction0@@YGXQAX0@Z 00463f94 f i libvcruntime:ehhelpers.obj
 0001:00062ff9       __IsExceptionObjectToBeDestroyed 00463ff9 f   libvcruntime:ehhelpers.obj
 0001:0006301f       ___AdjustPointer           0046401f f   libvcruntime:ehhelpers.obj
 0001:00063044       ___FrameUnwindFilter       00464044 f   libvcruntime:ehhelpers.obj
 0001:0006309a       ___current_exception       0046409a f   libvcruntime:ehhelpers.obj
 0001:000630a3       ___current_exception_context 004640a3 f   libvcruntime:ehhelpers.obj
 0001:000630ac       ___std_exception_copy      004640ac f   libvcruntime:std_exception.obj
 0001:0006310f       ___std_exception_destroy   0046410f f   libvcruntime:std_exception.obj
 0001:0006312e       __CxxThrowException@8      0046412e f   libvcruntime:throw.obj
 0001:0006319a       ___std_type_info_compare   0046419a f   libvcruntime:std_type_info.obj
 0001:000631d6       ___vcrt_freefls@4          004641d6 f   libvcruntime:per_thread_data.obj
 0001:000631f2       ___vcrt_getptd             004641f2 f   libvcruntime:per_thread_data.obj
 0001:00063200       ___vcrt_getptd_noexit      00464200 f   libvcruntime:per_thread_data.obj
 0001:00063292       ___vcrt_initialize_ptd     00464292 f   libvcruntime:per_thread_data.obj
 0001:000632c5       ___vcrt_uninitialize_ptd   004642c5 f   libvcruntime:per_thread_data.obj
 0001:00063a12       ??$TypeMatchHelper@V__FrameHandler3@@@@YAHPBU_s_HandlerType@@PBU_s_CatchableType@@PBU_s_ThrowInfo@@@Z 00464a12 f i libvcruntime:frame.obj
 0001:00063aa0       ??$__InternalCxxFrameHandler@V__FrameHandler3@@@@YA?AW4_EXCEPTION_DISPOSITION@@PAUEHExceptionRecord@@PAUEHRegistrationNode@@PAU_CONTEXT@@PAXPBU_s_FuncInfo@@H1E@Z 00464aa0 f i libvcruntime:frame.obj
 0001:00063ba2       ??0bad_exception@std@@QAE@ABV01@@Z 00464ba2 f i libvcruntime:frame.obj
 0001:00063bbd       ??0bad_exception@std@@QAE@XZ 00464bbd f i libvcruntime:frame.obj
 0001:00063bd5       ??8type_info@@QBE_NABV0@@Z 00464bd5 f i libvcruntime:frame.obj
 0001:00063e4c       ?FrameUnwindToEmptyState@__FrameHandler3@@SAXPAUEHRegistrationNode@@PAXPBU_s_FuncInfo@@@Z 00464e4c f   libvcruntime:frame.obj
 0001:00063e64       ?FrameUnwindToState@__FrameHandler3@@SAXPAUEHRegistrationNode@@PAXPBU_s_FuncInfo@@H@Z 00464e64 f   libvcruntime:frame.obj
 0001:00063fe6       ?_CallMemberFunction1@@YGXQAX00@Z 00464fe6 f i libvcruntime:frame.obj
 0001:00063ff6       ?_CallMemberFunction2@@YGXQAX00H@Z 00464ff6 f i libvcruntime:frame.obj
 0001:00064009       ?getESTypes@__FrameHandler3@@SAPBU_s_ESTypeList@@PBU_s_FuncInfo@@@Z 00465009 f i libvcruntime:frame.obj
 0001:00064020       __CallSettingFrame@12      00465020 f   libvcruntime:lowhelpr.obj
 0001:00064047       __NLG_Return               00465047     libvcruntime:lowhelpr.obj
 0001:0006406c       ___except_validate_context_record 0046506c f   libvcruntime:jbcxrval.obj
 0001:000640a0       __local_unwind4            004650a0 f   libvcruntime:exsup4.obj
 0001:00064190       @_EH4_CallFilterFunc@8     00465190 f   libvcruntime:exsup4.obj
 0001:000641b0       @_EH4_TransferToHandler@8  004651b0 f   libvcruntime:exsup4.obj
 0001:000641d0       @_EH4_GlobalUnwind2@8      004651d0 f   libvcruntime:exsup4.obj
 0001:000641f0       @_EH4_LocalUnwind@16       004651f0 f   libvcruntime:exsup4.obj
 0001:00064207       ___vcrt_initialize_locks   00465207 f   libvcruntime:locks.obj
 0001:00064243       ___vcrt_uninitialize_locks 00465243 f   libvcruntime:locks.obj
 0001:0006435d       ___vcrt_FlsAlloc           0046535d f   libvcruntime:winapi_downlevel.obj
 0001:00064398       ___vcrt_FlsFree            00465398 f   libvcruntime:winapi_downlevel.obj
 0001:000643d3       ___vcrt_FlsGetValue        004653d3 f   libvcruntime:winapi_downlevel.obj
 0001:0006440e       ___vcrt_FlsSetValue        0046540e f   libvcruntime:winapi_downlevel.obj
 0001:0006444c       ___vcrt_InitializeCriticalSectionEx 0046544c f   libvcruntime:winapi_downlevel.obj
 0001:00064493       _unexpected                00465493 f   libvcruntime:unexpected.obj
 0001:000644b0       ?GetCurrentState@__FrameHandler3@@SAHPAUEHRegistrationNode@@PAXPBU_s_FuncInfo@@@Z 004654b0 f   libvcruntime:ehstate.obj
 0001:000644cd       ?SetState@__FrameHandler3@@SAXPAUEHRegistrationNode@@PBU_s_FuncInfo@@H@Z 004654cd f   libvcruntime:ehstate.obj
 0001:000644e0       __global_unwind2           004654e0 f   libvcruntime:exsup.obj
 0001:00064560       __local_unwind2            00465560 f   libvcruntime:exsup.obj
 0001:00064600       __NLG_Notify1              00465600 f   libvcruntime:exsup.obj
 0001:00064610       __NLG_Notify               00465610 f   libvcruntime:exsup.obj
 0001:00064627       __NLG_Dispatch             00465627     libvcruntime:exsup.obj
 0001:00064627       __NLG_Dispatch2            00465627     libvcruntime:exsup.obj
 0001:00064630       __NLG_Call                 00465630 f   libvcruntime:exsup.obj
 0001:00064632       __NLG_Return2              00465632     libvcruntime:exsup.obj
 0001:00064640       _strcmp                    00465640 f   libucrt:strcmp.obj
 0001:000648a5       ??$count@D@formatting_buffer@__crt_stdio_output@@QBEIXZ 004658a5 f i libucrt:output.obj
 0001:000648bd       ??$ensure_buffer_is_big_enough@D@formatting_buffer@__crt_stdio_output@@QAE_NI@Z 004658bd f i libucrt:output.obj
 0001:0006493a       ??$is_wide_character_specifier@D@__crt_stdio_output@@YA_N_KDW4length_modifier@0@@Z 0046593a f i libucrt:output.obj
 0001:0006496b       ??$scratch_data@D@formatting_buffer@__crt_stdio_output@@QAEPADXZ 0046596b f i libucrt:output.obj
 0001:00064989       ??$type_case_integer_parse_into_buffer@I@?$output_processor@DV?$stream_output_adapter@D@__crt_stdio_output@@V?$standard_base@DV?$stream_output_adapter@D@__crt_stdio_output@@@2@@__crt_stdio_output@@AAEXII_N@Z 00465989 f i libucrt:output.obj
 0001:00064989       ??$type_case_integer_parse_into_buffer@I@?$output_processor@DV?$string_output_adapter@D@__crt_stdio_output@@V?$standard_base@DV?$string_output_adapter@D@__crt_stdio_output@@@2@@__crt_stdio_output@@AAEXII_N@Z 00465989 f i libucrt:output.obj
 0001:000649fc       ??$type_case_integer_parse_into_buffer@_K@?$output_processor@DV?$stream_output_adapter@D@__crt_stdio_output@@V?$standard_base@DV?$stream_output_adapter@D@__crt_stdio_output@@@2@@__crt_stdio_output@@AAEX_KI_N@Z 004659fc f i libucrt:output.obj
 0001:000649fc       ??$type_case_integer_parse_into_buffer@_K@?$output_processor@DV?$string_output_adapter@D@__crt_stdio_output@@V?$standard_base@DV?$string_output_adapter@D@__crt_stdio_output@@@2@@__crt_stdio_output@@AAEX_KI_N@Z 004659fc f i libucrt:output.obj
 0001:00064a8a       ??$write_multiple_characters@V?$stream_output_adapter@D@__crt_stdio_output@@D@__crt_stdio_output@@YAXABV?$stream_output_adapter@D@0@DHQAH@Z 00465a8a f i libucrt:output.obj
 0001:00064ac5       ??$write_multiple_characters@V?$string_output_adapter@D@__crt_stdio_output@@D@__crt_stdio_output@@YAXABV?$string_output_adapter@D@0@DHQAH@Z 00465ac5 f i libucrt:output.obj
 0001:00064af1       ??0?$common_data@D@__crt_stdio_output@@IAE@XZ 00465af1 f i libucrt:output.obj
 0001:00064b36       ??0?$output_adapter_data@DV?$stream_output_adapter@D@__crt_stdio_output@@@__crt_stdio_output@@IAE@ABV?$stream_output_adapter@D@1@_KQBDQAU__crt_locale_pointers@@QAD@Z 00465b36 f i libucrt:output.obj
 0001:00064b36       ??0?$output_adapter_data@DV?$string_output_adapter@D@__crt_stdio_output@@@__crt_stdio_output@@IAE@ABV?$string_output_adapter@D@1@_KQBDQAU__crt_locale_pointers@@QAD@Z 00465b36 f i libucrt:output.obj
 0001:00064b72       ??0_LocaleUpdate@@QAE@QAU__crt_locale_pointers@@@Z 00465b72 f i libucrt:output.obj
 0001:00064bf5       ??1formatting_buffer@__crt_stdio_output@@QAE@XZ 00465bf5 f i libucrt:output.obj
 0001:00064c0f       ??4?$__crt_unique_heap_ptr@DU__crt_internal_free_policy@@@@QAEAAV0@$$QAV0@@Z 00465c0f f i libucrt:output.obj
 0001:00064d00       ?crop_zeroes@__crt_stdio_output@@YAXPADQAU__crt_locale_pointers@@@Z 00465d00 f i libucrt:output.obj
 0001:00064d81       ?find_next_state@?$output_processor@DV?$stream_output_adapter@D@__crt_stdio_output@@V?$standard_base@DV?$stream_output_adapter@D@__crt_stdio_output@@@2@@__crt_stdio_output@@ABE?AW4state@2@DW432@@Z 00465d81 f i libucrt:output.obj
 0001:00064d81       ?find_next_state@?$output_processor@DV?$string_output_adapter@D@__crt_stdio_output@@V?$standard_base@DV?$string_output_adapter@D@__crt_stdio_output@@@2@@__crt_stdio_output@@ABE?AW4state@2@DW432@@Z 00465d81 f i libucrt:output.obj
 0001:00064dc0       ?force_decimal_point@__crt_stdio_output@@YAXPADQAU__crt_locale_pointers@@@Z 00465dc0 f i libucrt:output.obj
 0001:00064e25       ?parse_int_from_format_string@?$output_processor@DV?$stream_output_adapter@D@__crt_stdio_output@@V?$standard_base@DV?$stream_output_adapter@D@__crt_stdio_output@@@2@@__crt_stdio_output@@AAE_NQAH@Z 00465e25 f i libucrt:output.obj
 0001:00064e25       ?parse_int_from_format_string@?$output_processor@DV?$string_output_adapter@D@__crt_stdio_output@@V?$standard_base@DV?$string_output_adapter@D@__crt_stdio_output@@@2@@__crt_stdio_output@@AAE_NQAH@Z 00465e25 f i libucrt:output.obj
 0001:00064e99       ?process@?$output_processor@DV?$stream_output_adapter@D@__crt_stdio_output@@V?$standard_base@DV?$stream_output_adapter@D@__crt_stdio_output@@@2@@__crt_stdio_output@@QAEHXZ 00465e99 f i libucrt:output.obj
 0001:00064fad       ?process@?$output_processor@DV?$string_output_adapter@D@__crt_stdio_output@@V?$standard_base@DV?$string_output_adapter@D@__crt_stdio_output@@@2@@__crt_stdio_output@@QAEHXZ 00465fad f i libucrt:output.obj
 0001:000650c1       ?state_case_flag@?$output_processor@DV?$stream_output_adapter@D@__crt_stdio_output@@V?$standard_base@DV?$stream_output_adapter@D@__crt_stdio_output@@@2@@__crt_stdio_output@@AAE_NXZ 004660c1 f i libucrt:output.obj
 0001:000650c1       ?state_case_flag@?$output_processor@DV?$string_output_adapter@D@__crt_stdio_output@@V?$standard_base@DV?$string_output_adapter@D@__crt_stdio_output@@@2@@__crt_stdio_output@@AAE_NXZ 004660c1 f i libucrt:output.obj
 0001:000650fe       ?state_case_normal@?$output_processor@DV?$stream_output_adapter@D@__crt_stdio_output@@V?$standard_base@DV?$stream_output_adapter@D@__crt_stdio_output@@@2@@__crt_stdio_output@@AAE_NXZ 004660fe f i libucrt:output.obj
 0001:0006511d       ?state_case_normal@?$output_processor@DV?$string_output_adapter@D@__crt_stdio_output@@V?$standard_base@DV?$string_output_adapter@D@__crt_stdio_output@@@2@@__crt_stdio_output@@AAE_NXZ 0046611d f i libucrt:output.obj
 0001:0006513c       ?state_case_normal_common@?$output_processor@DV?$stream_output_adapter@D@__crt_stdio_output@@V?$standard_base@DV?$stream_output_adapter@D@__crt_stdio_output@@@2@@__crt_stdio_output@@AAE_NXZ 0046613c f i libucrt:output.obj
 0001:00065176       ?state_case_normal_common@?$output_processor@DV?$string_output_adapter@D@__crt_stdio_output@@V?$standard_base@DV?$string_output_adapter@D@__crt_stdio_output@@@2@@__crt_stdio_output@@AAE_NXZ 00466176 f i libucrt:output.obj
 0001:000651a0       ?state_case_normal_tchar@?$output_processor@DV?$stream_output_adapter@D@__crt_stdio_output@@V?$standard_base@DV?$stream_output_adapter@D@__crt_stdio_output@@@2@@__crt_stdio_output@@AAE_ND@Z 004661a0 f i libucrt:output.obj
 0001:0006520d       ?state_case_normal_tchar@?$output_processor@DV?$string_output_adapter@D@__crt_stdio_output@@V?$standard_base@DV?$string_output_adapter@D@__crt_stdio_output@@@2@@__crt_stdio_output@@AAE_ND@Z 0046620d f i libucrt:output.obj
 0001:00065271       ?state_case_precision@?$output_processor@DV?$stream_output_adapter@D@__crt_stdio_output@@V?$standard_base@DV?$stream_output_adapter@D@__crt_stdio_output@@@2@@__crt_stdio_output@@AAE_NXZ 00466271 f i libucrt:output.obj
 0001:00065271       ?state_case_precision@?$output_processor@DV?$string_output_adapter@D@__crt_stdio_output@@V?$standard_base@DV?$string_output_adapter@D@__crt_stdio_output@@@2@@__crt_stdio_output@@AAE_NXZ 00466271 f i libucrt:output.obj
 0001:00065297       ?state_case_size@?$output_processor@DV?$stream_output_adapter@D@__crt_stdio_output@@V?$standard_base@DV?$stream_output_adapter@D@__crt_stdio_output@@@2@@__crt_stdio_output@@AAE_NXZ 00466297 f i libucrt:output.obj
 0001:000653e5       ?state_case_size@?$output_processor@DV?$string_output_adapter@D@__crt_stdio_output@@V?$standard_base@DV?$string_output_adapter@D@__crt_stdio_output@@@2@@__crt_stdio_output@@AAE_NXZ 004663e5 f i libucrt:output.obj
 0001:00065533       ?state_case_type@?$output_processor@DV?$stream_output_adapter@D@__crt_stdio_output@@V?$standard_base@DV?$stream_output_adapter@D@__crt_stdio_output@@@2@@__crt_stdio_output@@AAE_NXZ 00466533 f i libucrt:output.obj
 0001:00065765       ?state_case_type@?$output_processor@DV?$string_output_adapter@D@__crt_stdio_output@@V?$standard_base@DV?$string_output_adapter@D@__crt_stdio_output@@@2@@__crt_stdio_output@@AAE_NXZ 00466765 f i libucrt:output.obj
 0001:00065997       ?state_case_width@?$output_processor@DV?$stream_output_adapter@D@__crt_stdio_output@@V?$standard_base@DV?$stream_output_adapter@D@__crt_stdio_output@@@2@@__crt_stdio_output@@AAE_NXZ 00466997 f i libucrt:output.obj
 0001:00065997       ?state_case_width@?$output_processor@DV?$string_output_adapter@D@__crt_stdio_output@@V?$standard_base@DV?$string_output_adapter@D@__crt_stdio_output@@@2@@__crt_stdio_output@@AAE_NXZ 00466997 f i libucrt:output.obj
 0001:000659d0       ?to_integer_size@__crt_stdio_output@@YAIW4length_modifier@1@@Z 004669d0 f i libucrt:output.obj
 0001:00065a2c       ?type_case_Z@?$output_processor@DV?$stream_output_adapter@D@__crt_stdio_output@@V?$standard_base@DV?$stream_output_adapter@D@__crt_stdio_output@@@2@@__crt_stdio_output@@AAE_NXZ 00466a2c f i libucrt:output.obj
 0001:00065a2c       ?type_case_Z@?$output_processor@DV?$string_output_adapter@D@__crt_stdio_output@@V?$standard_base@DV?$string_output_adapter@D@__crt_stdio_output@@@2@@__crt_stdio_output@@AAE_NXZ 00466a2c f i libucrt:output.obj
 0001:00065a86       ?type_case_a@?$output_processor@DV?$stream_output_adapter@D@__crt_stdio_output@@V?$standard_base@DV?$stream_output_adapter@D@__crt_stdio_output@@@2@@__crt_stdio_output@@AAE_NXZ 00466a86 f i libucrt:output.obj
 0001:00065a86       ?type_case_a@?$output_processor@DV?$string_output_adapter@D@__crt_stdio_output@@V?$standard_base@DV?$string_output_adapter@D@__crt_stdio_output@@@2@@__crt_stdio_output@@AAE_NXZ 00466a86 f i libucrt:output.obj
 0001:00065bd7       ?type_case_c_tchar@?$output_processor@DV?$stream_output_adapter@D@__crt_stdio_output@@V?$standard_base@DV?$stream_output_adapter@D@__crt_stdio_output@@@2@@__crt_stdio_output@@AAE_ND@Z 00466bd7 f i libucrt:output.obj
 0001:00065bd7       ?type_case_c_tchar@?$output_processor@DV?$string_output_adapter@D@__crt_stdio_output@@V?$standard_base@DV?$string_output_adapter@D@__crt_stdio_output@@@2@@__crt_stdio_output@@AAE_ND@Z 00466bd7 f i libucrt:output.obj
 0001:00065c6a       ?type_case_integer@?$output_processor@DV?$stream_output_adapter@D@__crt_stdio_output@@V?$standard_base@DV?$stream_output_adapter@D@__crt_stdio_output@@@2@@__crt_stdio_output@@AAE_NI_N@Z 00466c6a f i libucrt:output.obj
 0001:00065c6a       ?type_case_integer@?$output_processor@DV?$string_output_adapter@D@__crt_stdio_output@@V?$standard_base@DV?$string_output_adapter@D@__crt_stdio_output@@@2@@__crt_stdio_output@@AAE_NI_N@Z 00466c6a f i libucrt:output.obj
 0001:00065dbb       ?type_case_n@?$output_processor@DV?$stream_output_adapter@D@__crt_stdio_output@@V?$standard_base@DV?$stream_output_adapter@D@__crt_stdio_output@@@2@@__crt_stdio_output@@AAE_NXZ 00466dbb f i libucrt:output.obj
 0001:00065dbb       ?type_case_n@?$output_processor@DV?$string_output_adapter@D@__crt_stdio_output@@V?$standard_base@DV?$string_output_adapter@D@__crt_stdio_output@@@2@@__crt_stdio_output@@AAE_NXZ 00466dbb f i libucrt:output.obj
 0001:00065e2f       ?type_case_o@?$output_processor@DV?$stream_output_adapter@D@__crt_stdio_output@@V?$standard_base@DV?$stream_output_adapter@D@__crt_stdio_output@@@2@@__crt_stdio_output@@AAE_NXZ 00466e2f f i libucrt:output.obj
 0001:00065e2f       ?type_case_o@?$output_processor@DV?$string_output_adapter@D@__crt_stdio_output@@V?$standard_base@DV?$string_output_adapter@D@__crt_stdio_output@@@2@@__crt_stdio_output@@AAE_NXZ 00466e2f f i libucrt:output.obj
 0001:00065e4e       ?type_case_p@?$output_processor@DV?$stream_output_adapter@D@__crt_stdio_output@@V?$standard_base@DV?$stream_output_adapter@D@__crt_stdio_output@@@2@@__crt_stdio_output@@AAE_NXZ 00466e4e f i libucrt:output.obj
 0001:00065e4e       ?type_case_p@?$output_processor@DV?$string_output_adapter@D@__crt_stdio_output@@V?$standard_base@DV?$string_output_adapter@D@__crt_stdio_output@@@2@@__crt_stdio_output@@AAE_NXZ 00466e4e f i libucrt:output.obj
 0001:00065e66       ?type_case_s@?$output_processor@DV?$stream_output_adapter@D@__crt_stdio_output@@V?$standard_base@DV?$stream_output_adapter@D@__crt_stdio_output@@@2@@__crt_stdio_output@@AAE_NXZ 00466e66 f i libucrt:output.obj
 0001:00065e66       ?type_case_s@?$output_processor@DV?$string_output_adapter@D@__crt_stdio_output@@V?$standard_base@DV?$string_output_adapter@D@__crt_stdio_output@@@2@@__crt_stdio_output@@AAE_NXZ 00466e66 f i libucrt:output.obj
 0001:00065ed7       ?validate@?$stream_output_adapter@D@__crt_stdio_output@@QBE_NXZ 00466ed7 f i libucrt:output.obj
 0001:00065ef8       ?validate@?$c_string_character_source@D@__crt_strtox@@QBE_NXZ 00466ef8 f i libucrt:strtox.obj
 0001:00065ef8       ?validate@?$c_string_character_source@_W@__crt_strtox@@QBE_NXZ 00466ef8 f i libucrt:strtox.obj
 0001:00065ef8       ?validate@?$string_output_adapter@D@__crt_stdio_output@@QBE_NXZ 00466ef8 f i libucrt:output.obj
 0001:00065f13       ?validate_stream_is_ansi_if_required@?$__acrt_stdio_char_traits@D@@SA_NQAU_iobuf@@@Z 00466f13 f i libucrt:output.obj
 0001:00065f9a       ?write_character@?$string_output_adapter@D@__crt_stdio_output@@QBE_NDQAH@Z 00466f9a f i libucrt:output.obj
 0001:00065fdc       ?write_character_without_count_update@?$stream_output_adapter@D@__crt_stdio_output@@QBE_ND@Z 00466fdc f i libucrt:output.obj
 0001:00066012       ?write_stored_string_tchar@?$output_processor@DV?$stream_output_adapter@D@__crt_stdio_output@@V?$standard_base@DV?$stream_output_adapter@D@__crt_stdio_output@@@2@@__crt_stdio_output@@AAE_ND@Z 00467012 f i libucrt:output.obj
 0001:000660b7       ?write_stored_string_tchar@?$output_processor@DV?$string_output_adapter@D@__crt_stdio_output@@V?$standard_base@DV?$string_output_adapter@D@__crt_stdio_output@@@2@@__crt_stdio_output@@AAE_ND@Z 004670b7 f i libucrt:output.obj
 0001:0006615c       ?write_string@?$stream_output_adapter@D@__crt_stdio_output@@QBEXQBDHQAHAAV__crt_deferred_errno_cache@@@Z 0046715c f i libucrt:output.obj
 0001:00066188       ?write_string@?$string_output_adapter@D@__crt_stdio_output@@QBEXQBDHQAHAAV__crt_deferred_errno_cache@@@Z 00467188 f i libucrt:output.obj
 0001:000661ef       ?write_string_impl@?$output_adapter_common@DV?$stream_output_adapter@D@__crt_stdio_output@@@__crt_stdio_output@@IBEXQBDHQAHAAV__crt_deferred_errno_cache@@@Z 004671ef f i libucrt:output.obj
 0001:0006628d       ___acrt_locale_get_ctype_array_value 0046728d f i libucrt:output.obj
 0001:000662af       ___stdio_common_vfprintf   004672af f   libucrt:output.obj
 0001:00066332       ___stdio_common_vsprintf   00467332 f   libucrt:output.obj
 0001:00066360       _strlen                    00467360 f   libucrt:strlen.obj
 0001:000663f0       _strncpy                   004673f0 f   libucrt:strncpy.obj
 0001:00066514       _abs                       00467514 f   libucrt:abs.obj
 0001:00066514       _labs                      00467514 f   libucrt:labs.obj
 0001:00066530       _floor                     00467530 f   libucrt:floor_pentium4.obj
 0001:00066570       __floor_pentium4           00467570 f   libucrt:floor_pentium4.obj
 0001:00066630       _isalnum                   00467630 f   libucrt:_ctype.obj
 0001:000666c0       _isalpha                   004676c0 f   libucrt:_ctype.obj
 0001:00066750       _isdigit                   00467750 f   libucrt:_ctype.obj
 0001:000667e0       _isprint                   004677e0 f   libucrt:_ctype.obj
 0001:00066870       _isspace                   00467870 f   libucrt:_ctype.obj
 0001:00066900       _isxdigit                  00467900 f   libucrt:_ctype.obj
 0001:00066990       _atan2                     00467990 f   libucrt:atan2.obj
 0001:000669a0       _sin                       004679a0 f   libucrt:sin.obj
 0001:000669f0       _cos                       004679f0 f   libucrt:cos.obj
 0001:00066a40       _sqrt                      00467a40 f   libucrt:sqrt.obj
 0001:00066a4e       _fabs                      00467a4e f   libucrt:fabs.obj
 0001:00066aa0       _qsort                     00467aa0 f   libucrt:qsort.obj
 0001:00066f90       _ceil                      00467f90 f   libucrt:ceil_pentium4.obj
 0001:00066fd0       __ceil_pentium4            00467fd0 f   libucrt:ceil_pentium4.obj
 0001:000670b0       _strcspn                   004680b0 f   libucrt:strcspn.obj
 0001:00067100       _strspn                    00468100 f   libucrt:strspn.obj
 0001:00067150       _strcpy                    00468150 f   libucrt:strcat.obj
 0001:00067160       _strcat                    00468160 f   libucrt:strcat.obj
 0001:00067248       ??$is_overflow_condition@K@__crt_strtox@@YA_NIK@Z 00468248 f i libucrt:strtox.obj
 0001:00067279       ??$is_overflow_condition@_K@__crt_strtox@@YA_NI_K@Z 00468279 f i libucrt:strtox.obj
 0001:000672ba       ??$make_c_string_character_source@DPAPAD@__crt_strtox@@YA?AV?$c_string_character_source@D@0@QBDQAPAD@Z 004682ba f i libucrt:strtox.obj
 0001:000672ba       ??$make_c_string_character_source@_WPAPA_W@__crt_strtox@@YA?AV?$c_string_character_source@_W@0@QB_WQAPA_W@Z 004682ba f i libucrt:strtox.obj
 0001:000672d5       ??$parse_integer@KV?$c_string_character_source@D@__crt_strtox@@@__crt_strtox@@YAKQAU__crt_locale_pointers@@V?$c_string_character_source@D@0@H_N@Z 004682d5 f i libucrt:strtox.obj
 0001:000674f8       ??$parse_integer@KV?$c_string_character_source@_W@__crt_strtox@@@__crt_strtox@@YAKQAU__crt_locale_pointers@@V?$c_string_character_source@_W@0@H_N@Z 004684f8 f i libucrt:strtox.obj
 0001:00067b00       ??$parse_integer@_KV?$c_string_character_source@D@__crt_strtox@@@__crt_strtox@@YA_KQAU__crt_locale_pointers@@V?$c_string_character_source@D@0@H_N@Z 00468b00 f i libucrt:strtox.obj
 0001:00067da6       ?unget@?$c_string_character_source@D@__crt_strtox@@QAEXD@Z 00468da6 f i libucrt:strtox.obj
 0001:00067dcf       ?unget@?$c_string_character_source@_W@__crt_strtox@@QAEX_W@Z 00468dcf f i libucrt:strtox.obj
 0001:00067dfd       __ischartype_l             00468dfd f i libucrt:strtox.obj
 0001:00067e51       _strtol                    00468e51 f   libucrt:strtox.obj
 0001:00067e7b       _strtoull                  00468e7b f   libucrt:strtox.obj
 0001:00067ea5       _wcstol                    00468ea5 f   libucrt:strtox.obj
 0001:00067ecf       ??$assemble_floating_point_snan@N@__crt_strtox@@YAX_NAAN@Z 00468ecf f i libucrt:strtod.obj
 0001:00067ef0       ??$assemble_floating_point_value_t@M@__crt_strtox@@YA?AW4SLD_STATUS@@_NH_KAAM@Z 00468ef0 f i libucrt:strtod.obj
 0001:00067f20       ??$assemble_floating_point_value_t@N@__crt_strtox@@YA?AW4SLD_STATUS@@_NH_KAAN@Z 00468f20 f i libucrt:strtod.obj
 0001:00067feb       ??$convert_decimal_string_to_floating_type@M@__crt_strtox@@YA?AW4SLD_STATUS@@ABUfloating_point_string@0@AAM@Z 00468feb f i libucrt:strtod.obj
 0001:0006800c       ??$convert_decimal_string_to_floating_type@N@__crt_strtox@@YA?AW4SLD_STATUS@@ABUfloating_point_string@0@AAN@Z 0046900c f i libucrt:strtod.obj
 0001:0006802d       ??$convert_hexadecimal_string_to_floating_type@M@__crt_strtox@@YA?AW4SLD_STATUS@@ABUfloating_point_string@0@AAM@Z 0046902d f i libucrt:strtod.obj
 0001:0006804e       ??$convert_hexadecimal_string_to_floating_type@N@__crt_strtox@@YA?AW4SLD_STATUS@@ABUfloating_point_string@0@AAN@Z 0046904e f i libucrt:strtod.obj
 0001:0006806f       ??$parse_floating_point@V?$c_string_character_source@D@__crt_strtox@@N@__crt_strtox@@YA?AW4SLD_STATUS@@QAU__crt_locale_pointers@@V?$c_string_character_source@D@0@QAN@Z 0046906f f i libucrt:strtod.obj
 0001:000680e3       ??$parse_floating_point_from_source@V?$c_string_character_source@D@__crt_strtox@@@__crt_strtox@@YA?AW4floating_point_parse_result@0@QAU__crt_locale_pointers@@AAV?$c_string_character_source@D@0@AAUfloating_point_string@0@@Z 004690e3 f i libucrt:strtod.obj
 0001:000684cc       ??$parse_floating_point_possible_infinity@DV?$c_string_character_source@D@__crt_strtox@@PBD@__crt_strtox@@YA?AW4floating_point_parse_result@0@AADAAV?$c_string_character_source@D@0@PBD@Z 004694cc f i libucrt:strtod.obj
 0001:0006856e       ??$parse_floating_point_possible_nan@DV?$c_string_character_source@D@__crt_strtox@@PBD@__crt_strtox@@YA?AW4floating_point_parse_result@0@AADAAV?$c_string_character_source@D@0@PBD@Z 0046956e f i libucrt:strtod.obj
 0001:0006867d       ??$parse_floating_point_possible_nan_is_ind@DV?$c_string_character_source@D@__crt_strtox@@@__crt_strtox@@YA_NAADAAV?$c_string_character_source@D@0@@Z 0046967d f i libucrt:strtod.obj
 0001:000686b9       ??$parse_floating_point_possible_nan_is_snan@DV?$c_string_character_source@D@__crt_strtox@@@__crt_strtox@@YA_NAADAAV?$c_string_character_source@D@0@@Z 004696b9 f i libucrt:strtod.obj
 0001:000686f5       ??$parse_floating_point_write_result@M@__crt_strtox@@YA?AW4SLD_STATUS@@W4floating_point_parse_result@0@ABUfloating_point_string@0@QAM@Z 004696f5 f i libucrt:strtod.obj
 0001:00068861       ??$parse_floating_point_write_result@N@__crt_strtox@@YA?AW4SLD_STATUS@@W4floating_point_parse_result@0@ABUfloating_point_string@0@QAN@Z 00469861 f i libucrt:strtod.obj
 0001:000689ab       ?as_double@floating_point_value@__crt_strtox@@QBEAANXZ 004699ab f i libucrt:strtod.obj
 0001:000689d0       ?as_float@floating_point_value@__crt_strtox@@QBEAAMXZ 004699d0 f i libucrt:strtod.obj
 0001:000689f5       ?assemble_floating_point_infinity@__crt_strtox@@YAX_NABVfloating_point_value@1@@Z 004699f5 f i libucrt:strtod.obj
 0001:00068a35       ?assemble_floating_point_value@__crt_strtox@@YA?AW4SLD_STATUS@@_KH_N1ABVfloating_point_value@1@@Z 00469a35 f i libucrt:strtod.obj
 0001:00068d8a       ?assemble_floating_point_value_from_big_integer@__crt_strtox@@YA?AW4SLD_STATUS@@ABUbig_integer@1@I_N1ABVfloating_point_value@1@@Z 00469d8a f i libucrt:strtod.obj
 0001:00068f1e       ?assemble_floating_point_zero@__crt_strtox@@YAX_NABVfloating_point_value@1@@Z 00469f1e f i libucrt:strtod.obj
 0001:00068f53       ?convert_decimal_string_to_floating_type_common@__crt_strtox@@YA?AW4SLD_STATUS@@ABUfloating_point_string@1@ABVfloating_point_value@1@@Z 00469f53 f i libucrt:strtod.obj
 0001:0006ac27       ?convert_hexadecimal_string_to_floating_type_common@__crt_strtox@@YA?AW4SLD_STATUS@@ABUfloating_point_string@1@ABVfloating_point_value@1@@Z 0046bc27 f i libucrt:strtod.obj
 0001:0006accd       ?denormal_mantissa_mask@floating_point_value@__crt_strtox@@QBE_KXZ 0046bccd f i libucrt:strtod.obj
 0001:0006acf0       ?divide@__crt_strtox@@YA_KAAUbig_integer@1@ABU21@@Z 0046bcf0 f i libucrt:strtod.obj
 0001:0006b188       ?normal_mantissa_mask@floating_point_value@__crt_strtox@@QBE_KXZ 0046c188 f i libucrt:strtod.obj
 0001:0006b220       _strtod                    0046c220 f   libucrt:strtod.obj
 0001:0006b237       ___acrt_initialize_stdio   0046c237 f   libucrt:_file.obj
 0001:0006b2ff       ___acrt_iob_func           0046c2ff f   libucrt:_file.obj
 0001:0006b30f       ___acrt_uninitialize_stdio 0046c30f f   libucrt:_file.obj
 0001:0006b35b       __lock_file                0046c35b f   libucrt:_file.obj
 0001:0006b36f       __unlock_file              0046c36f f   libucrt:_file.obj
 0001:0006b390       _strncmp                   0046c390 f   libucrt:strncmp.obj
 0001:0006b410       _fmod                      0046c410 f   libucrt:87fmod.obj
 0001:0006b420       _tan                       0046c420 f   libucrt:tan.obj
 0001:0006b470       _asin                      0046c470 f   libucrt:asin.obj
 0001:0006b4c0       _acos                      0046c4c0 f   libucrt:acos.obj
 0001:0006b510       _atan                      0046c510 f   libucrt:atan.obj
 0001:0006b560       _pow                       0046c560 f   libucrt:pow.obj
 0001:0006b5b0       _log                       0046c5b0 f   libucrt:log.obj
 0001:0006b600       _log10                     0046c600 f   libucrt:log10.obj
 0001:0006b650       _exp                       0046c650 f   libucrt:exp.obj
 0001:0006b74d       _puts                      0046c74d f   libucrt:puts.obj
 0001:0006b83b       ___ascii_stricmp           0046c83b f   libucrt:stricmp.obj
 0001:0006b874       __stricmp                  0046c874 f   libucrt:stricmp.obj
 0001:0006b8bd       __stricmp_l                0046c8bd f   libucrt:stricmp.obj
 0001:0006b998       ??$__crt_fast_encode_pointer@P6AHPAU_exception@@@Z@@YAP6AHPAU_exception@@@ZQ6AH0@Z@Z 0046c998 f i libucrt:matherr.obj
 0001:0006b998       ??$__crt_fast_encode_pointer@P6AHXZ@@YAP6AHXZQ6AHXZ@Z 0046c998 f i libucrt:onexit.obj
 0001:0006b998       ??$__crt_fast_encode_pointer@P6GXPAXK0@Z@@YAP6GXPAXK0@ZQ6GX0K0@Z@Z 0046c998 f i libucrt:exit.obj
 0001:0006b998       ??$__crt_fast_encode_pointer@PAP6AXXZ@@YAPAP6AXXZQAP6AXXZ@Z 0046c998 f i libucrt:onexit.obj
 0001:0006b998       ??$__crt_fast_encode_pointer@PAX@@YAPAXQAX@Z 0046c998 f i libucrt:initialization.obj
 0001:0006bbe0       ___acrt_initialize_thread_local_exit_callback 0046cbe0 f   libucrt:exit.obj
 0001:0006bbef       __c_exit                   0046cbef f   libucrt:exit.obj
 0001:0006bbfe       __cexit                    0046cbfe f   libucrt:exit.obj
 0001:0006bc0d       __exit                     0046cc0d f   libucrt:exit.obj
 0001:0006bc23       __register_thread_local_exe_atexit_callback 0046cc23 f   libucrt:exit.obj
 0001:0006bc49       _exit                      0046cc49 f   libucrt:exit.obj
 0001:0006bc5f       _atoi                      0046cc5f f   libucrt:atox.obj
 0001:0006bd34       ??$__acrt_mbs_to_wcs_cp@U__crt_win32_buffer_internal_dynamic_resizing@@@@YAHQBDAAV?$__crt_win32_buffer@_WU__crt_win32_buffer_internal_dynamic_resizing@@@@I@Z 0046cd34 f i libucrt:unlink.obj
 0001:0006bd51       ?__acrt_get_utf8_acp_compatibility_codepage@@YAIXZ 0046cd51 f i libucrt:unlink.obj
 0001:0006bd90       ?_deallocate@?$__crt_win32_buffer@DU__crt_win32_buffer_internal_dynamic_resizing@@@@AAEXXZ 0046cd90 f i libucrt:argv_wildcards.obj
 0001:0006bd90       ?_deallocate@?$__crt_win32_buffer@_WU__crt_win32_buffer_internal_dynamic_resizing@@@@AAEXXZ 0046cd90 f i libucrt:unlink.obj
 0001:0006bdaa       ?allocate@?$__crt_win32_buffer@_WU__crt_win32_buffer_internal_dynamic_resizing@@@@QAEHI@Z 0046cdaa f i libucrt:unlink.obj
 0001:0006bde9       ?allocate@__crt_win32_buffer_internal_dynamic_resizing@@SAHQAPAXIABV__crt_win32_buffer_empty_debug_info@@@Z 0046cde9 f i libucrt:unlink.obj
 0001:0006be08       _remove                    0046ce08 f   libucrt:unlink.obj
 0001:0006be72       _rename                    0046ce72 f   libucrt:rename.obj
 0001:0006bf20       __time32                   0046cf20 f   libucrt:time.obj
 0001:0006bf20       _time                      0046cf20 f   libucrt:time.obj
 0001:0006bf79       __time64                   0046cf79 f   libucrt:time.obj
 0001:0006c266       __localtime64              0046d266 f   libucrt:localtime.obj
 0001:0006c28d       __localtime64_s            0046d28d f   libucrt:localtime.obj
 0001:0006c35f       ??$__acrt_wcs_to_mbs_cp@U__crt_win32_buffer_no_resizing@@@@YAHQB_WAAV?$__crt_win32_buffer@DU__crt_win32_buffer_no_resizing@@@@I@Z 0046d35f f i libucrt:strftime.obj
 0001:0006c37c       ?allocate@?$__crt_win32_buffer@DU__crt_win32_buffer_no_resizing@@@@QAEHI@Z 0046d37c f i libucrt:strftime.obj
 0001:0006c3a3       ?set_to_nullptr@?$__crt_win32_buffer@DU__crt_win32_buffer_no_resizing@@@@QAEXXZ 0046d3a3 f i libucrt:strftime.obj
 0001:0006c3b7       __Strftime_l               0046d3b7 f   libucrt:strftime.obj
 0001:0006c4b4       _strftime                  0046d4b4 f   libucrt:strftime.obj
 0001:0006c4d3       __tolower_l                0046d4d3 f   libucrt:tolower_toupper.obj
 0001:0006c5d7       __toupper_l                0046d5d7 f   libucrt:tolower_toupper.obj
 0001:0006c6dc       _tolower                   0046d6dc f   libucrt:tolower_toupper.obj
 0001:0006c70c       _toupper                   0046d70c f   libucrt:tolower_toupper.obj
 0001:0006c7f0       ??$make_input_adapter_character_source@V?$string_input_adapter@D@__crt_stdio_input@@@__crt_strtox@@YA?AV?$input_adapter_character_source@V?$string_input_adapter@D@__crt_stdio_input@@@0@QAV?$string_input_adapter@D@__crt_stdio_input@@_KQA_N@Z 0046d7f0 f i libucrt:input.obj
 0001:0006c80e       ??$parse_floating_point@V?$input_adapter_character_source@V?$string_input_adapter@D@__crt_stdio_input@@@__crt_strtox@@M@__crt_strtox@@YA?AW4SLD_STATUS@@QAU__crt_locale_pointers@@V?$input_adapter_character_source@V?$string_input_adapter@D@__crt_stdio_input@@@0@QAM@Z 0046d80e f i libucrt:input.obj
 0001:0006c887       ??$parse_floating_point@V?$input_adapter_character_source@V?$string_input_adapter@D@__crt_stdio_input@@@__crt_strtox@@N@__crt_strtox@@YA?AW4SLD_STATUS@@QAU__crt_locale_pointers@@V?$input_adapter_character_source@V?$string_input_adapter@D@__crt_stdio_input@@@0@QAN@Z 0046d887 f i libucrt:input.obj
 0001:0006c900       ??$parse_floating_point_from_source@V?$input_adapter_character_source@V?$string_input_adapter@D@__crt_stdio_input@@@__crt_strtox@@@__crt_strtox@@YA?AW4floating_point_parse_result@0@QAU__crt_locale_pointers@@AAV?$input_adapter_character_source@V?$string_input_adapter@D@__crt_stdio_input@@@0@AAUfloating_point_string@0@@Z 0046d900 f i libucrt:input.obj
 0001:0006cd5d       ??$parse_floating_point_possible_infinity@DV?$input_adapter_character_source@V?$string_input_adapter@D@__crt_stdio_input@@@__crt_strtox@@_K@__crt_strtox@@YA?AW4floating_point_parse_result@0@AADAAV?$input_adapter_character_source@V?$string_input_adapter@D@__crt_stdio_input@@@0@_K@Z 0046dd5d f i libucrt:input.obj
 0001:0006ce1c       ??$parse_floating_point_possible_nan@DV?$input_adapter_character_source@V?$string_input_adapter@D@__crt_stdio_input@@@__crt_strtox@@_K@__crt_strtox@@YA?AW4floating_point_parse_result@0@AADAAV?$input_adapter_character_source@V?$string_input_adapter@D@__crt_stdio_input@@@0@_K@Z 0046de1c f i libucrt:input.obj
 0001:0006cf37       ??$parse_floating_point_possible_nan_is_ind@DV?$input_adapter_character_source@V?$string_input_adapter@D@__crt_stdio_input@@@__crt_strtox@@@__crt_strtox@@YA_NAADAAV?$input_adapter_character_source@V?$string_input_adapter@D@__crt_stdio_input@@@0@@Z 0046df37 f i libucrt:input.obj
 0001:0006cf71       ??$parse_floating_point_possible_nan_is_snan@DV?$input_adapter_character_source@V?$string_input_adapter@D@__crt_stdio_input@@@__crt_strtox@@@__crt_strtox@@YA_NAADAAV?$input_adapter_character_source@V?$string_input_adapter@D@__crt_stdio_input@@@0@@Z 0046df71 f i libucrt:input.obj
 0001:0006cfab       ??$parse_integer@_KV?$input_adapter_character_source@V?$string_input_adapter@D@__crt_stdio_input@@@__crt_strtox@@@__crt_strtox@@YA_KQAU__crt_locale_pointers@@V?$input_adapter_character_source@V?$string_input_adapter@D@__crt_stdio_input@@@0@H_N@Z 0046dfab f i libucrt:input.obj
 0001:0006d269       ??$process_floating_point_specifier_t@M@?$input_processor@DV?$string_input_adapter@D@__crt_stdio_input@@@__crt_stdio_input@@AAE_NXZ 0046e269 f i libucrt:input.obj
 0001:0006d2cf       ??$process_floating_point_specifier_t@N@?$input_processor@DV?$string_input_adapter@D@__crt_stdio_input@@@__crt_stdio_input@@AAE_NXZ 0046e2cf f i libucrt:input.obj
 0001:0006d335       ??$process_string_specifier_tchar@D@?$input_processor@DV?$string_input_adapter@D@__crt_stdio_input@@@__crt_stdio_input@@AAE_NW4conversion_mode@1@D@Z 0046e335 f i libucrt:input.obj
 0001:0006d492       ??$process_string_specifier_tchar@_W@?$input_processor@DV?$string_input_adapter@D@__crt_stdio_input@@@__crt_stdio_input@@AAE_NW4conversion_mode@1@_W@Z 0046e492 f i libucrt:input.obj
 0001:0006d5f9       ??$skip_whitespace@Vstring_input_adapter@__crt_stdio_input@@D@__crt_stdio_input@@YAHAAV?$string_input_adapter@D@0@QAU__crt_locale_pointers@@@Z 0046e5f9 f i libucrt:input.obj
 0001:0006d628       ??$write_floating_point@M@?$input_processor@DV?$string_input_adapter@D@__crt_stdio_input@@@__crt_stdio_input@@AAE_NABM@Z 0046e628 f i libucrt:input.obj
 0001:0006d65c       ??$write_floating_point@N@?$input_processor@DV?$string_input_adapter@D@__crt_stdio_input@@@__crt_stdio_input@@AAE_NABN@Z 0046e65c f i libucrt:input.obj
 0001:0006d696       ??0?$format_string_parser@D@__crt_stdio_input@@QAE@_KQBE@Z 0046e696 f i libucrt:input.obj
 0001:0006d6e0       ??0?$input_adapter_character_source@V?$string_input_adapter@D@__crt_stdio_input@@@__crt_strtox@@QAE@QAV?$string_input_adapter@D@__crt_stdio_input@@_KQA_N@Z 0046e6e0 f i libucrt:input.obj
 0001:0006d711       ??0?$input_processor@DV?$string_input_adapter@D@__crt_stdio_input@@@__crt_stdio_input@@QAE@ABV?$string_input_adapter@D@1@_KQBDQAU__crt_locale_pointers@@QAD@Z 0046e711 f i libucrt:input.obj
 0001:0006d77f       ?advance@?$format_string_parser@D@__crt_stdio_input@@QAE_NXZ 0046e77f f i libucrt:input.obj
 0001:0006d897       ?get@?$input_adapter_character_source@V?$string_input_adapter@D@__crt_stdio_input@@@__crt_strtox@@QAEDXZ 0046e897 f i libucrt:input.obj
 0001:0006d8ce       ?get@?$string_input_adapter@D@__crt_stdio_input@@QAEHXZ 0046e8ce f i libucrt:input.obj
 0001:0006d8e4       ?invert@?$scanset_buffer@E@__crt_stdio_input@@QAEXXZ 0046e8e4 f i libucrt:input.obj
 0001:0006d902       ?is_character_allowed_in_string@?$input_processor@DV?$string_input_adapter@D@__crt_stdio_input@@@__crt_stdio_input@@ABE_NW4conversion_mode@2@H@Z 0046e902 f i libucrt:input.obj
 0001:0006d952       ?length@?$format_string_parser@D@__crt_stdio_input@@QBEIXZ 0046e952 f i libucrt:input.obj
 0001:0006d993       ?process@?$input_processor@DV?$string_input_adapter@D@__crt_stdio_input@@@__crt_stdio_input@@QAEHXZ 0046e993 f i libucrt:input.obj
 0001:0006da17       ?process_character_count_specifier@?$input_processor@DV?$string_input_adapter@D@__crt_stdio_input@@@__crt_stdio_input@@AAE_NXZ 0046ea17 f i libucrt:input.obj
 0001:0006da2f       ?process_conversion_specifier@?$input_processor@DV?$string_input_adapter@D@__crt_stdio_input@@@__crt_stdio_input@@AAE_NXZ 0046ea2f f i libucrt:input.obj
 0001:0006daa3       ?process_floating_point_specifier@?$input_processor@DV?$string_input_adapter@D@__crt_stdio_input@@@__crt_stdio_input@@AAE_NXZ 0046eaa3 f i libucrt:input.obj
 0001:0006dad3       ?process_integer_specifier@?$input_processor@DV?$string_input_adapter@D@__crt_stdio_input@@@__crt_stdio_input@@AAE_NI_N@Z 0046ead3 f i libucrt:input.obj
 0001:0006db35       ?process_literal_character@?$input_processor@DV?$string_input_adapter@D@__crt_stdio_input@@@__crt_stdio_input@@AAE_NXZ 0046eb35 f i libucrt:input.obj
 0001:0006db6b       ?process_literal_character_tchar@?$input_processor@DV?$string_input_adapter@D@__crt_stdio_input@@@__crt_stdio_input@@AAE_ND@Z 0046eb6b f i libucrt:input.obj
 0001:0006dbb9       ?process_state@?$input_processor@DV?$string_input_adapter@D@__crt_stdio_input@@@__crt_stdio_input@@AAE_NXZ 0046ebb9 f i libucrt:input.obj
 0001:0006dbfb       ?process_string_specifier@?$input_processor@DV?$string_input_adapter@D@__crt_stdio_input@@@__crt_stdio_input@@AAE_NW4conversion_mode@2@@Z 0046ebfb f i libucrt:input.obj
 0001:0006dc43       ?process_whitespace@?$input_processor@DV?$string_input_adapter@D@__crt_stdio_input@@@__crt_stdio_input@@AAE_NXZ 0046ec43 f i libucrt:input.obj
 0001:0006dc60       ?restore_state@?$input_adapter_character_source@V?$string_input_adapter@D@__crt_stdio_input@@@__crt_strtox@@QAE_N_K@Z 0046ec60 f i libucrt:input.obj
 0001:0006dc85       ?scan_conversion_specifier@?$format_string_parser@D@__crt_stdio_input@@AAE_NXZ 0046ec85 f i libucrt:input.obj
 0001:0006ddf0       ?scan_optional_field_width@?$format_string_parser@D@__crt_stdio_input@@AAE_NXZ 0046edf0 f i libucrt:input.obj
 0001:0006de8d       ?scan_optional_length_modifier@?$format_string_parser@D@__crt_stdio_input@@AAEXXZ 0046ee8d f i libucrt:input.obj
 0001:0006df9c       ?scan_optional_literal_character_trail_bytes_tchar@?$format_string_parser@D@__crt_stdio_input@@AAE_ND@Z 0046ef9c f i libucrt:input.obj
 0001:0006dfee       ?scan_optional_wide_modifier@?$format_string_parser@D@__crt_stdio_input@@AAEXXZ 0046efee f i libucrt:input.obj
 0001:0006e00c       ?scan_scanset_range@?$format_string_parser@D@__crt_stdio_input@@AAE_NXZ 0046f00c f i libucrt:input.obj
 0001:0006e144       ?set_wide_for_c_s_or_scanset@?$format_string_parser@D@__crt_stdio_input@@AAEXXZ 0046f144 f i libucrt:input.obj
 0001:0006e164       ?to_floating_point_length@__crt_stdio_input@@YAIW4length_modifier@1@@Z 0046f164 f i libucrt:input.obj
 0001:0006e187       ?to_integer_length@__crt_stdio_input@@YAIW4length_modifier@1@@Z 0046f187 f i libucrt:input.obj
 0001:0006e1da       ?unget@?$input_adapter_character_source@V?$string_input_adapter@D@__crt_stdio_input@@@__crt_strtox@@QAEXD@Z 0046f1da f i libucrt:input.obj
 0001:0006e221       ?unget@?$string_input_adapter@D@__crt_stdio_input@@QAEXH@Z 0046f221 f i libucrt:input.obj
 0001:0006e240       ?validate@?$format_string_parser@D@__crt_stdio_input@@QBE_NXZ 0046f240 f i libucrt:input.obj
 0001:0006e25c       ?validate@?$input_adapter_character_source@V?$string_input_adapter@D@__crt_stdio_input@@@__crt_strtox@@QBE_NXZ 0046f25c f i libucrt:input.obj
 0001:0006e27d       ?validate@?$string_input_adapter@D@__crt_stdio_input@@QAE_NXZ 0046f27d f i libucrt:input.obj
 0001:0006e29f       ?write_character@?$input_processor@DV?$string_input_adapter@D@__crt_stdio_input@@@__crt_stdio_input@@AAE_NQA_WIAAPA_WAAID@Z 0046f29f f i libucrt:input.obj
 0001:0006e30c       ?write_integer@?$input_processor@DV?$string_input_adapter@D@__crt_stdio_input@@@__crt_stdio_input@@AAE_N_K@Z 0046f30c f i libucrt:input.obj
 0001:0006e37a       ___stdio_common_vsscanf    0046f37a f   libucrt:input.obj
 0001:0006e39e       __fputc_nolock             0046f39e f   libucrt:fputc.obj
 0001:0006e3c7       __fputchar                 0046f3c7 f   libucrt:fputc.obj
 0001:0006e3e1       _fputc                     0046f3e1 f   libucrt:fputc.obj
 0001:0006e4eb       _putchar                   0046f4eb f   libucrt:fputc.obj
 0001:0006e594       __fwrite_nolock            0046f594 f   libucrt:fwrite.obj
 0001:0006e715       _fwrite                    0046f715 f   libucrt:fwrite.obj
 0001:0006e778       _wcsncpy                   0046f778 f   libucrt:wcsncpy.obj
 0001:0006e81f       _atof                      0046f81f f   libucrt:atof.obj
 0001:0006e840       _strpbrk                   0046f840 f   libucrt:strpbrk.obj
 0001:0006e937       _fopen                     0046f937 f   libucrt:fopen.obj
 0001:0006e94e       __fclose_nolock            0046f94e f   libucrt:fclose.obj
 0001:0006e9c5       _fclose                    0046f9c5 f   libucrt:fclose.obj
 0001:0006ea49       _feof                      0046fa49 f   libucrt:feoferr.obj
 0001:0006f062       __ftelli64_nolock          00470062 f   libucrt:ftell.obj
 0001:0006f06d       _ftell                     0047006d f   libucrt:ftell.obj
 0001:0006f078       ?LongLongSub@@YAJ_J0PA_J@Z 00470078 f i libucrt:fseek.obj
 0001:0006f334       _fseek                     00470334 f   libucrt:fseek.obj
 0001:0006f34f       __fread_nolock_s           0047034f f   libucrt:fread.obj
 0001:0006f535       _fread                     00470535 f   libucrt:fread.obj
 0001:0006f552       _fread_s                   00470552 f   libucrt:fread.obj
 0001:0006f5ef       __fgetc_nolock             004705ef f   libucrt:fgetc.obj
 0001:0006f62b       __getc_nolock              0047062b f   libucrt:fgetc.obj
 0001:0006f636       _fgetc                     00470636 f   libucrt:fgetc.obj
 0001:0006f801       _fgets                     00470801 f   libucrt:fgets.obj
 0001:0006f8b2       _fputs                     004708b2 f   libucrt:fputs.obj
 0001:0006f99c       __ctime64                  0047099c f   libucrt:ctime.obj
 0001:0006fa0f       __get_sys_err_msg          00470a0f f i libucrt:perror.obj
 0001:0006fa5b       _perror                    00470a5b f   libucrt:perror.obj
 0001:0006fb01       _malloc                    00470b01 f   libucrt:malloc.obj
 0001:0006fb0c       _free                      00470b0c f   libucrt:free.obj
 0001:0006fb27       _abort                     00470b27 f   libucrt:abort.obj
 0001:0006fb6b       __seh_filter_exe           00470b6b f   libucrt:exception_filter.obj
 0001:0006ff6d       ___acrt_allocate_buffer_for_argv 00470f6d f   libucrt:argv_parsing.obj
 0001:0006ffbc       __configure_narrow_argv    00470fbc f   libucrt:argv_parsing.obj
 0001:000703cc       ??$uninitialize@A6AXAAPAPAD@Z@?$dual_state_global@PAPAD@__crt_state_management@@QAEXA6AXAAPAPAD@Z@Z 004713cc f i libucrt:environment_initialization.obj
 0001:000703cc       ??$uninitialize@A6AXAAPAPA_W@Z@?$dual_state_global@PAPA_W@__crt_state_management@@QAEXA6AXAAPAPA_W@Z@Z 004713cc f i libucrt:environment_initialization.obj
 0001:0007042b       ___dcrt_get_or_create_narrow_environment_nolock 0047142b f   libucrt:environment_initialization.obj
 0001:00070430       ___dcrt_get_or_create_wide_environment_nolock 00471430 f   libucrt:environment_initialization.obj
 0001:00070435       ___dcrt_uninitialize_environments_nolock 00471435 f   libucrt:environment_initialization.obj
 0001:0007046c       __get_initial_narrow_environment 0047146c f   libucrt:environment_initialization.obj
 0001:00070480       __initialize_narrow_environment 00471480 f   libucrt:environment_initialization.obj
 0001:0007073e       __crt_atexit               0047173e f   libucrt:onexit.obj
 0001:00070754       __execute_onexit_table     00471754 f   libucrt:onexit.obj
 0001:00070781       __initialize_onexit_table  00471781 f   libucrt:onexit.obj
 0001:000707aa       __register_onexit_function 004717aa f   libucrt:onexit.obj
 0001:000708d8       ___acrt_initialize         004718d8 f   libucrt:initialization.obj
 0001:000708ea       ___acrt_uninitialize       004718ea f   libucrt:initialization.obj
 0001:0007091a       ___acrt_initialize_new_handler 0047191a f   libucrt:new_handler.obj
 0001:00070929       __callnewh                 00471929 f   libucrt:new_handler.obj
 0001:00070956       __query_new_handler        00471956 f   libucrt:new_handler.obj
 0001:000709b2       _terminate                 004719b2 f   libucrt:terminate.obj
 0001:000709ee       __query_app_type           004719ee f   libucrt:report_runtime_error.obj
 0001:000709f4       __set_app_type             004719f4 f   libucrt:report_runtime_error.obj
 0001:00070a03       ___acrt_has_user_matherr   00471a03 f   libucrt:matherr.obj
 0001:00070a1b       ___acrt_initialize_user_matherr 00471a1b f   libucrt:matherr.obj
 0001:00070a2a       ___acrt_invoke_user_matherr 00471a2a f   libucrt:matherr.obj
 0001:00070a5c       ___setusermatherr          00471a5c f   libucrt:matherr.obj
 0001:00070a71       __initterm                 00471a71 f   libucrt:initterm.obj
 0001:00070ab6       __initterm_e               00471ab6 f   libucrt:initterm.obj
 0001:00070ae4       __get_fmode                00471ae4 f   libucrt:setmode.obj
 0001:00070b11       __set_fmode                00471b11 f   libucrt:setmode.obj
 0001:00070b4e       __setmode_nolock           00471b4e f   libucrt:setmode.obj
 0001:00070c1d       ___acrt_initialize_command_line 00471c1d f   libucrt:argv_data.obj
 0001:00070c36       ___p___argc                00471c36 f   libucrt:argv_data.obj
 0001:00070c3c       ___p___argv                00471c3c f   libucrt:argv_data.obj
 0001:00070cb0       ___acrt_set_locale_changed 00471cb0 f   libucrt:wsetlocale.obj
 0001:00070cbb       ___acrt_uninitialize_locale 00471cbb f   libucrt:wsetlocale.obj
 0001:00070ce2       __configthreadlocale       00471ce2 f   libucrt:wsetlocale.obj
 0001:00070d44       __query_new_mode           00471d44 f   libucrt:new_mode.obj
 0001:00070d4b       __set_new_mode             00471d4b f   libucrt:new_mode.obj
 0001:00070d7a       ___p__commode              00471d7a f   libucrt:ncommode.obj
 0001:00070d80       __controlfp_s              00471d80 f   libucrt:contrlfp.obj
 0001:00070ddf       _strcpy_s                  00471ddf f   libucrt:strcpy_s.obj
 0001:00070e39       _calloc                    00471e39 f   libucrt:calloc.obj
 0001:00070e44       _wcsncmp                   00471e44 f   libucrt:wcsncmp.obj
 0001:00070e7e       ___acrt_call_reportfault   00471e7e f   libucrt:invalid_parameter.obj
 0001:00070fb7       ___acrt_initialize_invalid_parameter_handler 00471fb7 f   libucrt:invalid_parameter.obj
 0001:00070fc6       __invalid_parameter        00471fc6 f   libucrt:invalid_parameter.obj
 0001:0007102a       __invalid_parameter_noinfo 0047202a f   libucrt:invalid_parameter.obj
 0001:0007103a       __invoke_watson            0047203a f   libucrt:invalid_parameter.obj
 0001:0007106e       ___acrt_errno_from_os_error 0047206e f   libucrt:errno.obj
 0001:000710b1       ___acrt_errno_map_os_error 004720b1 f   libucrt:errno.obj
 0001:000710d4       ___doserrno                004720d4 f   libucrt:errno.obj
 0001:000710e7       __errno                    004720e7 f   libucrt:errno.obj
 0001:000710fa       __free_base                004720fa f   libucrt:free_base.obj
 0001:00071134       __malloc_base              00472134 f   libucrt:malloc_base.obj
 0001:00071182       __mbtowc_l                 00472182 f   libucrt:mbtowc.obj
 0001:000712c4       _mbtowc                    004722c4 f   libucrt:mbtowc.obj
 0001:000712de       __wctomb_s_l               004722de f   libucrt:wctomb.obj
 0001:00071439       _strnlen                   00472439 f   libucrt:strnlen.obj
 0001:0007155b       _wcsnlen                   0047255b f   libucrt:strnlen.obj
 0001:00071a49       ___acrt_getptd             00472a49 f   libucrt:per_thread_data.obj
 0001:00071b06       ___acrt_getptd_head        00472b06 f   libucrt:per_thread_data.obj
 0001:00071ba0       ___acrt_getptd_noexit      00472ba0 f   libucrt:per_thread_data.obj
 0001:00071c55       ___acrt_initialize_ptd     00472c55 f   libucrt:per_thread_data.obj
 0001:00071c81       ___acrt_uninitialize_ptd   00472c81 f   libucrt:per_thread_data.obj
 0001:00071c9b       ___acrt_update_locale_info 00472c9b f   libucrt:locale_update.obj
 0001:00071cc8       ___acrt_update_multibyte_info 00472cc8 f   libucrt:locale_update.obj
 0001:00071cf5       ?__acrt_fp_classify@@YA?AW4__acrt_fp_class@@ABN@Z 00472cf5 f i libucrt:cvt.obj
 0001:000726a8       ___acrt_fp_format          004736a8 f   libucrt:cvt.obj
 0001:00072804       __fileno                   00473804 f   libucrt:fileno.obj
 0001:0007282b       __get_printf_count_output  0047382b f   libucrt:printf_count_output.obj
 0001:00072840       ___acrt_should_use_temporary_buffer 00473840 f   libucrt:_sftbuf.obj
 0001:0007287b       ___acrt_stdio_begin_temporary_buffering_nolock 0047387b f   libucrt:_sftbuf.obj
 0001:00072927       ___acrt_stdio_end_temporary_buffering_nolock 00473927 f   libucrt:_sftbuf.obj
 0001:00072acb       ___acrt_initialize_lowio   00473acb f   libucrt:ioinit.obj
 0001:00072b2b       ___acrt_uninitialize_lowio 00473b2b f   libucrt:ioinit.obj
 0001:00072b57       ___libm_error_support      00473b57 f   libucrt:libm_error.obj
 0001:00072d4b       ___acrt_initialize_sse2    00473d4b f   libucrt:mathfcns.obj
 0001:00072d5b       __floor_default            00473d5b f   libucrt:floor.obj
 0001:00072e10       __isctype_l                00473e10 f   libucrt:isctype.obj
 0001:00072f00       __fFATN2                   00473f00 f   libucrt:87triga.obj
 0001:00072f50       __rtpiby2                  00473f50     libucrt:87triga.obj
 0001:00072f60       __rtforatn20               00473f60 f   libucrt:87triga.obj
 0001:00072f90       __rtforatnby0              00473f90 f   libucrt:87triga.obj
 0001:00072fa0       __cintrindisp2             00473fa0 f   libucrt:87cdisp.obj
 0001:00072ff0       __cintrindisp1             00473ff0 f   libucrt:87cdisp.obj
 0001:00073039       __ctrandisp2               00474039 f   libucrt:87cdisp.obj
 0001:000731c8       __ctrandisp1               004741c8 f   libucrt:87cdisp.obj
 0001:000731fb       __fload                    004741fb f   libucrt:87cdisp.obj
 0001:00073240       __CIsin                    00474240 f   libucrt:sin_impl.obj
 0001:0007327b       __CIsin_default            0047427b f   libucrt:sin_impl.obj
 0001:0007328f       __sin_default              0047428f     libucrt:sin_impl.obj
 0001:00073330       __CIsin_pentium4           00474330 f   libucrt:sin_pentium4.obj
 0001:00073348       __sin_pentium4             00474348     libucrt:sin_pentium4.obj
 0001:00073500       __CIcos                    00474500 f   libucrt:cos_impl.obj
 0001:0007353b       __CIcos_default            0047453b f   libucrt:cos_impl.obj
 0001:0007354f       __cos_default              0047454f     libucrt:cos_impl.obj
 0001:000735f0       __CIcos_pentium4           004745f0 f   libucrt:cos_pentium4.obj
 0001:00073608       __cos_pentium4             00474608     libucrt:cos_pentium4.obj
 0001:000737a0       __twoToTOS                 004747a0 f   libucrt:common.obj
 0001:000737b5       __load_CW                  004747b5 f   libucrt:common.obj
 0001:000737cc       __convertTOStoQNaN         004747cc f   libucrt:common.obj
 0001:000737e5       __fload_withFB             004747e5 f   libucrt:common.obj
 0001:00073828       __checkTOS_withFB          00474828 f   libucrt:common.obj
 0001:0007383e       __fast_exit                0047483e f   libucrt:common.obj
 0001:0007384b       __math_exit                0047484b f   libucrt:common.obj
 0001:00073875       __check_overflow_exit      00474875 f   libucrt:common.obj
 0001:00073889       __check_range_exit         00474889 f   libucrt:common.obj
 0001:00073930       __CIsqrt                   00474930 f   libucrt:sqrt_impl.obj
 0001:00073944       __sqrt_common              00474944     libucrt:sqrt_impl.obj
 0001:000739e1       __ceil_default             004749e1 f   libucrt:ceil.obj
 0001:00073a96       ___pctype_func             00474a96 f   libucrt:ctype.obj
 0001:00073aba       _iswctype                  00474aba f   libucrt:iswctype.obj
 0001:00073b23       _fegetround                00474b23 f   libucrt:fegetround.obj
 0001:00073b30       __calloc_base              00474b30 f   libucrt:calloc_base.obj
 0001:00073d73       ___acrt_AppPolicyGetProcessTerminationMethodInternal@4 00474d73 f   libucrt:winapi_thunks.obj
 0001:00073db3       ___acrt_AreFileApisANSI@0  00474db3 f   libucrt:winapi_thunks.obj
 0001:00073dd2       ___acrt_CompareStringEx@36 00474dd2 f   libucrt:winapi_thunks.obj
 0001:00073e2f       ___acrt_FlsAlloc@4         00474e2f f   libucrt:winapi_thunks.obj
 0001:00073e6e       ___acrt_FlsFree@4          00474e6e f   libucrt:winapi_thunks.obj
 0001:00073ead       ___acrt_FlsGetValue@4      00474ead f   libucrt:winapi_thunks.obj
 0001:00073eec       ___acrt_FlsSetValue@8      00474eec f   libucrt:winapi_thunks.obj
 0001:00073f2e       ___acrt_GetDateFormatEx@28 00474f2e f   libucrt:winapi_thunks.obj
 0001:00073f85       ___acrt_GetTimeFormatEx@24 00474f85 f   libucrt:winapi_thunks.obj
 0001:00073fca       ___acrt_InitializeCriticalSectionEx@12 00474fca f   libucrt:winapi_thunks.obj
 0001:00074015       ___acrt_LCMapStringEx@36   00475015 f   libucrt:winapi_thunks.obj
 0001:00074072       ___acrt_LocaleNameToLCID@8 00475072 f   libucrt:winapi_thunks.obj
 0001:000740a3       ___acrt_initialize_winapi_thunks 004750a3 f   libucrt:winapi_thunks.obj
 0001:000740ce       ___acrt_uninitialize_winapi_thunks 004750ce f   libucrt:winapi_thunks.obj
 0001:00074104       __fcloseall                00475104 f   libucrt:closeall.obj
 0001:0007438c       ___acrt_stdio_flush_nolock 0047538c f   libucrt:fflush.obj
 0001:000743f1       __fflush_nolock            004753f1 f   libucrt:fflush.obj
 0001:00074439       __flushall                 00475439 f   libucrt:fflush.obj
 0001:00074442       ___acrt_stdio_free_buffer_nolock 00475442 f   libucrt:_freebuf.obj
 0001:00074490       __CIfmod                   00475490 f   libucrt:87fmod_impl.obj
 0001:000744a0       __fFMOD                    004754a0 f   libucrt:87fmod_impl.obj
 0001:000744b0       __CItan                    004754b0 f   libucrt:tan_impl.obj
 0001:000744eb       __CItan_default            004754eb f   libucrt:tan_impl.obj
 0001:000744ff       __tan_default              004754ff     libucrt:tan_impl.obj
 0001:000745a0       __CItan_pentium4           004755a0 f   libucrt:tan_pentium4.obj
 0001:000745b8       __tan_pentium4             004755b8     libucrt:tan_pentium4.obj
 0001:00074800       __CIasin                   00475800 f   libucrt:asin_impl.obj
 0001:0007483b       __CIasin_default           0047583b f   libucrt:asin_impl.obj
 0001:0007484f       __asin_default             0047584f     libucrt:asin_impl.obj
 0001:00074910       __CIasin_pentium4          00475910 f   libucrt:asin_pentium4.obj
 0001:00074928       __asin_pentium4            00475928     libucrt:asin_pentium4.obj
 0001:00074e90       __CIacos                   00475e90 f   libucrt:acos_impl.obj
 0001:00074ecb       __CIacos_default           00475ecb f   libucrt:acos_impl.obj
 0001:00074edf       __acos_default             00475edf     libucrt:acos_impl.obj
 0001:00074fa0       __CIacos_pentium4          00475fa0 f   libucrt:acos_pentium4.obj
 0001:00074fb8       __acos_pentium4            00475fb8     libucrt:acos_pentium4.obj
 0001:00075500       __CIatan                   00476500 f   libucrt:atan_impl.obj
 0001:0007553b       __CIatan_default           0047653b f   libucrt:atan_impl.obj
 0001:0007554f       __atan_default             0047654f     libucrt:atan_impl.obj
 0001:000755e0       __CIatan_pentium4          004765e0 f   libucrt:atan_pentium4.obj
 0001:000755f8       __atan_pentium4            004765f8     libucrt:atan_pentium4.obj
 0001:000758b0       __CIpow                    004768b0 f   libucrt:pow_impl.obj
 0001:000758eb       __CIpow_default            004768eb f   libucrt:pow_impl.obj
 0001:00075904       __pow_default              00476904     libucrt:pow_impl.obj
 0001:00075b00       __CIpow_pentium4           00476b00 f   libucrt:pow_pentium4.obj
 0001:00075b19       __pow_pentium4             00476b19     libucrt:pow_pentium4.obj
 0001:00076620       __CIlog                    00477620 f   libucrt:log_impl.obj
 0001:0007665b       __CIlog_default            0047765b f   libucrt:log_impl.obj
 0001:0007666f       __log_default              0047766f     libucrt:log_impl.obj
 0001:00076730       __CIlog_pentium4           00477730 f   libucrt:log_pentium4.obj
 0001:00076748       __log_pentium4             00477748     libucrt:log_pentium4.obj
 0001:000769a0       __CIlog10                  004779a0 f   libucrt:log10_impl.obj
 0001:000769db       __CIlog10_default          004779db f   libucrt:log10_impl.obj
 0001:000769ef       __log10_default            004779ef     libucrt:log10_impl.obj
 0001:00076ab0       __CIlog10_pentium4         00477ab0 f   libucrt:log10_pentium4.obj
 0001:00076ac8       __log10_pentium4           00477ac8     libucrt:log10_pentium4.obj
 0001:00076d40       __CIexp                    00477d40 f   libucrt:87ctran.obj
 0001:00076d7b       __exp_default              00477d7b f   libucrt:87ctran.obj
 0001:00076d85       __CIexp_default            00477d85 f   libucrt:87ctran.obj
 0001:00076d90       __CIexp_pentium4           00477d90 f   libucrt:exp_pentium4.obj
 0001:00076da8       __exp_pentium4             00477da8     libucrt:exp_pentium4.obj
 0001:00077050       ___acrt_initialize_locks   00478050 f   libucrt:locks.obj
 0001:00077091       ___acrt_lock               00478091 f   libucrt:locks.obj
 0001:000770a8       ___acrt_uninitialize_locks 004780a8 f   libucrt:locks.obj
 0001:000770d9       ___acrt_unlock             004780d9 f   libucrt:locks.obj
 0001:000770f0       ___acrt_get_process_end_policy 004780f0 f   libucrt:win_policies.obj
 0001:00077121       ___acrt_MultiByteToWideChar 00478121 f   libucrt:multibytetowidechar.obj
 0001:0007719d       __wremove                  0047819d f   libucrt:wunlink.obj
 0001:000771c5       __wrename                  004781c5 f   libucrt:wrename.obj
 0001:000771f2       ___acrt_initialize_timeset 004781f2 f   libucrt:timeset.obj
 0001:00077227       ___daylight                00478227 f   libucrt:timeset.obj
 0001:0007722d       ___dstbias                 0047822d f   libucrt:timeset.obj
 0001:00077233       ___timezone                00478233 f   libucrt:timeset.obj
 0001:00077239       ___tzname                  00478239 f   libucrt:timeset.obj
 0001:0007723f       ___wide_tzname             0047823f f   libucrt:timeset.obj
 0001:00077245       __get_daylight             00478245 f   libucrt:timeset.obj
 0001:00077271       __get_dstbias              00478271 f   libucrt:timeset.obj
 0001:0007729d       __get_timezone             0047829d f   libucrt:timeset.obj
 0001:000772c9       ??$__crt_time_elapsed_leap_years@H@@YAHH@Z 004782c9 f i libucrt:gmtime.obj
 0001:00077303       ??$__crt_time_is_leap_year@H@@YA_NH@Z 00478303 f i libucrt:gmtime.obj
 0001:00077548       ___getgmtimebuf            00478548 f   libucrt:gmtime.obj
 0001:00077586       __gmtime64_s               00478586 f   libucrt:gmtime.obj
 0001:00077e54       ___tzset                   00478e54 f   libucrt:tzset.obj
 0001:00077eb1       __isindst                  00478eb1 f   libucrt:tzset.obj
 0001:00077f05       ___acrt_WideCharToMultiByte 00478f05 f   libucrt:widechartomultibyte.obj
 0001:00079000       __Wcsftime_l               0047a000 f   libucrt:wcsftime.obj
 0001:00079171       __freea_crt                0047a171 f i libucrt:wcsftime.obj
 0001:00079191       __isleadbyte_l             0047a191 f i libucrt:_wctype.obj
 0001:000793b5       ___acrt_LCMapStringA       0047a3b5 f   libucrt:lcmapstringa.obj
 0001:0007963f       ___acrt_stdio_flush_and_write_narrow_nolock 0047a63f f   libucrt:_flsbuf.obj
 0001:00079dc5       __write                    0047adc5 f   libucrt:write.obj
 0001:00079eb7       __write_nolock             0047aeb7 f   libucrt:write.obj
 0001:0007a091       ?__acrt_stdio_allocate_stream@@YA?AV__crt_stdio_stream@@XZ 0047b091 f   libucrt:stream.obj
 0001:0007a0fa       ?__acrt_stdio_free_stream@@YAXV__crt_stdio_stream@@@Z 0047b0fa f   libucrt:stream.obj
 0001:0007a1f7       ??$__acrt_stdio_parse_mode@D@@YA?AU__acrt_stdio_stream_mode@@QBD@Z 0047b1f7 f i libucrt:openfile.obj
 0001:0007a4a4       ?__acrt_stdio_parse_mode_D@@YA_NAAU__acrt_stdio_stream_mode@@@Z 0047b4a4 f i libucrt:openfile.obj
 0001:0007a4bf       ?__acrt_stdio_parse_mode_T@@YA_NAAU__acrt_stdio_stream_mode@@@Z 0047b4bf f i libucrt:openfile.obj
 0001:0007a4de       ?__acrt_stdio_parse_mode_b@@YA_NAAU__acrt_stdio_stream_mode@@@Z 0047b4de f i libucrt:openfile.obj
 0001:0007a4fe       ?__acrt_stdio_parse_mode_c@@YA_NAAU__acrt_stdio_stream_mode@@AA_N@Z 0047b4fe f i libucrt:openfile.obj
 0001:0007a520       ?__acrt_stdio_parse_mode_n@@YA_NAAU__acrt_stdio_stream_mode@@AA_N@Z 0047b520 f i libucrt:openfile.obj
 0001:0007a542       ?__acrt_stdio_parse_mode_plus@@YA_NAAU__acrt_stdio_stream_mode@@AA_N@Z 0047b542 f i libucrt:openfile.obj
 0001:0007a578       ?__acrt_stdio_parse_mode_t@@YA_NAAU__acrt_stdio_stream_mode@@@Z 0047b578 f i libucrt:openfile.obj
 0001:0007a598       ?__acrt_stdio_parse_mode_x@@YA_NAAU__acrt_stdio_stream_mode@@@Z 0047b598 f i libucrt:openfile.obj
 0001:0007a5b8       __openfile                 0047b5b8 f   libucrt:openfile.obj
 0001:0007a64f       __close                    0047b64f f   libucrt:close.obj
 0001:0007a6dc       __close_nolock             0047b6dc f   libucrt:close.obj
 0001:0007a900       __lseeki64                 0047b900 f   libucrt:lseek.obj
 0001:0007a91b       __lseeki64_nolock          0047b91b f   libucrt:lseek.obj
 0001:0007ae0b       __read                     0047be0b f   libucrt:read.obj
 0001:0007af1f       __read_nolock              0047bf1f f   libucrt:read.obj
 0001:0007b459       ___acrt_stdio_refill_and_read_narrow_nolock 0047c459 f   libucrt:_filbuf.obj
 0001:0007b60e       ?__crt_time_is_day_valid@@YA_NHHH@Z 0047c60e f i libucrt:asctime.obj
 0001:0007b651       _asctime                   0047c651 f   libucrt:asctime.obj
 0001:0007b6a7       ___sys_errlist             0047c6a7 f   libucrt:syserr.obj
 0001:0007b6ad       ___sys_nerr                0047c6ad f   libucrt:syserr.obj
 0001:0007b6b3       ___acrt_lowio_create_handle_array 0047c6b3 f   libucrt:osfinfo.obj
 0001:0007b72e       ___acrt_lowio_destroy_handle_array 0047c72e f   libucrt:osfinfo.obj
 0001:0007b763       ___acrt_lowio_ensure_fh_exists 0047c763 f   libucrt:osfinfo.obj
 0001:0007b801       ___acrt_lowio_lock_fh      0047c801 f   libucrt:osfinfo.obj
 0001:0007b824       ___acrt_lowio_set_os_handle 0047c824 f   libucrt:osfinfo.obj
 0001:0007b8b6       ___acrt_lowio_unlock_fh    0047c8b6 f   libucrt:osfinfo.obj
 0001:0007b8d9       __alloc_osfhnd             0047c8d9 f   libucrt:osfinfo.obj
 0001:0007b9ec       __free_osfhnd              0047c9ec f   libucrt:osfinfo.obj
 0001:0007ba7d       __get_osfhandle            0047ca7d f   libucrt:osfinfo.obj
 0001:0007bbb5       ___acrt_get_sigabrt_handler 0047cbb5 f   libucrt:signal.obj
 0001:0007bbdc       ___acrt_initialize_signal_handlers 0047cbdc f   libucrt:signal.obj
 0001:0007bbfa       _raise                     0047cbfa f   libucrt:signal.obj
 0001:0007c3cb       ?allocate@?$__crt_win32_buffer@DU__crt_win32_buffer_internal_dynamic_resizing@@@@QAEHI@Z 0047d3cb f i libucrt:argv_wildcards.obj
 0001:0007c48e       ___acrt_expand_narrow_argv_wildcards 0047d48e f   libucrt:argv_wildcards.obj
 0001:0007c499       ___acrt_GetModuleFileNameA 0047d499 f   libucrt:getmodulefilenamea.obj
 0001:0007ca52       ___acrt_initialize_multibyte 0047da52 f   libucrt:mbctype.obj
 0001:0007ca9a       ___acrt_update_thread_multibyte_data 0047da9a f   libucrt:mbctype.obj
 0001:0007caad       __setmbcp_nolock           0047daad f   libucrt:mbctype.obj
 0001:0007ccf7       __ismbblead                0047dcf7 f   libucrt:ismbbyte.obj
 0001:0007cd0f       _wcscpy_s                  0047dd0f f   libucrt:wcscpy_s.obj
 0001:0007cdaa       ___dcrt_get_narrow_environment_from_os 0047ddaa f   libucrt:get_environment_from_os.obj
 0001:0007ce2e       ___dcrt_get_wide_environment_from_os 0047de2e f   libucrt:get_environment_from_os.obj
 0001:0007d55e       ___dcrt_set_variable_in_narrow_environment_nolock 0047e55e f   libucrt:setenv.obj
 0001:0007d569       ___dcrt_set_variable_in_wide_environment_nolock 0047e569 f   libucrt:setenv.obj
 0001:0007d574       __recalloc_base            0047e574 f   libucrt:recalloc.obj
 0001:0007d5e1       ___acrt_initialize_heap    0047e5e1 f   libucrt:heap_handle.obj
 0001:0007d5f2       ___acrt_uninitialize_heap  0047e5f2 f   libucrt:heap_handle.obj
 0001:0007d5fc       ___acrt_execute_initializers 0047e5fc f   libucrt:shared_initialization.obj
 0001:0007d664       ___acrt_execute_uninitializers 0047e664 f   libucrt:shared_initialization.obj
 0001:0007d760       _wcsncpy_s                 0047e760 f   libucrt:wcsncpy_s.obj
 0001:0007d76b       ___acrt_initialize_fmode   0047e76b f   libucrt:txtmode.obj
 0001:0007d781       ____lc_codepage_func       0047e781 f   libucrt:initctype.obj
 0001:0007d7a6       ___acrt_locale_free_monetary 0047e7a6 f   libucrt:initmon.obj
 0001:0007d8a4       ___acrt_locale_free_numeric 0047e8a4 f   libucrt:initnum.obj
 0001:0007d945       ___acrt_locale_free_time   0047e945 f   libucrt:inittime.obj
 0001:0007da29       ___acrt_GetStringTypeA     0047ea29 f   libucrt:getstringtypea.obj
 0001:0007db2c       ___acrt_add_locale_ref     0047eb2c f   libucrt:locale_refcounting.obj
 0001:0007dba9       ___acrt_free_locale        0047eba9 f   libucrt:locale_refcounting.obj
 0001:0007dcf1       ___acrt_locale_add_lc_time_reference 0047ecf1 f   libucrt:locale_refcounting.obj
 0001:0007dd1a       ___acrt_locale_free_lc_time_if_unreferenced 0047ed1a f   libucrt:locale_refcounting.obj
 0001:0007dd4b       ___acrt_locale_release_lc_time_reference 0047ed4b f   libucrt:locale_refcounting.obj
 0001:0007dd74       ___acrt_release_locale_ref 0047ed74 f   libucrt:locale_refcounting.obj
 0001:0007ddf5       ___acrt_update_thread_locale_data 0047edf5 f   libucrt:locale_refcounting.obj
 0001:0007de76       __updatetlocinfoEx_nolock  0047ee76 f   libucrt:locale_refcounting.obj
 0001:0007df6d       __clearfp                  0047ef6d f   libucrt:ieee87.obj
 0001:0007e04b       __control87                0047f04b f   libucrt:ieee87.obj
 0001:0007e416       ?__mbrtowc_utf8@__crt_mbstring@@YAIPA_WPBDIPAU_Mbstatet@@@Z 0047f416 f   libucrt:mbrtowc.obj
 0001:0007e456       ?__mbsrtowcs_utf8@__crt_mbstring@@YAIPA_WPAPBDIPAU_Mbstatet@@@Z 0047f456 f   libucrt:mbrtowc.obj
 0001:0007e551       ?__c32rtomb_utf8@__crt_mbstring@@YAIPAD_UPAU_Mbstatet@@@Z 0047f551 f   libucrt:c32rtomb.obj
 0001:0007e5fc       ?return_illegal_sequence@__crt_mbstring@@YAIPAU_Mbstatet@@@Z 0047f5fc f i libucrt:c32rtomb.obj
 0001:0007e695       ___acrt_fp_strflt_to_string 0047f695 f   libucrt:_fptostr.obj
 0001:0007e771       ___acrt_fltout             0047f771 f   libucrt:cfout.obj
 0001:0007fc78       __isatty                   00480c78 f   libucrt:isatty.obj
 0001:0007fcce       __frnd                     00480cce f   libucrt:frnd.obj
 0001:0007fce2       __errcode                  00480ce2 f   libucrt:fpexcept.obj
 0001:0007fd16       __except1                  00480d16 f   libucrt:fpexcept.obj
 0001:0007fde4       __handle_exc               00480de4 f   libucrt:fpexcept.obj
 0001:0007ffcf       __raise_exc                00480fcf f   libucrt:fpexcept.obj
 0001:0007fff2       __raise_exc_ex             00480ff2 f   libucrt:fpexcept.obj
 0001:000802e8       __set_errno_from_matherr   004812e8 f   libucrt:fpexcept.obj
 0001:00080317       __umatherr                 00481317 f   libucrt:fpexcept.obj
 0001:000803b7       __decomp                   004813b7 f   libucrt:util.obj
 0001:00080489       __set_exp                  00481489 f   libucrt:util.obj
 0001:000804b6       __sptype                   004814b6 f   libucrt:util.obj
 0001:00080514       ___set_fpsr_sse2           00481514 f   libucrt:fpctrl.obj
 0001:00080594       __clrfp                    00481594 f   libucrt:fpctrl.obj
 0001:000805a5       __ctrlfp                   004815a5 f   libucrt:fpctrl.obj
 0001:000805cf       __set_statfp               004815cf f   libucrt:fpctrl.obj
 0001:00080628       __statfp                   00481628 f   libucrt:fpctrl.obj
 0001:00080640       __trandisp1                00481640 f   libucrt:87disp.obj
 0001:000806b5       __trandisp2                004816b5 f   libucrt:87disp.obj
 0001:0008074f       __rttospopde               0048174f     libucrt:87disp.obj
 0001:00080754       __rttospop                 00481754     libucrt:87disp.obj
 0001:00080760       __rtnospop                 00481760 f   libucrt:87disp.obj
 0001:00080770       __rttosnpop                00481770 f   libucrt:87disp.obj
 0001:00080771       __rtnospopde               00481771     libucrt:87disp.obj
 0001:00080778       __rtzeropop                00481778     libucrt:87disp.obj
 0001:0008077a       __rtzeronpop               0048177a     libucrt:87disp.obj
 0001:00080780       __rtzerospop               00481780 f   libucrt:87disp.obj
 0001:0008078d       __rtonepop                 0048178d     libucrt:87disp.obj
 0001:00080790       __rtonenpop                00481790 f   libucrt:87disp.obj
 0001:000807a0       __tosnan1                  004817a0 f   libucrt:87disp.obj
 0001:000807d0       __nosnan2                  004817d0 f   libucrt:87disp.obj
 0001:000807e0       __tosnan2                  004817e0 f   libucrt:87disp.obj
 0001:00080810       __nan2                     00481810 f   libucrt:87disp.obj
 0001:00080850       __rtindfpop                00481850 f   libucrt:87disp.obj
 0001:00080852       __rtindfnpop               00481852     libucrt:87disp.obj
 0001:00080863       __rttosnpopde              00481863     libucrt:87disp.obj
 0001:00080870       __rtatan2inf               00481870 f   libucrt:87disp.obj
 0001:0008088d       __rtchsifneg               0048188d     libucrt:87disp.obj
 0001:00080894       __87except                 00481894 f   libucrt:87except.obj
 0001:000809a0       __startTwoArgErrorHandling 004819a0 f   libucrt:genexcep.obj
 0001:000809b7       __startOneArgErrorHandling 004819b7 f   libucrt:genexcep.obj
 0001:000809f3       ___acrt_GetStringTypeW     004819f3 f   libucrt:getstringtypew.obj
 0001:00080d29       ___acrt_fenv_get_common_round_control 00481d29 f   libucrt:_fenvutils.obj
 0001:00080d4b       ___acrt_fenv_get_control   00481d4b f   libucrt:_fenvutils.obj
 0001:00080dcb       ___acrt_fenv_get_status    00481dcb f   libucrt:_fenvutils.obj
 0001:00080e83       ___acrt_fenv_set_control   00481e83 f   libucrt:_fenvutils.obj
 0001:00080eeb       ___acrt_fenv_set_status    00481eeb f   libucrt:_fenvutils.obj
 0001:00081032       ___acrt_DownlevelLocaleNameToLCID 00482032 f   libucrt:lcidtoname_downlevel.obj
 0001:00081100       __commit                   00482100 f   libucrt:commit.obj
 0001:000811a0       __fFEXP                    004821a0 f   libucrt:87tran.obj
 0001:000811f7       __rtinfpopse               004821f7     libucrt:87tran.obj
 0001:000811f9       __rtinfnpopse              004821f9     libucrt:87tran.obj
 0001:00081209       __fFLN                     00482209     libucrt:87tran.obj
 0001:000812be       __rtinfpop                 004822be     libucrt:87tran.obj
 0001:000812c0       __rtinfnpop                004822c0     libucrt:87tran.obj
 0001:000812d0       __rtforexpinf              004822d0 f   libucrt:87tran.obj
 0001:000812dd       __ffexpm1                  004822dd     libucrt:87tran.obj
 0001:00081386       __d_inttype                00482386 f   libucrt:powhlp.obj
 0001:000813ee       __powhlp                   004823ee f   libucrt:powhlp.obj
 0001:000816b3       __wgetenv_s                004826b3 f   libucrt:getenv.obj
 0001:000816be       ___ascii_wcsicmp           004826be f   libucrt:wcsicmp.obj
 0001:000816fb       __towlower_internal        004826fb f i libucrt:wcsicmp.obj
 0001:0008173a       __wcsicmp                  0048273a f   libucrt:wcsicmp.obj
 0001:00081783       __wcsicmp_l                00482783 f   libucrt:wcsicmp.obj
 0001:0008183b       ___strncnt                 0048283b f   libucrt:strncnt.obj
 0001:00081857       ___acrt_stdio_allocate_buffer_nolock 00482857 f   libucrt:_getbuf.obj
 0001:000818b3       __putwch_nolock            004828b3 f   libucrt:putwch.obj
 0001:000818e5       ___ascii_wcsnicmp          004828e5 f   libucrt:wcsnicmp.obj
 0001:00081934       __strnicmp                 00482934 f   libucrt:strnicmp.obj
 0001:000819a1       __strnicmp_l               004829a1 f   libucrt:strnicmp.obj
 0001:00082037       __sopen_nolock             00483037 f   libucrt:open.obj
 0001:000820a5       __sopen_s                  004830a5 f   libucrt:open.obj
 0001:000820c5       __wsopen_nolock            004830c5 f   libucrt:open.obj
 0001:000824a2       _strncpy_s                 004834a2 f   libucrt:strncpy_s.obj
 0001:000824ad       __mbsdec                   004834ad f   libucrt:mbsdec.obj
 0001:000824c4       __mbsdec_l                 004834c4 f   libucrt:mbsdec.obj
 0001:00082560       __wcsnicoll                00483560 f   libucrt:wcsnicol.obj
 0001:000825cd       __wcsnicoll_l              004835cd f   libucrt:wcsnicol.obj
 0001:0008268d       __strnicoll                0048368d f   libucrt:strnicol.obj
 0001:000826b6       __strnicoll_l              004836b6 f   libucrt:strnicol.obj
 0001:0008277e       ___acrt_SetEnvironmentVariableA 0048377e f   libucrt:setenvironmentvariablea.obj
 0001:00082813       __msize_base               00483813 f   libucrt:msize.obj
 0001:00082846       __realloc_base             00483846 f   libucrt:realloc_base.obj
 0001:000828af       ?__mbrtoc32_utf8@__crt_mbstring@@YAIPA_UPBDIPAU_Mbstatet@@@Z 004838af f   libucrt:mbrtoc32.obj
 0001:00082a56       _fegetenv                  00483a56 f   libucrt:fegetenv.obj
 0001:00082a73       _fesetenv                  00483a73 f   libucrt:fesetenv.obj
 0001:00082abe       _feholdexcept              00483abe f   libucrt:feholdexcept.obj
 0001:00082b0b       __fpclass                  00483b0b f   libucrt:ieeemisc.obj
 0001:00082baf       __towlower_l               00483baf f   libucrt:towlower.obj
 0001:00082c70       ___dcrt_lowio_ensure_console_output_initialized 00483c70 f   libucrt:initcon.obj
 0001:00082c8f       ___dcrt_terminate_console_output 00483c8f f   libucrt:initcon.obj
 0001:00082ca6       ___dcrt_write_console      00483ca6 f   libucrt:initcon.obj
 0001:00082d00       ___ascii_strnicmp          00483d00 f   libucrt:_strnicm.obj
 0001:00082d61       ??0__crt_seek_guard@@QAE@H_J@Z 00483d61 f i libucrt:chsize.obj
 0001:00082dae       __chsize_nolock            00483dae f   libucrt:chsize.obj
 0001:00082f1e       ___acrt_CompareStringW     00483f1e f   libucrt:comparestringw.obj
 0001:0008320e       ___acrt_CompareStringA     0048420e f   libucrt:comparestringa.obj
 0001:00083254       ___acrt_LCMapStringW       00484254 f   libucrt:lcmapstringw.obj
 0001:000832a0       __FindPESection            004842a0 f   LIBCMT:pesect.obj
 0001:000832f0       __IsNonwritableInCurrentImage 004842f0 f   LIBCMT:pesect.obj
 0001:000833b0       __ValidateImageBase        004843b0 f   LIBCMT:pesect.obj
 0001:000833e1       __EH_prolog3_catch         004843e1 f   LIBCMT:ehprolg3.obj
 0001:00083420       __aulldiv                  00484420 f   LIBCMT:ulldiv.obj
 0001:00083490       __aulldvrm                 00484490 f   LIBCMT:ulldvrm.obj
 0001:00083530       __allmul                   00484530 f   LIBCMT:llmul.obj
 0001:00083570       __allshl                   00484570 f   LIBCMT:llshl.obj
 0001:00083590       __aullshr                  00484590 f   LIBCMT:ullshr.obj
 0001:000835b0       __alldiv                   004845b0 f   LIBCMT:lldiv.obj
 0001:00083660       __alldvrm                  00484660 f   LIBCMT:lldvrm.obj
 0001:00083740       __allrem                   00484740 f   LIBCMT:llrem.obj
 0001:00083800       __alloca_probe             00484800 f   LIBCMT:chkstk.obj
 0001:00083800       __chkstk                   00484800 f   LIBCMT:chkstk.obj
 0001:00083830       __alloca_probe_16          00484830 f   LIBCMT:alloca16.obj
 0001:00083846       __alloca_probe_8           00484846     LIBCMT:alloca16.obj
 0001:00083860       __ftol2_sse                00484860 f   LIBCMT:ftol2.obj
 0001:00083870       __ftoi2                    00484870 f   LIBCMT:ftol2.obj
 0001:000838ec       _wcschr                    004848ec f   libvcruntime:wcschr.obj
 0001:0008399c       __filter_x86_sse2_floating_point_exception 0048499c f   LIBCMT:x86_exception_filter.obj
 0001:0008399c       __filter_x86_sse2_floating_point_exception_default 0048499c f   LIBCMT:x86_exception_filter.obj
 0001:00083a58       ?consolebox@@YAXHHHH@Z     00484a58 f   3dgui.obj
 0001:00083bc0       ?g3d_render@@YAXXZ         00484bc0 f   3dgui.obj
 0001:00083eb8       ?g3d_windowhit@@YA_N_N0@Z  00484eb8 f   3dgui.obj
 0001:00083f42       ?g3d_sort@@YAHPAUgui@@0@Z  00484f42 f   3dgui.obj
 0001:00083f5d       ?g3d_limitscale@@YAXM@Z    00484f5d f   3dgui.obj
 0001:00083f66       ?g3d_addgui@@YAXPAUg3d_callback@@AAUvec@@H@Z 00484f66 f   3dgui.obj
 0001:0008406b       ?g3d_movecursor@@YA_NHH@Z  0048506b f   3dgui.obj
 0001:00084115       ?g3d_resetcursor@@YAXXZ    00485115 f   3dgui.obj
 0001:0008412a       ?g3d_cursorpos@@YAXAAM0@Z  0048512a f   3dgui.obj
 0001:00084159       ?menukey@@YA_NH_NH@Z       00485159 f   3dgui.obj
 0001:000845d0       ?run@?$_icmd_textexec@$0COK@@@SAXPAH@Z 004855d0 f   3dgui.obj
 0001:00084603       ?run@?$_icmd_textcurrentline@$0COE@@@SAXXZ 00485603 f   3dgui.obj
 0001:0008461c       ?run@?$_icmd_textclear@$0COD@@@SAXXZ 0048561c f   3dgui.obj
 0001:00084632       ?run@?$_icmd_textselectall@$0COC@@@SAXXZ 00485632 f   3dgui.obj
 0001:0008464f       ?run@?$_icmd_textmark@$0COB@@@SAXPAH@Z 0048564f f   3dgui.obj
 0001:000846aa       ?run@?$_icmd_textpaste@$0CNN@@@SAXXZ 004856aa f   3dgui.obj
 0001:000846d3       ?run@?$_icmd_textcopy@$0CNM@@@SAXXZ 004856d3 f   3dgui.obj
 0001:000846fc       ?run@?$_icmd_textinit@$0CNI@@@SAXPAD00@Z 004856fc f   3dgui.obj
 0001:0008479a       ?run@?$_icmd_textload@$0CMO@@@SAXPAD@Z 0048579a f   3dgui.obj
 0001:000847d5       ?run@?$_icmd_textsave@$0CMG@@@SAXPAD@Z 004857d5 f   3dgui.obj
 0001:00084801       ?run@?$_icmd_textmode@$0CMC@@@SAXPAH@Z 00485801 f   3dgui.obj
 0001:0008484a       ?run@?$_icmd_textprev@$0CLK@@@SAXXZ 0048584a f   3dgui.obj
 0001:0008486c       ?run@?$_icmd_textfocus@$0CLJ@@@SAXPADPAH@Z 0048586c f   3dgui.obj
 0001:000848ac       ?run@?$_icmd_textshow@$0CLF@@@SAXXZ 004858ac f   3dgui.obj
 0001:000848ec       ?run@?$_icmd_textlist@$0CKP@@@SAXXZ 004858ec f   3dgui.obj
 0001:00084b19       ?mmintersect@@YA_NABUextentity@@ABUvec@@1MHAAM@Z 00485b19 f   bih.obj
 0001:00084ddf       ??0BIH@@QAE@PAU?$vector@Utri@BIH@@@@@Z 00485ddf f   bih.obj
 0001:0008509a       ?build@BIH@@QAEXAAU?$vector@UBIHNode@@@@PAGHABUvec@@2H@Z 0048609a f   bih.obj
 0001:00085a0c       ?triintersect@BIH@@SA_NAAUtri@1@ABUvec@@1MAAMHPAU21@@Z 00486a0c f   bih.obj
 0001:00085d38       ?shouldsaveblendmap@@YAEXZ 00486d38 f   blend.obj
 0001:00085d46       ?saveblendmap@@YAXPAUstream@@@Z 00486d46 f   blend.obj
 0001:00085d58       ?saveblendmap@@YAXPAUstream@@EAAUBlendMapNode@@@Z 00486d58 f   blend.obj
 0001:00085dbf       ?loadblendmap@@YA_NPAUstream@@H@Z 00486dbf f   blend.obj
 0001:00085ddb       ?loadblendmap@@YA_NPAUstream@@AAEAAUBlendMapNode@@@Z 00486ddb f   blend.obj
 0001:00085e9b       ?renderblendbrush@@YAXXZ   00486e9b f   blend.obj
 0001:00086001       ?run@?$_icmd_clearblendmap@$0COD@@@SAXXZ 00487001 f   blend.obj
 0001:0008602d       ?showblendmap@@YAXXZ       0048702d f   blend.obj
 0001:0008607a       ?invertblendmap@@YAXXZ     0048707a f   blend.obj
 0001:000860db       ?invertblendmapsel@@YAXXZ  004870db f   blend.obj
 0001:00086199       ?clearblendmapsel@@YAXXZ   00487199 f   blend.obj
 0001:00086259       ?run@?$_icmd_paintblendmap@$0CKP@@@SAXPAH@Z 00487259 f   blend.obj
 0001:0008628a       ?trypaintblendmap@@YAXXZ   0048728a f   blend.obj
 0001:000862e0       ?stoppaintblendmap@@YAXXZ  004872e0 f   blend.obj
 0001:000862ef       ?paintblendmap@@YAX_N@Z    004872ef f   blend.obj
 0001:0008641e       ?rotateblendbrush@@YAXPAH@Z 0048741e f   blend.obj
 0001:00086489       ?canpaintblendmap@@YA_N_N00@Z 00487489 f   blend.obj
 0001:000864ef       ?curblendbrush@@YAXXZ      004874ef f   blend.obj
 0001:000864fa       ?getblendbrushname@@YAXPAH@Z 004874fa f   blend.obj
 0001:00086525       ?setblendbrush@@YAXPBD@Z   00487525 f   blend.obj
 0001:0008655c       ?nextblendbrush@@YAXPAH@Z  0048755c f   blend.obj
 0001:000865a2       ?addblendbrush@@YAXPBD0@Z  004875a2 f   blend.obj
 0001:00086702       ?delblendbrush@@YAXPBD@Z   00487702 f   blend.obj
 0001:0008679d       ?clearblendbrushes@@YAXXZ  0048779d f   blend.obj
 0001:000867df       ?cleanupblendmap@@YAXXZ    004877df f   blend.obj
 0001:00086817       ?shrinkblendmap@@YAXH@Z    00487817 f   blend.obj
 0001:00086858       ?enlargeblendmap@@YAXXZ    00487858 f   blend.obj
 0001:000868a0       ?resetblendmap@@YAXXZ      004878a0 f   blend.obj
 0001:000868c4       ?blitblendmap@@YAXPAEHHHH@Z 004878c4 f   blend.obj
 0001:00086c71       ?var_blendpaintmode@@YAXXZ 00487c71 f   blend.obj
 0001:00086c89       ?optimizeblendmap@@YAXXZ   00487c89 f   blend.obj
 0001:00086d76       ?invertblendmap@@YAXHHHH@Z 00487d76 f   blend.obj
 0001:00086f94       ?fillblendmap@@YAXHHHHE@Z  00487f94 f   blend.obj
 0001:0008728b       ?lookupblendmap@@YAEPAUBlendMapCache@@ABUvec@@@Z 0048828b f   blend.obj
 0001:000874cc       ?hasblendmap@@YA_NPAUBlendMapCache@@@Z 004884cc f   blend.obj
 0001:000874d6       ?setblendmaporigin@@YA_NPAUBlendMapCache@@ABUivec@@H@Z 004884d6 f   blend.obj
 0001:0008763d       ?freeblendmapcache@@YAXAAPAUBlendMapCache@@@Z 0048863d f   blend.obj
 0001:00087650       ?newblendmapcache@@YAPAUBlendMapCache@@XZ 00488650 f   blend.obj
 0001:00087684       ?shrink@BlendMapBranch@@QAEEAAUBlendMapNode@@H@Z 00488684 f   blend.obj
 0001:000876cc       ?splitsolid@BlendMapNode@@QAEXAAEE@Z 004886cc f   blend.obj
 0001:0008770f       ?cleanup@BlendMapNode@@QAEXH@Z 0048870f f   blend.obj
 0001:000877fc       ?flushblobs@@YAXXZ         004887fc f   blob.obj
 0001:00087847       ?renderblob@@YAXHABUvec@@MM@Z 00488847 f   blob.obj
 0001:000878ac       ?resetblobs@@YAXXZ         004888ac f   blob.obj
 0001:000878b7       ?initblobs@@YAXH@Z         004888b7 f   blob.obj
 0001:00087911       ?var_blobdyntris@@YAXXZ    00488911 f   blob.obj
 0001:00087919       ?var_blobstattris@@YAXXZ   00488919 f   blob.obj
 0001:00087920       ?var_blobmargin@@YAXXZ     00488920 f   blob.obj
 0001:0008792b       ?var_blobfadehigh@@YAXXZ   0048892b f   blob.obj
 0001:00087936       ?var_blobfadelow@@YAXXZ    00488936 f   blob.obj
 0001:00087941       ?var_blobheight@@YAXXZ     00488941 f   blob.obj
 0001:0008794c       ?var_blobintensity@@YAXXZ  0048894c f   blob.obj
 0001:00087957       ?gets2c@@YAXXZ             00488957 f   client.obj
 0001:00087acc       ?clientkeepalive@@YAXXZ    00488acc f   client.obj
 0001:00087ae3       ?localservertoclient@@YAXHPAU_ENetPacket@@@Z 00488ae3 f   client.obj
 0001:00087b4c       ?neterr@@YAXPBD_N@Z        00488b4c f   client.obj
 0001:00087b6e       ?flushclient@@YAXXZ        00488b6e f   client.obj
 0001:00087b7f       ?sendclientpacket@@YAXPAU_ENetPacket@@H@Z 00488b7f f   client.obj
 0001:00087bab       ?run@?$_icmd_localdisconnect@$0LH@@@SAXXZ 00488bab f   client.obj
 0001:00087bbc       ?run@?$_icmd_localconnect@$0LG@@@SAXXZ 00488bbc f   client.obj
 0001:00087bd5       ?run@?$_icmd_lanconnect@$0LD@@@SAXPAHPAD@Z 00488bd5 f   client.obj
 0001:00087be8       ?run@?$_icmd_connect@$0LC@@@SAXPADPAH0@Z 00488be8 f   client.obj
 0001:00087bfd       ?trydisconnect@@YAXXZ      00488bfd f   client.obj
 0001:00087c47       ?disconnect@@YAX_N0@Z      00488c47 f   client.obj
 0001:00087cdd       ?reconnect@@YAXPBD@Z       00488cdd f   client.obj
 0001:00087d05       ?connectserv@@YAXPBDH0@Z   00488d05 f   client.obj
 0001:00087e81       ?abortconnect@@YAXXZ       00488e81 f   client.obj
 0001:00087ec5       ?run@?$_icmd_connectedport@$0DM@@@SAXXZ 00488ec5 f   client.obj
 0001:00087ee4       ?run@?$_icmd_connectedip@$0DG@@@SAXXZ 00488ee4 f   client.obj
 0001:00087f2b       ?connectedpeer@@YAPBU_ENetAddress@@XZ 00488f2b f   client.obj
 0001:00087f3a       ?run@?$_icmd_isconnected@$0CK@@@SAXPAH@Z 00488f3a f   client.obj
 0001:00087f51       ?isconnected@@YA_N_N@Z     00488f51 f   client.obj
 0001:00087f6d       ?throttle@@YAXXZ           00488f6d f   client.obj
 0001:00087f98       ?var_throttle_decel@@YAXXZ 00488f98 f   client.obj
 0001:00087f9d       ?var_throttle_accel@@YAXXZ 00488f9d f   client.obj
 0001:00087fa2       ?var_throttle_interval@@YAXXZ 00488fa2 f   client.obj
 0001:00087fa7       ?var_rate@@YAXXZ           00488fa7 f   client.obj
 0001:00087fac       ?setrate@@YAXH@Z           00488fac f   client.obj
 0001:00087fcd       ?multiplayer@@YA_N_N@Z     00488fcd f   client.obj
 0001:000880c5       ?clearsleep_@@YAXPAH@Z     004890c5 f   command.obj
 0001:000880de       ?clearsleep@@YAX_N@Z       004890de f   command.obj
 0001:0008815f       ?checksleep@@YAXH@Z        0048915f f   command.obj
 0001:00088218       ?addsleep@@YAXPAHPAD@Z     00489218 f   command.obj
 0001:00088283       ?run@?$_stdcmd@$0FCH@@@SAXPAH@Z 00489283 f   command.obj
 0001:0008829c       ?run@?$_stdcmd@$0FCE@@@SAXPAD00@Z 0048929c f   command.obj
 0001:000882b4       ?strreplace@@YAPADPBD00@Z  004892b4 f   command.obj
 0001:00088376       ?run@?$_stdcmd@$0FAK@@@SAXPAD@Z 00489376 f   command.obj
 0001:00088387       ?run@?$_stdcmd@$0FAJ@@@SAXPAD0@Z 00489387 f   command.obj
 0001:000883a9       ?run@?$_stdcmd@$0FAI@@@SAXPAD@Z 004893a9 f   command.obj
 0001:000883b7       ?run@?$_stdcmd@$0FAH@@@SAXPAD@Z 004893b7 f   command.obj
 0001:000883c8       ?run@?$_stdcmd@$0FAG@@@SAXPAD0@Z 004893c8 f   command.obj
 0001:000883e3       ?run@?$_stdcmd@$0FAF@@@SAXPAD0@Z 004893e3 f   command.obj
 0001:000883fe       ?run@?$_stdcmd@$0FAE@@@SAXPAD0@Z 004893fe f   command.obj
 0001:00088419       ?run@?$_stdcmd@$0FAD@@@SAXPAD0@Z 00489419 f   command.obj
 0001:00088434       ?run@?$_stdcmd@$0FAC@@@SAXPAD0@Z 00489434 f   command.obj
 0001:00088450       ?run@?$_stdcmd@$0FAB@@@SAXPAD0@Z 00489450 f   command.obj
 0001:0008846b       ?run@?$_stdcmd@$0FAA@@@SAXPAD0@Z 0048946b f   command.obj
 0001:00088486       ?run@?$_stdcmd@$0EPP@@@SAXPAH0@Z 00489486 f   command.obj
 0001:000884b6       ?run@?$_stdcmd@$0EPN@@@SAXPADPAPADPAH@Z 004894b6 f   command.obj
 0001:0008850b       ?run@?$_stdcmd@$0EPM@@@SAXPAMPAPADPAH@Z 0048950b f   command.obj
 0001:00088569       ?run@?$_stdcmd@$0EPL@@@SAXPAHPAPAD0@Z 00489569 f   command.obj
 0001:000885c3       ?run@?$_stdcmd@$0EOM@@@SAXPAPADPAH@Z 004895c3 f   command.obj
 0001:00088604       ?run@?$_stdcmd@$0EOA@@@SAXPAPADPAH@Z 00489604 f   command.obj
 0001:0008866c       ?run@?$_stdcmd@$0ENK@@@SAXPAPADPAH@Z 0048966c f   command.obj
 0001:000886ca       ?run@?$_stdcmd@$0ENE@@@SAXPAPADPAH@Z 004896ca f   command.obj
 0001:00088725       ?run@?$_stdcmd@$0EMO@@@SAXPAPADPAH@Z 00489725 f   command.obj
 0001:00088780       ?run@?$_stdcmd@$0EMI@@@SAXPAM@Z 00489780 f   command.obj
 0001:000887a9       ?run@?$_stdcmd@$0EMH@@@SAXPAM@Z 004897a9 f   command.obj
 0001:000887d2       ?run@?$_stdcmd@$0EMG@@@SAXPAM@Z 004897d2 f   command.obj
 0001:00088801       ?run@?$_stdcmd@$0EMF@@@SAXPAM@Z 00489801 f   command.obj
 0001:0008882a       ?run@?$_stdcmd@$0EME@@@SAXPAM0@Z 0048982a f   command.obj
 0001:00088865       ?run@?$_stdcmd@$0EMD@@@SAXPAM@Z 00489865 f   command.obj
 0001:0008888e       ?run@?$_stdcmd@$0EMC@@@SAXPAM@Z 0048988e f   command.obj
 0001:000888bd       ?run@?$_stdcmd@$0EMB@@@SAXPAM@Z 004898bd f   command.obj
 0001:000888ec       ?run@?$_stdcmd@$0EMA@@@SAXPAM@Z 004898ec f   command.obj
 0001:0008891b       ?run@?$_stdcmd@$0ELP@@@SAXPAM@Z 0048991b f   command.obj
 0001:0008894c       ?run@?$_stdcmd@$0ELO@@@SAXPAM@Z 0048994c f   command.obj
 0001:0008897d       ?run@?$_stdcmd@$0ELN@@@SAXPAM@Z 0048997d f   command.obj
 0001:000889ae       ?run@?$_stdcmd@$0ELM@@@SAXPAM0@Z 004899ae f   command.obj
 0001:00088a02       ?run@?$_stdcmd@$0ELL@@@SAXPAM0@Z 00489a02 f   command.obj
 0001:00088a27       ?run@?$_stdcmd@$0ELK@@@SAXPAH0@Z 00489a27 f   command.obj
 0001:00088a45       ?run@?$_stdcmd@$0ELJ@@@SAXPAH0@Z 00489a45 f   command.obj
 0001:00088a63       ?run@?$_stdcmd@$0ELH@@@SAXPAPADPAH@Z 00489a63 f   command.obj
 0001:00088a91       ?run@?$_stdcmd@$0ELB@@@SAXPAPADPAH@Z 00489a91 f   command.obj
 0001:00088ac0       ?run@?$_stdcmd@$0EKL@@@SAXPAH0@Z 00489ac0 f   command.obj
 0001:00088ad5       ?run@?$_stdcmd@$0EKK@@@SAXPAH0@Z 00489ad5 f   command.obj
 0001:00088aea       ?run@?$_stdcmd@$0EKJ@@@SAXPAH0@Z 00489aea f   command.obj
 0001:00088afd       ?run@?$_stdcmd@$0EKI@@@SAXPAH0@Z 00489afd f   command.obj
 0001:00088b10       ?run@?$_stdcmd@$0EKH@@@SAXPAH0@Z 00489b10 f   command.obj
 0001:00088b23       ?run@?$_stdcmd@$0EKG@@@SAXPAH@Z 00489b23 f   command.obj
 0001:00088b30       ?run@?$_stdcmd@$0EKF@@@SAXPAH0@Z 00489b30 f   command.obj
 0001:00088b41       ?run@?$_stdcmd@$0EKE@@@SAXPAH0@Z 00489b41 f   command.obj
 0001:00088b52       ?run@?$_stdcmd@$0EKD@@@SAXPAH@Z 00489b52 f   command.obj
 0001:00088b62       ?run@?$_stdcmd@$0EKC@@@SAXPAH0@Z 00489b62 f   command.obj
 0001:00088b73       ?run@?$_stdcmd@$0EKB@@@SAXPAM0@Z 00489b73 f   command.obj
 0001:00088b8c       ?run@?$_stdcmd@$0EKA@@@SAXPAM0@Z 00489b8c f   command.obj
 0001:00088ba5       ?run@?$_stdcmd@$0EJP@@@SAXPAM0@Z 00489ba5 f   command.obj
 0001:00088bbe       ?run@?$_stdcmd@$0EJO@@@SAXPAM0@Z 00489bbe f   command.obj
 0001:00088bd7       ?run@?$_stdcmd@$0EJN@@@SAXPAM0@Z 00489bd7 f   command.obj
 0001:00088bf4       ?run@?$_stdcmd@$0EJM@@@SAXPAM0@Z 00489bf4 f   command.obj
 0001:00088c11       ?run@?$_stdcmd@$0EJL@@@SAXPAH0@Z 00489c11 f   command.obj
 0001:00088c27       ?run@?$_stdcmd@$0EJK@@@SAXPAH0@Z 00489c27 f   command.obj
 0001:00088c3d       ?run@?$_stdcmd@$0EJJ@@@SAXPAH0@Z 00489c3d f   command.obj
 0001:00088c53       ?run@?$_stdcmd@$0EJI@@@SAXPAH0@Z 00489c53 f   command.obj
 0001:00088c69       ?run@?$_stdcmd@$0EJH@@@SAXPAH0@Z 00489c69 f   command.obj
 0001:00088c7f       ?run@?$_stdcmd@$0EJG@@@SAXPAH0@Z 00489c7f f   command.obj
 0001:00088c95       ?run@?$_stdcmd@$0EJF@@@SAXPAM0@Z 00489c95 f   command.obj
 0001:00088caa       ?run@?$_stdcmd@$0EJE@@@SAXPAM0@Z 00489caa f   command.obj
 0001:00088cbf       ?run@?$_stdcmd@$0EJD@@@SAXPAM0@Z 00489cbf f   command.obj
 0001:00088cd4       ?run@?$_stdcmd@$0EJC@@@SAXPAH0@Z 00489cd4 f   command.obj
 0001:00088ce5       ?run@?$_stdcmd@$0EJB@@@SAXPAH0@Z 00489ce5 f   command.obj
 0001:00088cf7       ?run@?$_stdcmd@$0EJA@@@SAXPAH0@Z 00489cf7 f   command.obj
 0001:00088d08       ?run@?$_stdcmd@$0EIO@@@SAXPAD000@Z 00489d08 f   command.obj
 0001:00088ddd       ?run@?$_stdcmd@$0EHM@@@SAXPAD00@Z 00489ddd f   command.obj
 0001:00088df3       ?run@?$_stdcmd@$0EHL@@@SAXPAD00@Z 00489df3 f   command.obj
 0001:00088e09       ?run@?$_stdcmd@$0EHK@@@SAXPAD0@Z 00489e09 f   command.obj
 0001:00088e29       ?run@?$_stdcmd@$0EHJ@@@SAXPAD0@Z 00489e29 f   command.obj
 0001:00088e3c       ?listdel@@YAPADPBD0@Z      00489e3c f   command.obj
 0001:00088f5f       ?listincludes@@YAHPBD0H@Z  00489f5f f   command.obj
 0001:00088ffc       ?prettylist@@YAXPBD0@Z     00489ffc f   command.obj
 0001:00089135       ?looplist@@YAXPBD00_N@Z    0048a135 f   command.obj
 0001:00089240       ?run@?$_stdcmd@$0EBH@@@SAXPAD@Z 0048a240 f   command.obj
 0001:00089250       ?run@?$_stdcmd@$0EBA@@@SAXPAD@Z 0048a250 f   command.obj
 0001:0008925b       ?writeinfile@@YAXPAD0PAH@Z 0048a25b f   command.obj
 0001:000892a5       ?printvar@@YAXPAUident@@H@Z 0048a2a5 f   command.obj
 0001:00089314       ?getalias_@@YAXPAD@Z       0048a314 f   command.obj
 0001:00089325       ?substr@@YAXPADPAH0@Z      0048a325 f   command.obj
 0001:0008937e       ?at@@YAXPADPAH@Z           0048a37e f   command.obj
 0001:00089393       ?listlen@@YAHPBD@Z         0048a393 f   command.obj
 0001:000893ed       ?indexlist@@YAPADPBDH@Z    0048a3ed f   command.obj
 0001:0008949c       ?explodelist@@YAXPBDAAU?$vector@PAD@@@Z 0048a49c f   command.obj
 0001:00089542       ?format@@YAXPAPADPAH@Z     0048a542 f   command.obj
 0001:00089612       ?concatword@@YAXPAPADPAH@Z 0048a612 f   command.obj
 0001:0008962a       ?concat@@YAXPBD@Z          0048a62a f   command.obj
 0001:00089645       ?run@?$_stdcmd@$0DIN@@@SAXPAD0@Z 0048a645 f   command.obj
 0001:0008965e       ?run@?$_stdcmd@$0DIM@@@SAXPADPAH00@Z 0048a65e f   command.obj
 0001:000896d6       ?run@?$_stdcmd@$0DHO@@@SAXPADPAH0@Z 0048a6d6 f   command.obj
 0001:00089741       ?run@?$_stdcmd@$0DHB@@@SAXPAD00@Z 0048a741 f   command.obj
 0001:0008977a       ?run@?$_stdcmd@$0DHA@@@SAXPAD00@Z 0048a77a f   command.obj
 0001:000897b6       ?floatret@@YAXM@Z          0048a7b6 f   command.obj
 0001:000897d5       ?floatstr@@YAPBDM@Z        0048a7d5 f   command.obj
 0001:00089847       ?intstr@@YAPBDH@Z          0048a847 f   command.obj
 0001:00089891       ?writecfg@@YAXPBD@Z        0048a891 f   command.obj
 0001:00089aa5       ?writeescapedstring@@YAXPAUstream@@PBD@Z 0048aaa5 f   command.obj
 0001:00089b2f       ?execfile@@YA_NPBD_N@Z     0048ab2f f   command.obj
 0001:00089ba6       ?executeret@@YAPADPBD@Z    0048aba6 f   command.obj
 0001:0008a25c       ?conc@@YAPADPAPADH_N@Z     0048b25c f   command.obj
 0001:0008a2e2       ?parseword@@YAPADAAPBDHAAH@Z 0048b2e2 f   command.obj
 0001:0008a3ea       ?lookup@@YAPADPAD@Z        0048b3ea f   command.obj
 0001:0008a461       ?parseexp@@YAPADAAPBDH@Z   0048b461 f   command.obj
 0001:0008a6a8       ?escapestring@@YAHPADPBD1@Z 0048b6a8 f   command.obj
 0001:0008a6f9       ?parsestring@@YAPBDPBD@Z   0048b6f9 f   command.obj
 0001:0008a71b       ?parsemacro@@YAXAAPBDHAAU?$vector@D@@@Z 0048b71b f   command.obj
 0001:0008a865       ?addident@@YAXPBDPAUident@@@Z 0048b865 f   command.obj
 0001:0008a8b5       ?setsvarchecked@@YAXPAUident@@PBD@Z 0048b8b5 f   command.obj
 0001:0008a982       ?setfvarchecked@@YAXPAUident@@M@Z 0048b982 f   command.obj
 0001:0008aa93       ?setvarchecked@@YAXPAUident@@H@Z 0048ba93 f   command.obj
 0001:0008ab8e       ?clampvar@@YAHPAUident@@HHH@Z 0048bb8e f   command.obj
 0001:0008abc8       ?getalias@@YAPBDPBD@Z      0048bbc8 f   command.obj
 0001:0008abee       ?getident@@YAPAUident@@PBD@Z 0048bbee f   command.obj
 0001:0008ac00       ?identexists@@YA_NPBD@Z    0048bc00 f   command.obj
 0001:0008ac17       ?getvarmax@@YAHPBD@Z       0048bc17 f   command.obj
 0001:0008ac3a       ?getvarmin@@YAHPBD@Z       0048bc3a f   command.obj
 0001:0008ac5d       ?setfvar@@YAXPBDM_N1@Z     0048bc5d f   command.obj
 0001:0008ace9       ?alias@@YAXPBD0@Z          0048bce9 f   command.obj
 0001:0008ad09       ?aliasa@@YAXPBDPAD@Z       0048bd09 f   command.obj
 0001:0008ae03       ?resetvar@@YAXPAD@Z        0048be03 f   command.obj
 0001:0008ae31       ?pop@@YAXPAD@Z             0048be31 f   command.obj
 0001:0008ae47       ?push@@YAXPAD0@Z           0048be47 f   command.obj
 0001:0008ae67       ?pusha@@YAXPBDPAD@Z        0048be67 f   command.obj
 0001:0008ae79       ?newident@@YAPAUident@@PBD@Z 0048be79 f   command.obj
 0001:0008af01       ?popident@@YAXAAUident@@@Z 0048bf01 f   command.obj
 0001:0008af39       ?pushident@@YAXAAUident@@PAD@Z 0048bf39 f   command.obj
 0001:0008af7e       ?clearoverrides@@YAXXZ     0048bf7e f   command.obj
 0001:0008afb3       ?clearoverride@@YAXAAUident@@@Z 0048bfb3 f   command.obj
 0001:0008b028       ?clear_command@@YAXXZ      0048c028 f   command.obj
 0001:0008b0d5       ?clearstack@@YAXAAUident@@@Z 0048c0d5 f   command.obj
 0001:0008b0ff       ?exchangestr@@YAPADPADPBD@Z 0048c0ff f   command.obj
 0001:0008b11a       ?svariable@@YAPADPBD0PAPADP6AXXZH@Z 0048c11a f   command.obj
 0001:0008b1c1       ?setsvar@@YAXPBD0_N@Z      0048c1c1 f   command.obj
 0001:0008b267       ?setvar@@YAXPBDH_N1@Z      0048c267 f   command.obj
 0001:0008b2ff       ?intret@@YAXH@Z            0048c2ff f   command.obj
 0001:0008b31e       ?addcommand@@YA_NPBDP6AXXZ0@Z 0048c31e f   command.obj
 0001:0008b3b2       ?result@@YAXPBD@Z          0048c3b2 f   command.obj
 0001:0008b3cd       ?execute@@YAHPBD@Z         0048c3cd f   command.obj
 0001:0008b3fd       ?variable@@YAHPBDHHHPAHP6AXXZH@Z 0048c3fd f   command.obj
 0001:0008b4a8       ?fvariable@@YAMPBDMMMPAMP6AXXZH@Z 0048c4a8 f   command.obj
 0001:0008b610       ?complete@@YAXPAD@Z        0048c610 f   console.obj
 0001:0008b884       ?addlistcomplete@@YAXPAD0@Z 0048c884 f   console.obj
 0001:0008b899       ?addfilecomplete@@YAXPAD00@Z 0048c899 f   console.obj
 0001:0008b8af       ?addcomplete@@YAXPADH00@Z  0048c8af f   console.obj
 0001:0008ba73       ?resetcomplete@@YAXXZ      0048ca73 f   console.obj
 0001:0008bae2       ?clear_console@@YAXXZ      0048cae2 f   console.obj
 0001:0008bb1f       ?keypress@@YAXH_NH@Z       0048cb1f f   console.obj
 0001:0008bb84       ?consolekey@@YAXH_NH@Z     0048cb84 f   console.obj
 0001:0008bfcb       ?execbind@@YAXAAUkeym@@_N@Z 0048cfcb f   console.obj
 0001:0008c0a5       ?onrelease@@YAXPAD@Z       0048d0a5 f   console.obj
 0001:0008c0ae       ?history_@@YAXPAH@Z        0048d0ae f   console.obj
 0001:0008c0ea       ?pasteconsole@@YAXXZ       0048d0ea f   console.obj
 0001:0008c131       ?run@?$_icmd_saycommand@$0BAL@@@SAXPAD@Z 0048d131 f   console.obj
 0001:0008c142       ?inputcommand@@YAXPAD00@Z  0048d142 f   console.obj
 0001:0008c21c       ?run@?$_icmd_searcheditbinds@$0PM@@@SAXPAD@Z 0048d21c f   console.obj
 0001:0008c228       ?run@?$_icmd_searchspecbinds@$0PL@@@SAXPAD@Z 0048d228 f   console.obj
 0001:0008c234       ?run@?$_icmd_searchbinds@$0PK@@@SAXPAD@Z 0048d234 f   console.obj
 0001:0008c23f       ?run@?$_icmd_geteditbind@$0PJ@@@SAXPAD@Z 0048d23f f   console.obj
 0001:0008c24b       ?run@?$_icmd_getspecbind@$0PI@@@SAXPAD@Z 0048d24b f   console.obj
 0001:0008c257       ?run@?$_icmd_getbind@$0PH@@@SAXPAD@Z 0048d257 f   console.obj
 0001:0008c262       ?run@?$_icmd_editbind@$0PG@@@SAXPAD0@Z 0048d262 f   console.obj
 0001:0008c279       ?run@?$_icmd_specbind@$0PF@@@SAXPAD0@Z 0048d279 f   console.obj
 0001:0008c290       ?run@?$_icmd_bind@$0PE@@@SAXPAD0@Z 0048d290 f   console.obj
 0001:0008c2a7       ?bindkey@@YAXPAD0HPBD@Z    0048d2a7 f   console.obj
 0001:0008c353       ?getbind@@YAXPADH@Z        0048d353 f   console.obj
 0001:0008c373       ?findbind@@YAPAUkeym@@PAD@Z 0048d373 f   console.obj
 0001:0008c3c6       ?searchbinds@@YAXPADH@Z    0048d3c6 f   console.obj
 0001:0008c49e       ?keymap@@YAXPAHPAD@Z       0048d49e f   console.obj
 0001:0008c520       ?renderconsole@@YAHHHH@Z   0048d520 f   console.obj
 0001:0008c6b3       ?drawconlines@@YAHHHHHHHHH@Z 0048d6b3 f   console.obj
 0001:0008c892       ?run@?$_icmd_clearconsole@$0GC@@@SAXXZ 0048d892 f   console.obj
 0001:0008c8b5       ?run@?$_icmd_miniconskip@$0GA@@@SAXPAH@Z 0048d8b5 f   console.obj
 0001:0008c8cd       ?run@?$_icmd_conskip@$0FP@@@SAXPAH@Z 0048d8cd f   console.obj
 0001:0008c8f3       ?setconskip@@YAXAAHHH@Z    0048d8f3 f   console.obj
 0001:0008c978       ?rendercommand@@YAHHHH@Z   0048d978 f   console.obj
 0001:0008ca3a       ?run@?$_icmd_toggleconsole@$0DF@@@SAXXZ 0048da3a f   console.obj
 0001:0008ca42       ?conoutfv@@YAXHPBDPAD@Z    0048da42 f   console.obj
 0001:0008ca87       ?conline@@YAXHPBD@Z        0048da87 f   console.obj
 0001:0008cb5e       ?var_maxcon@@YAXXZ         0048db5e f   console.obj
 0001:0008cb85       ?addreleaseaction@@YAPBDPBD@Z 0048db85 f   console.obj
 0001:0008cbe9       ?writebinds@@YAXPAUstream@@@Z 0048dbe9 f   console.obj
 0001:0008cd0e       ?writecompletions@@YAXPAUstream@@@Z 0048dd0e f   console.obj
 0001:0008ce0f       ?conoutf@@YAXPBDZZ         0048de0f f   console.obj
 0001:0008ce22       ?conoutf@@YAXHPBDZZ        0048de22 f   console.obj
 0001:0008ce36       ?getkeyname@@YAPBDH@Z      0048de36 f   console.obj
 0001:0008ce5e       ?importcube@@YAXPAD@Z      0048de5e f   cubeloader.obj
 0001:0008cf3c       ?adddecal@@YAXHABUvec@@0MABUbvec@@H@Z 0048df3c f   decal.obj
 0001:0008cfa8       ?renderdecals@@YAX_N@Z     0048dfa8 f   decal.obj
 0001:0008d088       ?cleardecals@@YAXXZ        0048e088 f   decal.obj
 0001:0008d0c2       ?initdecals@@YAXXZ         0048e0c2 f   decal.obj
 0001:0008d0e0       ?var_maxdecaltris@@YAXXZ   0048e0e0 f   decal.obj
 0001:0008d111       ?setdynlights@@YAHPAUvtxarray@@@Z 0048e111 f   dynlight.obj
 0001:0008d37f       ?calcdynlightmask@@YAXPAUvtxarray@@@Z 0048e37f f   dynlight.obj
 0001:0008d3fe       ?dynlightreaching@@YAXABUvec@@AAU1@1@Z 0048e3fe f   dynlight.obj
 0001:0008d570       ?getdynlight@@YA_NHAAUvec@@AAM0@Z 0048e570 f   dynlight.obj
 0001:0008d5a9       ?finddynlights@@YAHXZ      0048e5a9 f   dynlight.obj
 0001:0008d7da       ?updatedynlights@@YAXXZ    0048e7da f   dynlight.obj
 0001:0008d8c1       ?removetrackeddynlights@@YAXPAUphysent@@@Z 0048e8c1 f   dynlight.obj
 0001:0008d948       ?cleardynlights@@YAXXZ     0048e948 f   dynlight.obj
 0001:0008d9bc       ?adddynlight@@YAXABUvec@@M0HHHM0PAUphysent@@@Z 0048e9bc f   dynlight.obj
 0001:0008db02       ?addglare@@YAXXZ           0048eb02 f   glare.obj
 0001:0008dc69       ?drawglaretex@@YAXXZ       0048ec69 f   glare.obj
 0001:0008dcb2       ?viewglaretex@@YAXXZ       0048ecb2 f   glare.obj
 0001:0008dcc6       ?var_glaresize@@YAXXZ      0048ecc6 f   glare.obj
 0001:0008dcd3       ?cleanupglare@@YAXXZ       0048ecd3 f   glare.obj
 0001:0008dd04       ?rendergrass@@YAXXZ        0048ed04 f   grass.obj
 0001:0008e07f       ?generategrass@@YAXXZ      0048f07f f   grass.obj
 0001:0008ebdc       ?var_grasscolour@@YAXXZ    0048fbdc f   grass.obj
 0001:0008ef0c       ?dumplms@@YAXXZ            0048ff0c f   lightmap.obj
 0001:0008efbb       ?freesurfaces@@YAXAAUcube@@@Z 0048ffbb f   lightmap.obj
 0001:0008efe9       ?newsurfaces@@YAXAAUcube@@PBUsurfaceinfo@@H@Z 0048ffe9 f   lightmap.obj
 0001:0008f044       ?brightencube@@YAXAAUcube@@@Z 00490044 f   lightmap.obj
 0001:0008f078       ?brightestlight@@YAPAUentity@@ABUvec@@0@Z 00490078 f   lightmap.obj
 0001:0008f87d       ?initlights@@YAXXZ         0049087d f   lightmap.obj
 0001:0008f8ce       ?updateentlighting@@YAXXZ  004908ce f   lightmap.obj
 0001:0008f8f2       ?lightent@@YAXAAUextentity@@M@Z 004908f2 f   lightmap.obj
 0001:0008f9b0       ?genlightmaptexs@@YAXHH@Z  004909b0 f   lightmap.obj
 0001:0008fd92       ?var_batchlightmaps@@YAXXZ 00490d92 f   lightmap.obj
 0001:0008fda3       ?var_roundlightmaptex@@YAXXZ 00490da3 f   lightmap.obj
 0001:0008fefc       ?genreservedlightmaptexs@@YAXXZ 00490efc f   lightmap.obj
 0001:00090051       ?var_convertlms@@YAXXZ     00491051 f   lightmap.obj
 0001:00090199       ?fixlightmapnormals@@YAXXZ 00491199 f   lightmap.obj
 0001:00090316       ?var_fullbrightlevel@@YAXXZ 00491316 f   lightmap.obj
 0001:0009031b       ?var_fullbright@@YAXXZ     0049131b f   lightmap.obj
 0001:00090329       ?setfullbrightlevel@@YAXH@Z 00491329 f   lightmap.obj
 0001:00090376       ?clearlightmaps@@YAXXZ     00491376 f   lightmap.obj
 0001:000903b4       ?patchlight@@YAXPAH@Z      004913b4 f   lightmap.obj
 0001:000905de       ?calclight@@YAXPAH@Z       004915de f   lightmap.obj
 0001:00090aca       ?setlightmapquality@@YA_NH@Z 00491aca f   lightmap.obj
 0001:00090b25       ?setupthread@lightmapworker@@QAE_NXZ 00491b25 f   lightmap.obj
 0001:00090b60       ?reset@lightmapworker@@QAEXXZ 00491b60 f   lightmap.obj
 0001:00090b7d       ?cleanupthread@lightmapworker@@QAEXXZ 00491b7d f   lightmap.obj
 0001:00090ba2       ??1lightmapworker@@QAE@XZ  00491ba2 f   lightmap.obj
 0001:00090c2c       ??0lightmapworker@@QAE@XZ  00491c2c f   lightmap.obj
 0001:00090cee       ?resetlightmaps@@YAX_N@Z   00491cee f   lightmap.obj
 0001:00090d65       ?cleanuplightmaps@@YAXXZ   00491d65 f   lightmap.obj
 0001:0009188b       ?work@lightmapworker@@SAHPAX@Z 0049288b f   lightmap.obj
 0001:00093b82       ?checklightcache@@YAABU?$vector@H@@HH@Z 00494b82 f   lightmap.obj
 0001:00093cb2       ?clearlightcache@@YAXH@Z   00494cb2 f   lightmap.obj
 0001:00093da0       ?var_lightcachesize@@YAXXZ 00494da0 f   lightmap.obj
 0001:00097602       ?copy@LightMap@@QAEXGGPAEGG@Z 00498602 f   lightmap.obj
 0001:00097673       ?insert@LightMap@@QAE_NAAG0PAEGG@Z 00498673 f   lightmap.obj
 0001:000976be       ?insert@PackNode@@QAE_NAAG0GG@Z 004986be f   lightmap.obj
 0001:000978ac       ?show_calclight_progress@@YAXXZ 004988ac f   lightmap.obj
 0001:00097a5c       ?check_calclight_canceled@@YAXXZ 00498a5c f   lightmap.obj
 0001:00097a9f       ?var_skylight@@YAXXZ       00498a9f f   lightmap.obj
 0001:00097adb       ?var_ambient@@YAXXZ        00498adb f   lightmap.obj
 0001:00097b17       ?clearlights@@YAXXZ        00498b17 f   lightmap.obj
 0001:00097b99       ?previewblends@@YAXABUivec@@0@Z 00498b99 f   lightmap.obj
 0001:00097c3b       ?lightreaching@@YAXABUvec@@AAU1@1_NPAUextentity@@M@Z 00498c3b f   lightmap.obj
 0001:000981a8       _SDL_main                  004991a8 f   main.obj
 0001:00098a21       ?var_clockfix@@YAXXZ       00499a21 f   main.obj
 0001:00098a37       ?var_clockerror@@YAXXZ     00499a37 f   main.obj
 0001:00098a93       ?getfps_@@YAXPAH@Z         00499a93 f   main.obj
 0001:00098adb       ?getfps@@YAXAAH00@Z        00499adb f   main.obj
 0001:00098b4f       ?updatefpshistory@@YAXH@Z  00499b4f f   main.obj
 0001:00098b7c       ?resetfpshistory@@YAXXZ    00499b7c f   main.obj
 0001:00098b93       ?stackdumper@@YAXIPAU_EXCEPTION_POINTERS@@@Z 00499b93 f   main.obj
 0001:00098d58       ?limitfps@@YAXAAHH@Z       00499d58 f   main.obj
 0001:00098dda       ?var_paused@@YAXXZ         00499dda f   main.obj
 0001:00098df5       ?var_gamespeed@@YAXXZ      00499df5 f   main.obj
 0001:00098e11       ?swapbuffers@@YAXXZ        00499e11 f   main.obj
 0001:00098e1f       ?checkinput@@YAXXZ         00499e1f f   main.obj
 0001:0009907b       ?pushevent@@YAXABTSDL_Event@@@Z 0049a07b f   main.obj
 0001:00099082       ?resetgl@@YAXXZ            0049a082 f   main.obj
 0001:00099209       ?setupscreen@@YAXAAH00@Z   0049a209 f   main.obj
 0001:00099840       ?resetgamma@@YAXXZ         0049a840 f   main.obj
 0001:000998aa       ?var_gamma@@YAXXZ          0049a8aa f   main.obj
 0001:00099902       ?screenres@@YAXPAH0@Z      0049a902 f   main.obj
 0001:00099952       ?var_fullscreen@@YAXXZ     0049a952 f   main.obj
 0001:00099961       ?setfullscreen@@YAX_N@Z    0049a961 f   main.obj
 0001:00099987       ?inputgrab@@YAX_N@Z        0049a987 f   main.obj
 0001:000999a5       ?restorebackground@@YAXXZ  0049a9a5 f   main.obj
 0001:00099a7c       ?var_vsync@@YAXXZ          0049aa7c f   main.obj
 0001:00099a93       ?var_fsaa@@YAXXZ           0049aa93 f   main.obj
 0001:00099aaa       ?var_stencilbits@@YAXXZ    0049aaaa f   main.obj
 0001:00099ac1       ?var_depthbits@@YAXXZ      0049aac1 f   main.obj
 0001:00099ad8       ?var_colorbits@@YAXXZ      0049aad8 f   main.obj
 0001:00099aef       ?var_scr_h@@YAXXZ          0049aaef f   main.obj
 0001:00099b06       ?var_scr_w@@YAXXZ          0049ab06 f   main.obj
 0001:00099b1d       ?initwarning@@YA_NPBDHH@Z  0049ab1d f   main.obj
 0001:00099b34       ?quit@@YAXXZ               0049ab34 f   main.obj
 0001:00099b68       ?cleanup@@YAXXZ            0049ab68 f   main.obj
 0001:00099bc7       ?run@?$_icmd_geterrormsg@$0N@@@SAXXZ 0049abc7 f   main.obj
 0001:00099bd3       ?run@?$_icmd_getseversion@$0M@@@SAXXZ 0049abd3 f   main.obj
 0001:00099bdf       ?writeinitcfg@@YAXXZ       0049abdf f   main.obj
 0001:00099d29       ?interceptkey@@YA_NH@Z     0049ad29 f   main.obj
 0001:00099da2       ?renderprogress@@YAXMPBDI_N@Z 0049ada2 f   main.obj
 0001:0009a941       ?renderbackground@@YAXPBDPAUTexture@@00_N2@Z 0049b941 f   main.obj
 0001:0009ae1e       ?fatal@@YAXPBDZZ           0049be1e f   main.obj
 0001:0009aece       ?keyrepeat@@YAX_N@Z        0049bece f   main.obj
 0001:0009af91       ?rendermaterials@@YAXXZ    0049bf91 f   material.obj
 0001:0009bcb1       ?var_waterfallenv@@YAXXZ   0049ccb1 f   material.obj
 0001:0009bcb8       ?drawglass@@YAXHHHHHHMPBUvec@@@Z 0049ccb8 f   material.obj
 0001:0009beb7       ?rendermatgrid@@YAXAAU?$vector@PAUmaterialsurface@@@@@Z 0049ceb7 f   material.obj
 0001:0009bfcd       ?sortmaterials@@YAXAAU?$vector@PAUmaterialsurface@@@@@Z 0049cfcd f   material.obj
 0001:0009c3c0       ?setupmaterials@@YAXHH@Z   0049d3c0 f   material.obj
 0001:0009c9d1       ?optimizematsurfs@@YAHPAUmaterialsurface@@H@Z 0049d9d1 f   material.obj
 0001:0009cbcf       ?var_optmats@@YAXXZ        0049dbcf f   material.obj
 0001:0009ce2c       ?genmatsurfs@@YAXAAUcube@@HHHHAAU?$vector@Umaterialsurface@@@@AAE2@Z 0049de2c f   material.obj
 0001:0009cf44       ?findmaterial@@YAHPBD@Z    0049df44 f   material.obj
 0001:0009cf73       ?drawmaterial@@YAXHHHHHHM@Z 0049df73 f   material.obj
 0001:0009d0c8       ?renderwaterfall@@YAXABUmaterialsurface@@PAUTexture@@MMEPBUvec@@@Z 0049e0c8 f   material.obj
 0001:0009d383       ?visiblematerial@@YAHAAUcube@@HHHHHE@Z 0049e383 f   material.obj
 0001:0009d5a5       ?clearmainmenu@@YAXXZ      0049e5a5 f   menus.obj
 0001:0009d5db       ?run@?$_icmd_cleargui@$0BPL@@@SAXPAH@Z 0049e5db f   menus.obj
 0001:0009d5ed       ?guiservers@@YAXXZ         0049e5ed f   menus.obj
 0001:0009d626       ?newgui@@YAXPAD00@Z        0049e626 f   menus.obj
 0001:0009d6c2       ?guialign@@YAXPAHPAD@Z     0049e6c2 f   menus.obj
 0001:0009d6fd       ?guilist@@YAXPAD@Z         0049e6fd f   menus.obj
 0001:0009d723       ?guikeyfield@@YAXPADPAH0@Z 0049e723 f   menus.obj
 0001:0009d772       ?guieditor@@YAXPADPAH11@Z  0049e772 f   menus.obj
 0001:0009d7b4       ?guifield@@YAXPADPAH0@Z    0049e7b4 f   menus.obj
 0001:0009d803       ?guibitfield@@YAXPAD0PAH0@Z 0049e803 f   menus.obj
 0001:0009d867       ?guiradio@@YAXPAD0PAM0@Z   0049e867 f   menus.obj
 0001:0009d8cd       ?guicheckbox@@YAXPAD0PAM10@Z 0049e8cd f   menus.obj
 0001:0009d95d       ?guinameslider@@YAXPAD000@Z 0049e95d f   menus.obj
 0001:0009da72       ?guilistslider@@YAXPAD00@Z 0049ea72 f   menus.obj
 0001:0009db93       ?guislider@@YAXPADPAH10@Z  0049eb93 f   menus.obj
 0001:0009dd1a       ?guistrut@@YAXPAMPAH@Z     0049ed1a f   menus.obj
 0001:0009dd60       ?guibar@@YAXXZ             0049ed60 f   menus.obj
 0001:0009dd70       ?guitab@@YAXPAD@Z          0049ed70 f   menus.obj
 0001:0009dd89       ?guititle@@YAXPAD@Z        0049ed89 f   menus.obj
 0001:0009dda4       ?guitext@@YAXPAD0@Z        0049eda4 f   menus.obj
 0001:0009ddf6       ?guitextbox@@YAXPADPAH11@Z 0049edf6 f   menus.obj
 0001:0009de42       ?guicolor@@YAXPAH@Z        0049ee42 f   menus.obj
 0001:0009de8d       ?guiimage@@YAXPAD0PAMPAH0@Z 0049ee8d f   menus.obj
 0001:0009df52       ?guibutton@@YAXPAD00@Z     0049ef52 f   menus.obj
 0001:0009dffe       ?guinoautotab@@YAXPAD@Z    0049effe f   menus.obj
 0001:0009e026       ?guistayopen@@YAXPAD@Z     0049f026 f   menus.obj
 0001:0009e045       ?guionclear@@YAXPAD@Z      0049f045 f   menus.obj
 0001:0009e08c       ?showgui@@YAXPBD@Z         0049f08c f   menus.obj
 0001:0009e0e9       ?restoregui@@YAXH@Z        0049f0e9 f   menus.obj
 0001:0009e117       ?pushgui@@YAXPAUmenu@@H@Z  0049f117 f   menus.obj
 0001:0009e1be       ?removegui@@YAXPAUmenu@@@Z 0049f1be f   menus.obj
 0001:0009e216       ?popgui@@YAXXZ             0049f216 f   menus.obj
 0001:0009e230       ?menuinfrontofplayer@@YA?AUvec@@XZ 0049f230 f   menus.obj
 0001:0009e2b9       ?addchange@@YAXPBDH@Z      0049f2b9 f   menus.obj
 0001:0009e381       ?clearchanges@@YAXH@Z      0049f381 f   menus.obj
 0001:0009e3f3       ?menuprocess@@YAXXZ        0049f3f3 f   menus.obj
 0001:0009e4df       ?cleargui@@YAHH@Z          0049f4df f   menus.obj
 0001:0009e572       ?g3d_mainmenu@@YAXXZ       0049f572 f   menus.obj
 0001:0009e611       ?movie@@YAXPAD@Z           0049f611 f   movie.obj
 0001:0009e665       ?drawhud@recorder@@YAXXZ   0049f665 f   movie.obj
 0001:0009e8a2       ?readbuffer@recorder@@YA_NXZ 0049f8a2 f   movie.obj
 0001:0009e9a1       ?readbuffer@recorder@@YAXAAUvideobuffer@1@I@Z 0049f9a1 f   movie.obj
 0001:0009f355       ?drawquad@recorder@@YAXMMMMMM@Z 004a0355 f   movie.obj
 0001:0009f453       ?start@recorder@@YAXPBDHHH_N@Z 004a0453 f   movie.obj
 0001:0009f670       ?soundencoder@recorder@@YAXPAXPAEH@Z 004a0670 f   movie.obj
 0001:0009f73e       ?videoencoder@recorder@@YAHPAX@Z 004a073e f   movie.obj
 0001:0009f92b       ?isrecording@recorder@@YA_NXZ 004a092b f   movie.obj
 0001:0009f936       ?stop@recorder@@YAXXZ      004a0936 f   movie.obj
 0001:0009fa7c       ?cleanup@recorder@@YAXXZ   004a0a7c f   movie.obj
 0001:0009fb0a       ?capture@recorder@@YAXXZ   004a0b0a f   movie.obj
 0001:0009fb69       ?updatelerpbounds@@YAXMPBUlerpvert@@HAAUlerpbounds@@1@Z 004a0b69 f   normal.obj
 0001:0009fbef       ?setlerpstep@@YAXMAAUlerpbounds@@@Z 004a0bef f   normal.obj
 0001:0009fd7f       ?addnormals@@YAXAAUcube@@ABUivec@@H@Z 004a0d7f f   normal.obj
 0001:000a0427       ?show_calcnormals_progress@@YAXXZ 004a1427 f   normal.obj
 0001:000a04cc       ?initlerpbounds@@YAXPBUlerpvert@@HAAUlerpbounds@@1@Z 004a14cc f   normal.obj
 0001:000a0581       ?lerpnormal@@YAXMPBUlerpvert@@HAAUlerpbounds@@1AAUvec@@2@Z 004a1581 f   normal.obj
 0001:000a0774       ?freenormals@@YAXAAUcube@@@Z 004a1774 f   normal.obj
 0001:000a0796       ?calclerpverts@@YAXABUvec@@PBU1@100PAUlerpvert@@AAH@Z 004a1796 f   normal.obj
 0001:000a0932       ?findnormal@@YAXABUvec@@0AAU1@@Z 004a1932 f   normal.obj
 0001:000a0b11       ?newnormals@@YAXAAUcube@@@Z 004a1b11 f   normal.obj
 0001:000a0b69       ?calcnormals@@YAXXZ        004a1b69 f   normal.obj
 0001:000a0bef       ?clearnormals@@YAXXZ       004a1bef f   normal.obj
 0001:000a0cb0       ?calcmerges@@YAXXZ         004a1cb0 f   octa.obj
 0001:000a0d54       ?genmergeinfo@@YAXPAUcube@@ABUivec@@H@Z 004a1d54 f   octa.obj
 0001:000a1088       ?freemergeinfo@@YAXAAUcube@@@Z 004a2088 f   octa.obj
 0001:000a10b1       ?addmergeinfo@@YAXAAUcube@@HAAUcubeface@@@Z 004a20b1 f   octa.obj
 0001:000a11ff       ?gencubeface@@YA_NAAUcube@@HABUivec@@HAAU2@AAHAAUcubeface@@@Z 004a21ff f   octa.obj
 0001:000a1595       ?mincubeface@@YA_NAAUcube@@HABUivec@@HAAUmergeinfo@@@Z 004a2595 f   octa.obj
 0001:000a1674       ?mincubeface@@YAXAAUcube@@HABUivec@@HABUmergeinfo@@AAU3@EE@Z 004a2674 f   octa.obj
 0001:000a1ac5       ?mergefaces@@YAHHPAUcubeface@@H@Z 004a2ac5 f   octa.obj
 0001:000a1cdd       ?genclipplanes@@YAXAAUcube@@HHHHAAUclipplanes@@@Z 004a2cdd f   octa.obj
 0001:000a226e       ?collapsedface@@YA_NI@Z    004a326e f   octa.obj
 0001:000a27b9       ?faceorder@@YAHAAUcube@@H@Z 004a37b9 f   octa.obj
 0001:000a27c8       ?touchingface@@YA_NAAUcube@@H@Z 004a37c8 f   octa.obj
 0001:000a27fc       ?genvectorvert@@YAXABUivec@@AAUcube@@AAU1@@Z 004a37fc f   octa.obj
 0001:000a2837       ?converttovectorworld@@YAXXZ 004a3837 f   octa.obj
 0001:000a2863       ?edgespan2vectorcube@@YAXAAUcube@@@Z 004a3863 f   octa.obj
 0001:000a29af       ?genedgespanvert@@YAXAAUivec@@AAUcube@@AAUvec@@@Z 004a39af f   octa.obj
 0001:000a2b3b       ?threeplaneintersect@@YA_NAAUplane@@00AAUvec@@@Z 004a3b3b f   octa.obj
 0001:000a2d72       ?genvertp@@YAXAAUcube@@AAUivec@@11AAUplane@@@Z 004a3d72 f   octa.obj
 0001:000a2ef5       ?remip_@@YAXXZ             004a3ef5 f   octa.obj
 0001:000a2f03       ?remip@@YA_NAAUcube@@HHHH@Z 004a3f03 f   octa.obj
 0001:000a340e       ?visibleorient@@YAHAAUcube@@H@Z 004a440e f   octa.obj
 0001:000a34ae       ?crushededge@@YA_NEH@Z     004a44ae f   octa.obj
 0001:000a34c7       ?subdividecube@@YA_NAAUcube@@_N1@Z 004a44c7 f   octa.obj
 0001:000a39cd       ?midedge@@YAHABUivec@@0HHAA_N@Z 004a49cd f   octa.obj
 0001:000a3ae2       ?forcemip@@YAXAAUcube@@_N@Z 004a4ae2 f   octa.obj
 0001:000a3b9e       ?getmippedtexture@@YAHAAUcube@@H@Z 004a4b9e f   octa.obj
 0001:000a3ca4       ?neighbourcube@@YAAAUcube@@AAU1@HHHHHAAUivec@@AAH@Z 004a4ca4 f   octa.obj
 0001:000a3dcb       ?lookupmaterial@@YAHABUvec@@@Z 004a4dcb f   octa.obj
 0001:000a3e67       ?validatec@@YAXPAUcube@@H@Z 004a4e67 f   octa.obj
 0001:000a3f04       ?isvalidcube@@YA_NAAUcube@@@Z 004a4f04 f   octa.obj
 0001:000a3f69       ?printcube@@YAXXZ          004a4f69 f   octa.obj
 0001:000a3fe9       ?optiface@@YAXPAEAAUcube@@@Z 004a4fe9 f   octa.obj
 0001:000a40fe       ?setcubevector@@YAXAAUcube@@HHHHABUivec@@@Z 004a50fe f   octa.obj
 0001:000a4194       ?getcubevector@@YAXAAUcube@@HHHHAAUivec@@@Z 004a5194 f   octa.obj
 0001:000a4204       ?discardchildren@@YAXAAUcube@@_NH@Z 004a5204 f   octa.obj
 0001:000a42df       ?freecubeext@@YAXAAUcube@@@Z 004a52df f   octa.obj
 0001:000a42fa       ?familysize@@YAHAAUcube@@@Z 004a52fa f   octa.obj
 0001:000a4324       ?genmergedverts@@YAXAAUcube@@HABUivec@@HABUmergeinfo@@PAUvec@@PAUplane@@@Z 004a5324 f   octa.obj
 0001:000a4692       ?calcmergedsize@@YAHHABUivec@@HABUmergeinfo@@PBUvec@@@Z 004a5692 f   octa.obj
 0001:000a47f7       ?genclipplane@@YAHAAUcube@@HPAUvec@@PAUplane@@@Z 004a57f7 f   octa.obj
 0001:000a48d2       ?visibletris@@YAHAAUcube@@HHHHH@Z 004a58d2 f   octa.obj
 0001:000a4ddc       ?invalidatemerges@@YAXAAUcube@@_N@Z 004a5ddc f   octa.obj
 0001:000a4e10       ?newcubeext@@YAPAUcubeext@@AAUcube@@@Z 004a5e10 f   octa.obj
 0001:000a4e6b       ?faceverts@@YAHAAUcube@@HH@Z 004a5e6b f   octa.obj
 0001:000a4e84       ?lookupcube@@YAAAUcube@@HHHHAAUivec@@AAH@Z 004a5e84 f   octa.obj
 0001:000a4fce       ?mpremip@@YAX_N@Z          004a5fce f   octa.obj
 0001:000a506e       ?freeocta@@YAXPAUcube@@@Z  004a606e f   octa.obj
 0001:000a50a1       ?newcubes@@YAPAUcube@@I@Z  004a60a1 f   octa.obj
 0001:000a50e7       ?faceconvexity@@YAHAAUcube@@H@Z 004a60e7 f   octa.obj
 0001:000a51ae       ?calcvert@@YAXAAUcube@@HHHHAAUvec@@H_N@Z 004a61ae f   octa.obj
 0001:000a5268       ?flataxisface@@YA_NAAUcube@@H@Z 004a6268 f   octa.obj
 0001:000a5294       ?faceedges@@YAIAAUcube@@H@Z 004a6294 f   octa.obj
 0001:000a52a9       ?visibleface@@YA_NAAUcube@@HHHHHEEE@Z 004a62a9 f   octa.obj
 0001:000a56a3       ?rendertexturepanel@@YAXHH@Z 004a66a3 f   octaedit.obj
 0001:000a5cf4       ?showtexgui@@YAXPAH@Z      004a6cf4 f   octaedit.obj
 0001:000a5d32       ?editmat@@YAXPAD0@Z        004a6d32 f   octaedit.obj
 0001:000a5d9e       ?mpeditmat@@YAXHHAAUselinfo@@_N@Z 004a6d9e f   octaedit.obj
 0001:000a5fcd       ?setmat@@YAXAAUcube@@EEEE@Z 004a6fcd f   octaedit.obj
 0001:000a604c       ?rotate@@YAXPAH@Z          004a704c f   octaedit.obj
 0001:000a606d       ?mprotate@@YAXHAAUselinfo@@_N@Z 004a706d f   octaedit.obj
 0001:000a63c7       ?flip@@YAXXZ               004a73c7 f   octaedit.obj
 0001:000a63e1       ?mpflip@@YAXAAUselinfo@@_N@Z 004a73e1 f   octaedit.obj
 0001:000a6607       ?rotatecube@@YAXAAUcube@@H@Z 004a7607 f   octaedit.obj
 0001:000a6742       ?rotatequad@@YAXAAUcube@@000@Z 004a7742 f   octaedit.obj
 0001:000a6783       ?flipcube@@YAXAAUcube@@H@Z 004a7783 f   octaedit.obj
 0001:000a6876       ?mflip@@YAII@Z             004a7876 f   octaedit.obj
 0001:000a6896       ?rflip@@YAII@Z             004a7896 f   octaedit.obj
 0001:000a689c       ?cflip@@YAII@Z             004a789c f   octaedit.obj
 0001:000a68b3       ?dflip@@YAII@Z             004a78b3 f   octaedit.obj
 0001:000a68d9       ?run@?$_icmd_replacesel@$0HFA@@@SAXXZ 004a78d9 f   octaedit.obj
 0001:000a68e0       ?run@?$_icmd_replace@$0HEP@@@SAXXZ 004a78e0 f   octaedit.obj
 0001:000a68e7       ?replace@@YAX_N@Z          004a78e7 f   octaedit.obj
 0001:000a6929       ?mpreplacetex@@YAXHH_NAAUselinfo@@0@Z 004a7929 f   octaedit.obj
 0001:000a6ad2       ?replacetexcube@@YAXAAUcube@@HH@Z 004a7ad2 f   octaedit.obj
 0001:000a6b19       ?run@?$_icmd_getreptex@$0HDB@@@SAXXZ 004a7b19 f   octaedit.obj
 0001:000a6b40       ?gettexname@@YAXPAH0@Z     004a7b40 f   octaedit.obj
 0001:000a6b85       ?getseltex@@YAXXZ          004a7b85 f   octaedit.obj
 0001:000a6bda       ?getcurtex@@YAXXZ          004a7bda f   octaedit.obj
 0001:000a6c14       ?gettex@@YAXXZ             004a7c14 f   octaedit.obj
 0001:000a6d78       ?edittex_@@YAXPAH@Z        004a7d78 f   octaedit.obj
 0001:000a6dec       ?edittex@@YAXH_N@Z         004a7dec f   octaedit.obj
 0001:000a6e40       ?compactmruvslots@@YAXXZ   004a7e40 f   octaedit.obj
 0001:000a6ef0       ?filltexlist@@YAXXZ        004a7ef0 f   octaedit.obj
 0001:000a6f82       ?mpedittex@@YAXHHAAUselinfo@@_N@Z 004a7f82 f   octaedit.obj
 0001:000a7147       ?vshaderparam@@YAXPBDPAM111@Z 004a8147 f   octaedit.obj
 0001:000a724d       ?vreset@@YAXXZ             004a824d f   octaedit.obj
 0001:000a72e1       ?vcolor@@YAXPAM00@Z        004a82e1 f   octaedit.obj
 0001:000a73d5       ?valpha@@YAXPAM0@Z         004a83d5 f   octaedit.obj
 0001:000a74ab       ?vlayer@@YAXPAH@Z          004a84ab f   octaedit.obj
 0001:000a7565       ?vscale@@YAXPAM@Z          004a8565 f   octaedit.obj
 0001:000a7645       ?vscroll@@YAXPAM0@Z        004a8645 f   octaedit.obj
 0001:000a7710       ?voffset@@YAXPAH0@Z        004a8710 f   octaedit.obj
 0001:000a77e9       ?vrotate@@YAXPAH@Z         004a87e9 f   octaedit.obj
 0001:000a78b4       ?vdelta@@YAXPAD@Z          004a88b4 f   octaedit.obj
 0001:000a78eb       ?mpeditvslot@@YAXAAUVSlot@@HAAUselinfo@@_N@Z 004a88eb f   octaedit.obj
 0001:000a7b22       ?edittexcube@@YAXAAUcube@@HHAA_N@Z 004a8b22 f   octaedit.obj
 0001:000a7e54       ?tofronttex@@YAXXZ         004a8e54 f   octaedit.obj
 0001:000a7eac       ?delcube@@YAXXZ            004a8eac f   octaedit.obj
 0001:000a7ec6       ?mpdelcube@@YAXAAUselinfo@@_N@Z 004a8ec6 f   octaedit.obj
 0001:000a801e       ?pushsel@@YAXPAH@Z         004a901e f   octaedit.obj
 0001:000a80ab       ?editface@@YAXPAH0@Z       004a90ab f   octaedit.obj
 0001:000a80e9       ?mpeditface@@YAXHHAAUselinfo@@_N@Z 004a90e9 f   octaedit.obj
 0001:000a85cb       ?linkedpush@@YAXAAUcube@@HHHHH@Z 004a95cb f   octaedit.obj
 0001:000a8649       ?pushedge@@YAXAAEHH@Z      004a9649 f   octaedit.obj
 0001:000a86d9       ?bounded@@YAHH@Z           004a96d9 f   octaedit.obj
 0001:000a86eb       ?edithmap@@YAXHH@Z         004a96eb f   octaedit.obj
 0001:000a8725       ?run@hmap@@YAXHH@Z         004a9725 f   octaedit.obj
 0001:000a8b72       ?rippleandset@hmap@@YAXXZ  004a9b72 f   octaedit.obj
 0001:000a8bc0       ?smooth@hmap@@YAXXZ        004a9bc0 f   octaedit.obj
 0001:000a8cce       ?paint@hmap@@YAXXZ         004a9cce f   octaedit.obj
 0001:000a8d2f       ?ripple@hmap@@YAXHHH_N@Z   004a9d2f f   octaedit.obj
 0001:000a92fc       ?select@hmap@@YAXHHH@Z     004aa2fc f   octaedit.obj
 0001:000a96c4       ?addpoint@hmap@@YAXHHHH@Z  004aa6c4 f   octaedit.obj
 0001:000a96f3       ?pushside@hmap@@YAXAAUcube@@HHHH@Z 004aa6f3 f   octaedit.obj
 0001:000a9746       ?getface@hmap@@YAIPAUcube@@H@Z 004aa746 f   octaedit.obj
 0001:000a976f       ?getcube@hmap@@YAPAUcube@@Uivec@@H@Z 004aa76f f   octaedit.obj
 0001:000a9871       ?run@?$_icmd_hmapselect@$0DPI@@@SAXXZ 004aa871 f   octaedit.obj
 0001:000a98ce       ?run@?$_icmd_hmapcancel@$0DPA@@@SAXXZ 004aa8ce f   octaedit.obj
 0001:000a98d6       ?brushvert@@YAXPAH00@Z     004aa8d6 f   octaedit.obj
 0001:000a99d7       ?clearbrush@@YAXXZ         004aa9d7 f   octaedit.obj
 0001:000a9a0e       ?compacteditvslots@@YAXXZ  004aaa0e f   octaedit.obj
 0001:000a9aa7       ?paste@@YAXXZ              004aaaa7 f   octaedit.obj
 0001:000a9ac7       ?pastehilite@@YAXXZ        004aaac7 f   octaedit.obj
 0001:000a9aef       ?copy@@YAXXZ               004aaaef f   octaedit.obj
 0001:000a9b0f       ?mppaste@@YAXAAPAUeditinfo@@AAUselinfo@@_N@Z 004aab0f f   octaedit.obj
 0001:000a9cc2       ?mpcopy@@YAXAAPAUeditinfo@@AAUselinfo@@_N@Z 004aacc2 f   octaedit.obj
 0001:000a9db0       ?freeeditinfo@@YAXAAPAUeditinfo@@@Z 004aadb0 f   octaedit.obj
 0001:000a9ddd       ?unpackeditinfo@@YA_NAAPAUeditinfo@@PBEHH@Z 004aaddd f   octaedit.obj
 0001:000a9e4e       ?packeditinfo@@YA_NPAUeditinfo@@AAHAAPAE1@Z 004aae4e f   octaedit.obj
 0001:000aa23a       ?editredo@@YAXXZ           004ab23a f   octaedit.obj
 0001:000aa250       ?editundo@@YAXXZ           004ab250 f   octaedit.obj
 0001:000aa266       ?swapundo@@YAXAAUundolist@@0PBD@Z 004ab266 f   octaedit.obj
 0001:000aa400       ?makeundo@@YAXXZ           004ab400 f   octaedit.obj
 0001:000aa449       ?makeundoex@@YAXAAUselinfo@@@Z 004ab449 f   octaedit.obj
 0001:000aa471       ?addundo@@YAXPAUundoblock@@@Z 004ab471 f   octaedit.obj
 0001:000aa4c6       ?newundocube@@YAPAUundoblock@@AAUselinfo@@@Z 004ab4c6 f   octaedit.obj
 0001:000aa554       ?clearundos@@YAXXZ         004ab554 f   octaedit.obj
 0001:000aa55b       ?pruneundos@@YAXH@Z        004ab55b f   octaedit.obj
 0001:000aa619       ?pasteundo@@YAXPAUundoblock@@@Z 004ab619 f   octaedit.obj
 0001:000aa70a       ?freeundo@@YAXPAUundoblock@@@Z 004ab70a f   octaedit.obj
 0001:000aa726       ?selgridmap@@YAXAAUselinfo@@PAH@Z 004ab726 f   octaedit.obj
 0001:000aa82d       ?freeblock@@YAXPAUblock3@@_N@Z 004ab82d f   octaedit.obj
 0001:000aa87e       ?blockcopy@@YAPAUblock3@@ABU1@H@Z 004ab87e f   octaedit.obj
 0001:000aa8ae       ?blockcopy@@YAXABUblock3@@HPAU1@@Z 004ab8ae f   octaedit.obj
 0001:000aa9c9       ?pastecube@@YAXAAUcube@@0@Z 004ab9c9 f   octaedit.obj
 0001:000aaa07       ?copycube@@YA?AUcube@@AAU1@@Z 004aba07 f   octaedit.obj
 0001:000aaa97       ?changed@@YAXABUblock3@@_N@Z 004aba97 f   octaedit.obj
 0001:000aab45       ?readychanges@@YAXAAUblock3@@PAUcube@@ABUivec@@H@Z 004abb45 f   octaedit.obj
 0001:000aac28       ?rendereditcursor@@YAXXZ   004abc28 f   octaedit.obj
 0001:000ab922       ?editmoveplane@@YAXABUvec@@0HMAAU1@1_N@Z 004ac922 f   octaedit.obj
 0001:000aba3a       ?updateselection@@YAXXZ    004aca3a f   octaedit.obj
 0001:000abadb       ?normalizelookupcube@@YAXHHH@Z 004acadb f   octaedit.obj
 0001:000abb5d       ?countselchild@@YAXPAUcube@@ABUivec@@H@Z 004acb5d f   octaedit.obj
 0001:000abc0c       ?run@?$_icmd_havesel@$0NG@@@SAXXZ 004acc0c f   octaedit.obj
 0001:000abc20       ?blockcube@@YAAAUcube@@HHHABUblock3@@H@Z 004acc20 f   octaedit.obj
 0001:000abcb2       ?run@?$_icmd_edittoggle@$0LL@@@SAXXZ 004accb2 f   octaedit.obj
 0001:000abcb9       ?selextend@@YAXXZ          004accb9 f   octaedit.obj
 0001:000abd23       ?reorient@@YAXXZ           004acd23 f   octaedit.obj
 0001:000abd6c       ?toggleedit@@YAX_N@Z       004acd6c f   octaedit.obj
 0001:000abe45       ?cancelsel@@YAXXZ          004ace45 f   octaedit.obj
 0001:000abe5c       ?cubecancel@@YAXXZ         004ace5c f   octaedit.obj
 0001:000abe7f       ?forcenextundo@@YAXXZ      004ace7f f   octaedit.obj
 0001:000abe87       ?var_hmapedit@@YAXXZ       004ace87 f   octaedit.obj
 0001:000abe92       ?var_gridpower@@YAXXZ      004ace92 f   octaedit.obj
 0001:000abec5       ?var_moving@@YAXXZ         004acec5 f   octaedit.obj
 0001:000abf3e       ?var_dragging@@YAXXZ       004acf3e f   octaedit.obj
 0001:000abf83       ?boxsgrid@@YAXHUvec@@0H@Z  004acf83 f   octaedit.obj
 0001:000ac13f       ?boxs3D@@YAXABUvec@@U1@H@Z 004ad13f f   octaedit.obj
 0001:000ac1a0       ?boxs@@YAXHUvec@@ABU1@@Z   004ad1a0 f   octaedit.obj
 0001:000ac276       ?tryedit@@YAXXZ            004ad276 f   octaedit.obj
 0001:000ac29f       ?commitchanges@@YAX_N@Z    004ad29f f   octaedit.obj
 0001:000ac2f4       ?noedit@@YA_N_N0@Z         004ad2f4 f   octaedit.obj
 0001:000ac3eb       ?g3d_texturemenu@@YAXXZ    004ad3eb f   octaedit.obj
 0001:000ac528       ?recalc@@YAXXZ             004ad528 f   octarender.obj
 0001:000ac52f       ?precachetextures@@YAXXZ   004ad52f f   octarender.obj
 0001:000ac634       ?findtjoints@@YAXHABUedgegroup@@@Z 004ad634 f   octarender.obj
 0001:000ac791       ?addtjoint@@YAXABUedgegroup@@ABUcubeedge@@H@Z 004ad791 f   octarender.obj
 0001:000ac86b       ?buildclipmasks@@YAXAAUcube@@AAE1@Z 004ad86b f   octarender.obj
 0001:000ac974       ?updateva@@YAHPAUcube@@HHHHH@Z 004ad974 f   octarender.obj
 0001:000acd0c       ?var_vacubemin@@YAXXZ      004add0c f   octarender.obj
 0001:000acd13       ?var_vacubesize@@YAXXZ     004add13 f   octarender.obj
 0001:000acd1a       ?var_vacubemax@@YAXXZ      004add1a f   octarender.obj
 0001:000acd21       ?setva@@YAXAAUcube@@HHHHH@Z 004add21 f   octarender.obj
 0001:000acff2       ?calcmatbb@@YAXHHHHAAUivec@@0@Z 004adff2 f   octarender.obj
 0001:000ad0f7       ?calcgeombb@@YAXHHHHAAUivec@@0@Z 004ae0f7 f   octarender.obj
 0001:000ad247       ?rendercube@@YAXAAUcube@@HHHHHAAE1@Z 004ae247 f   octarender.obj
 0001:000ad4ef       ?addmergedverts@@YAXH@Z    004ae4ef f   octarender.obj
 0001:000ad590       ?findmergedfaces@@YAXAAUcube@@ABUivec@@HHH@Z 004ae590 f   octarender.obj
 0001:000ad633       ?genmergedfaces@@YAXAAUcube@@ABUivec@@HH@Z 004ae633 f   octarender.obj
 0001:000ad974       ?updatevabb@@YAXPAUvtxarray@@_N@Z 004ae974 f   octarender.obj
 0001:000adb4f       ?clearvas@@YAXPAUcube@@@Z  004aeb4f f   octarender.obj
 0001:000adb8e       ?newva@@YAPAUvtxarray@@HHHH@Z 004aeb8e f   octarender.obj
 0001:000adce9       ?addskyverts@@YAXABUivec@@H@Z 004aece9 f   octarender.obj
 0001:000adfb7       ?genskyfaces@@YAXAAUcube@@ABUivec@@H@Z 004aefb7 f   octarender.obj
 0001:000ae0f4       ?minskyface@@YAXAAUcube@@HABUivec@@HAAUmergeinfo@@@Z 004af0f4 f   octarender.obj
 0001:000ae18c       ?hasskyfaces@@YAHAAUcube@@HHHHQAH@Z 004af18c f   octarender.obj
 0001:000ae257       ?skyoccluded@@YA_NAAUcube@@H@Z 004af257 f   octarender.obj
 0001:000ae294       ?gencubeverts@@YAXAAUcube@@HHHHHAAE1@Z 004af294 f   octarender.obj
 0001:000ae70a       ?gencubeedges@@YAXPAUcube@@HHHH@Z 004af70a f   octarender.obj
 0001:000ae7dd       ?gencubeedges@@YAXAAUcube@@HHHH@Z 004af7dd f   octarender.obj
 0001:000aee07       ?addcubeverts@@YAXAAUVSlot@@HHPAUvec@@GPAUsurfaceinfo@@PAUsurfacenormals@@HGH_N@Z 004afe07 f   octarender.obj
 0001:000af6d9       ?addgrasstri@@YAXHPAUvertex@@HGG@Z 004b06d9 f   octarender.obj
 0001:000afe1c       ?addtris@@YAXABUsortkey@@HQAUvertex@@QAHHH@Z 004b0e1c f   octarender.obj
 0001:000b043b       ?reduceslope@@YAXAAUivec@@@Z 004b143b f   octarender.obj
 0001:000b04d4       ?var_filltjoints@@YAXXZ    004b14d4 f   octarender.obj
 0001:000b04db       ?calcshadowmask@@YAHPAUvec@@@Z 004b14db f   octarender.obj
 0001:000b0717       ?addvbo@@YAPAEPAUvtxarray@@HHH@Z 004b1717 f   octarender.obj
 0001:000b075d       ?flushvbo@@YAXH@Z          004b175d f   octarender.obj
 0001:000b07b6       ?readva@@YA_NPAUvtxarray@@AAPAGAAPAE@Z 004b17b6 f   octarender.obj
 0001:000b089a       ?genvbo@@YAXHPAXHPAPAUvtxarray@@H@Z 004b189a f   octarender.obj
 0001:000b09e1       ?destroyvbo@@YAXI@Z        004b19e1 f   octarender.obj
 0001:000b0a8a       ?var_vbosize@@YAXXZ        004b1a8a f   octarender.obj
 0001:000b0a9a       ?octarender@@YAXXZ         004b1a9a f   octarender.obj
 0001:000b0b5c       ?updatevabbs@@YAX_N@Z      004b1b5c f   octarender.obj
 0001:000b0b86       ?destroyva@@YAXPAUvtxarray@@_N@Z 004b1b86 f   octarender.obj
 0001:000b0c70       ?allchanged@@YAX_N@Z       004b1c70 f   octarender.obj
 0001:000b3d24       ?run@?$_icmd_crouch@$0IDE@@@SAXPAH@Z 004b4d24 f   physics.obj
 0001:000b3d33       ?run@?$_icmd_sprint@$0IDD@@@SAXPAH@Z 004b4d33 f   physics.obj
 0001:000b3d42       ?run@?$_icmd_altattack@$0IDC@@@SAXPAH@Z 004b4d42 f   physics.obj
 0001:000b3d51       ?run@?$_icmd_attack@$0IDB@@@SAXPAH@Z 004b4d51 f   physics.obj
 0001:000b3d60       ?run@?$_icmd_jump@$0IDA@@@SAXPAH@Z 004b4d60 f   physics.obj
 0001:000b3d86       ?run@?$_icmd_right@$0ICO@@@SAXPAH@Z 004b4d86 f   physics.obj
 0001:000b3db8       ?run@?$_icmd_left@$0ICN@@@SAXPAH@Z 004b4db8 f   physics.obj
 0001:000b3de9       ?run@?$_icmd_forward@$0ICM@@@SAXPAH@Z 004b4de9 f   physics.obj
 0001:000b3e1a       ?run@?$_icmd_backward@$0ICL@@@SAXPAH@Z 004b4e1a f   physics.obj
 0001:000b3e4c       ?moveplatform@@YA_NPAUphysent@@ABUvec@@@Z 004b4e4c f   physics.obj
 0001:000b476f       ?platformcollide@@YA_NPAUphysent@@0ABUvec@@M@Z 004b576f f   physics.obj
 0001:000b4801       ?updatephysstate@@YAXPAUphysent@@@Z 004b5801 f   physics.obj
 0001:000b4932       ?bounce@@YA_NPAUphysent@@MMM@Z 004b5932 f   physics.obj
 0001:000b4a57       ?moveplayer@@YAXPAUphysent@@H_N@Z 004b5a57 f   physics.obj
 0001:000b4b19       ?interppos@@YAXPAUphysent@@@Z 004b5b19 f   physics.obj
 0001:000b4ba9       ?physicsframe@@YAXXZ       004b5ba9 f   physics.obj
 0001:000b4c05       ?moveplayer@@YA_NPAUphysent@@H_NH@Z 004b5c05 f   physics.obj
 0001:000b4fcd       ?modifygravity@@YAXPAUphysent@@_NH@Z 004b5fcd f   physics.obj
 0001:000b51b4       ?modifyvelocity@@YAXPAUphysent@@_N11H@Z 004b61b4 f   physics.obj
 0001:000b5579       ?vectoyawpitch@@YAXABUvec@@AAM1@Z 004b6579 f   physics.obj
 0001:000b560a       ?phystest@@YAXXZ           004b660a f   physics.obj
 0001:000b5759       ?dropheight@@YAMAAUentity@@@Z 004b6759 f   physics.obj
 0001:000b57b4       ?droptofloor@@YA_NAAUvec@@MM@Z 004b67b4 f   physics.obj
 0001:000b5920       ?movecamera@@YA_NPAUphysent@@ABUvec@@MM@Z 004b6920 f   physics.obj
 0001:000b5a23       ?avoidcollision@@YAXPAUphysent@@ABUvec@@0M@Z 004b6a23 f   physics.obj
 0001:000b5ba6       ?bounce@@YA_NPAUphysent@@MMMM@Z 004b6ba6 f   physics.obj
 0001:000b5f13       ?move@@YA_NPAUphysent@@AAUvec@@@Z 004b6f13 f   physics.obj
 0001:000b6377       ?findfloor@@YA_NPAUphysent@@_NABUvec@@AA_NAAU2@@Z 004b7377 f   physics.obj
 0001:000b65f0       ?landing@@YAXPAUphysent@@AAUvec@@ABU2@_N@Z 004b75f0 f   physics.obj
 0001:000b6638       ?falling@@YAXPAUphysent@@AAUvec@@ABU2@@Z 004b7638 f   physics.obj
 0001:000b673c       ?trystepdown@@YA_NPAUphysent@@AAUvec@@_N@Z 004b773c f   physics.obj
 0001:000b6825       ?trystepdown@@YA_NPAUphysent@@AAUvec@@MMM_N@Z 004b7825 f   physics.obj
 0001:000b6b8d       ?trystepup@@YA_NPAUphysent@@AAUvec@@ABU2@M2@Z 004b7b8d f   physics.obj
 0001:000b71ca       ?switchfloor@@YAXPAUphysent@@AAUvec@@ABU2@@Z 004b81ca f   physics.obj
 0001:000b74a8       ?slideagainst@@YAXPAUphysent@@AAUvec@@ABU2@_N3@Z 004b84a8 f   physics.obj
 0001:000b760c       ?recalcdir@@YAXPAUphysent@@ABUvec@@AAU2@@Z 004b860c f   physics.obj
 0001:000b7c72       ?mmcollide@@YA_NPAUphysent@@ABUvec@@AAUoctaentities@@@Z 004b8c72 f   physics.obj
 0001:000b7e41       ?rotatebb@@YAXAAUvec@@0H@Z 004b8e41 f   physics.obj
 0001:000b804b       ?plcollide@@YA_NPAUphysent@@ABUvec@@@Z 004b904b f   physics.obj
 0001:000b82ed       ?overlapsdynent@@YA_NABUvec@@M@Z 004b92ed f   physics.obj
 0001:000b83f8       ?updatedynentcache@@YAXPAUphysent@@@Z 004b93f8 f   physics.obj
 0001:000b8506       ?checkdynentcache@@YAABU?$vector@PAUphysent@@@@HH@Z 004b9506 f   physics.obj
 0001:000b8627       ?var_dynentsize@@YAXXZ     004b9627 f   physics.obj
 0001:000b862c       ?cleardynentcache@@YAXXZ   004b962c f   physics.obj
 0001:000b865a       ?rectcollide@@YA_NPAUphysent@@ABUvec@@1MMMME@Z 004b965a f   physics.obj
 0001:000b89ab       ?ellipsecollide@@YA_NPAUphysent@@ABUvec@@11MMMMM@Z 004b99ab f   physics.obj
 0001:000b8d5b       ?ellipserectcollide@@YA_NPAUphysent@@ABUvec@@11MMMMM@Z 004b9d5b f   physics.obj
 0001:000b90ef       ?rayfloor@@YAMABUvec@@AAU1@HM@Z 004ba0ef f   physics.obj
 0001:000b9168       ?raycubelos@@YA_NABUvec@@0AAU1@@Z 004ba168 f   physics.obj
 0001:000b9299       ?raycubepos@@YAMABUvec@@0AAU1@MHH@Z 004ba299 f   physics.obj
 0001:000b9a34       ?gencubeclip@@YAXAAUcube@@ABUivec@@H@Z 004baa34 f   physics.obj
 0001:000b9a95       ?entinmap@@YA_NPAUdynent@@_N@Z 004baa95 f   physics.obj
 0001:000b9c5f       ?rayent@@YAMABUvec@@0MHHAAH1@Z 004bac5f f   physics.obj
 0001:000b9d0e       ?freeclipplanes@@YAXAAUcube@@@Z 004bad0e f   physics.obj
 0001:000b9d33       ?pointincube@@YA_NABUclipplanes@@ABUvec@@@Z 004bad33 f   physics.obj
 0001:000b9da1       ?raycube@@YAMABUvec@@0MHHPAUextentity@@@Z 004bada1 f   physics.obj
 0001:000ba3e3       ?vecfromyawpitch@@YAXMMHHAAUvec@@@Z 004bb3e3 f   physics.obj
 0001:000ba5ae       ?shadowray@@YAMPAUShadowRayCache@@ABUvec@@1MHPAUextentity@@@Z 004bb5ae f   physics.obj
 0001:000bade2       ?shadowray@@YAMABUvec@@0MHPAUextentity@@@Z 004bbde2 f   physics.obj
 0001:000bb5e2       ?newshadowraycache@@YAPAUShadowRayCache@@XZ 004bc5e2 f   physics.obj
 0001:000bb616       ?freeshadowraycache@@YAXAAPAUShadowRayCache@@@Z 004bc616 f   physics.obj
 0001:000bb62c       ?resetshadowraycache@@YAXPAUShadowRayCache@@@Z 004bc62c f   physics.obj
 0001:000bb64f       ?collide@@YA_NPAUphysent@@ABUvec@@M_N@Z 004bc64f f   physics.obj
 0001:000bb709       ?dropenttofloor@@YAXPAUentity@@@Z 004bc709 f   physics.obj
 0001:000bb80e       ?getnumviewcells@@YAHXZ    004bc80e f   pvs.obj
 0001:000bb814       ?loadpvs@@YAXPAUstream@@H@Z 004bc814 f   pvs.obj
 0001:000bb8f0       ?loadviewcells@@YAPAUviewcellnode@@PAUstream@@@Z 004bc8f0 f   pvs.obj
 0001:000bb972       ?savepvs@@YAXPAUstream@@@Z 004bc972 f   pvs.obj
 0001:000bba15       ?saveviewcells@@YAXPAUstream@@AAUviewcellnode@@@Z 004bca15 f   pvs.obj
 0001:000bba58       ?waterpvsoccluded@@YA_NH@Z 004bca58 f   pvs.obj
 0001:000bbca5       ?pvsstats@@YAXXZ           004bcca5 f   pvs.obj
 0001:000bbceb       ?genpvs@@YAXPAH@Z          004bcceb f   pvs.obj
 0001:000bc0e0       ?testpvs@@YAXPAH@Z         004bd0e0 f   pvs.obj
 0001:000bc3f7       ?clearpvs@@YAXXZ           004bd3f7 f   pvs.obj
 0001:000bc446       ?setviewcell@@YAXABUvec@@@Z 004bd446 f   pvs.obj
 0001:000bc4f1       ?var_lockpvs@@YAXXZ        004bd4f1 f   pvs.obj
 0001:000bcf81       ?pvsoccluded@@YA_NABUivec@@0@Z 004bdf81 f   pvs.obj
 0001:000bcfe3       ?gl_drawhud@@YAXHH@Z       004bdfe3 f   rendergl.obj
 0001:000bd8de       ?drawcrosshair@@YAXHH@Z    004be8de f   rendergl.obj
 0001:000bdbe2       ?run@?$_icmd_getcrosshair@$0IIH@@@SAXPAH@Z 004bebe2 f   rendergl.obj
 0001:000bdc1a       ?loadcrosshair_@@YAXPBDPAH@Z 004bec1a f   rendergl.obj
 0001:000bdc29       ?loadcrosshair@@YAXPBDH@Z  004bec29 f   rendergl.obj
 0001:000bdc8e       ?screenjumpcheck@@YAXXZ    004bec8e f   rendergl.obj
 0001:000bdd4a       ?screenjump@@YAXXZ         004bed4a f   rendergl.obj
 0001:000bdd9c       ?crosshairbumpcheck@@YAXXZ 004bed9c f   rendergl.obj
 0001:000bde0b       ?crosshairbump@@YAXXZ      004bee0b f   rendergl.obj
 0001:000bde3d       ?drawdamagescreen@@YAXHH@Z 004bee3d f   rendergl.obj
 0001:000be04a       ?damageblend@@YAXH_N@Z     004bf04a f   rendergl.obj
 0001:000be0a7       ?removedamagescreen@@YAXXZ 004bf0a7 f   rendergl.obj
 0001:000be0af       ?var_damagescreen@@YAXXZ   004bf0af f   rendergl.obj
 0001:000be0c5       ?drawdamagecompass@@YAXHH@Z 004bf0c5 f   rendergl.obj
 0001:000be351       ?damagecompass@@YAXHABUvec@@@Z 004bf351 f   rendergl.obj
 0001:000be4ee       ?addmotionblur@@YAXXZ      004bf4ee f   rendergl.obj
 0001:000be7fe       ?var_motionblur@@YAXXZ     004bf7fe f   rendergl.obj
 0001:000be80c       ?clipminimap@@YAXAAUivec@@0PAUcube@@HHHH@Z 004bf80c f   rendergl.obj
 0001:000be8e1       ?bindminimap@@YAXXZ        004bf8e1 f   rendergl.obj
 0001:000be8f3       ?var_minimapsize@@YAXXZ    004bf8f3 f   rendergl.obj
 0001:000be901       ?var_minimapcolour@@YAXXZ  004bf901 f   rendergl.obj
 0001:000be922       ?drawcubemap@@YAXHABUvec@@MMABUcubemapside@@@Z 004bf922 f   rendergl.obj
 0001:000beb52       ?drawreflection@@YAXM_N@Z  004bfb52 f   rendergl.obj
 0001:000bf4a6       ?rendergame@@YAX_N@Z       004c04a6 f   rendergl.obj
 0001:000bf4c7       ?drawfogoverlay@@YAXHMH@Z  004c04c7 f   rendergl.obj
 0001:000bf9e4       ?var_fogcolour@@YAXXZ      004c09e4 f   rendergl.obj
 0001:000bfa05       ?setenvmatrix@@YAXXZ       004c0a05 f   rendergl.obj
 0001:000bfaf6       ?popscissor@@YAXXZ         004c0af6 f   rendergl.obj
 0001:000bfb37       ?pushscissor@@YAHMMMM@Z    004c0b37 f   rendergl.obj
 0001:000bfd6e       ?calcspherescissor@@YAXABUvec@@MAAM111@Z 004c0d6e f   rendergl.obj
 0001:000c0134       ?popprojection@@YAXXZ      004c1134 f   rendergl.obj
 0001:000c0185       ?pushprojection@@YAXABUglmatrixf@@@Z 004c1185 f   rendergl.obj
 0001:000c01e1       ?calcavatarpos@@YA?AUvec@@ABU1@M@Z 004c11e1 f   rendergl.obj
 0001:000c04bd       ?project@@YAXMMH_N00M@Z    004c14bd f   rendergl.obj
 0001:000c0611       ?readmatrices@@YAXXZ       004c1611 f   rendergl.obj
 0001:000c065c       ?fixcamerarange@@YAXXZ     004c165c f   rendergl.obj
 0001:000c06c3       ?isthirdperson@@YA_NXZ     004c16c3 f   rendergl.obj
 0001:000c06e8       ?computezoom@@YAXXZ        004c16e8 f   rendergl.obj
 0001:000c0885       ?var_zoom@@YAXXZ           004c1885 f   rendergl.obj
 0001:000c089e       ?transplayer@@YAXXZ        004c189e f   rendergl.obj
 0001:000c0962       ?findorientation@@YAXXZ    004c1962 f   rendergl.obj
 0001:000c0ac0       ?run@?$_icmd_getcampos@$0COB@@@SAXXZ 004c1ac0 f   rendergl.obj
 0001:000c0c98       ?glext@@YAXPAD@Z           004c1c98 f   rendergl.obj
 0001:000c0d21       ?getprocaddress@@YAPAXPBD@Z 004c1d21 f   rendergl.obj
 0001:000c0d2a       ?clearminimap@@YAXXZ       004c1d2a f   rendergl.obj
 0001:000c0d4f       ?cleanupmotionblur@@YAXXZ  004c1d4f f   rendergl.obj
 0001:000c0d81       ?drawminimap@@YAXXZ        004c1d81 f   rendergl.obj
 0001:000c140d       ?invalidatepostfx@@YAXXZ   004c240d f   rendergl.obj
 0001:000c1415       ?defattrib@varray@@YAXHHI@Z 004c2415 f   rendergl.obj
 0001:000c14c5       ?begin@varray@@YAXI@Z      004c24c5 f   rendergl.obj
 0001:000c14cc       ?end@varray@@YAHXZ         004c24cc f   rendergl.obj
 0001:000c160e       ?enable@varray@@YAXXZ      004c260e f   rendergl.obj
 0001:000c1625       ?disable@varray@@YAXXZ     004c2625 f   rendergl.obj
 0001:000c169e       ?gl_init@@YAXHHHHH@Z       004c269e f   rendergl.obj
 0001:000c1826       ?mousemove@@YAXHH@Z        004c2826 f   rendergl.obj
 0001:000c199f       ?gl_checkextensions@@YAXXZ 004c299f f   rendergl.obj
 0001:000c2a77       ?recomputecamera@@YAXXZ    004c3a77 f   rendergl.obj
 0001:000c2c86       ?gl_drawmainmenu@@YAXHH@Z  004c3c86 f   rendergl.obj
 0001:000c2d4f       ?gl_drawframe@@YAXHH@Z     004c3d4f f   rendergl.obj
 0001:000c32f1       ?cleanupgl@@YAXXZ          004c42f1 f   rendergl.obj
 0001:000c330c       ?drawglare@@YAXXZ          004c430c f   rendergl.obj
 0001:000c34d0       ?writecrosshairs@@YAXPAUstream@@@Z 004c44d0 f   rendergl.obj
 0001:000c3510       ?enablepolygonoffset@@YAXI@Z 004c4510 f   rendergl.obj
 0001:000c35f6       ?disablepolygonoffset@@YAXI@Z 004c45f6 f   rendergl.obj
 0001:000c37e0       ?setbbfrommodel@@YAXPAUdynent@@PBD@Z 004c47e0 f   rendermodel.obj
 0001:000c3917       ?renderclient@@YAXPAUdynent@@PBDPAUmodelattach@@HHHHHM_N@Z 004c4917 f   rendermodel.obj
 0001:000c3caf       ?loadskin@@YAXPBD0AAPAUTexture@@1@Z 004c4caf f   rendermodel.obj
 0001:000c3e4e       ?findanims@@YAXPBDAAU?$vector@H@@@Z 004c4e4e f   rendermodel.obj
 0001:000c3e95       ?matchanim@@YA_NPBD0@Z     004c4e95 f   rendermodel.obj
 0001:000c3f0e       ?abovemodel@@YAXAAUvec@@PBD@Z 004c4f0e f   rendermodel.obj
 0001:000c3f51       ?rendermodel@@YAXPAUentitylight@@PBDHABUvec@@MMHPAUdynent@@PAUmodelattach@@HHM@Z 004c4f51 f   rendermodel.obj
 0001:000c49c7       ?rendermodelquery@@YAXPAUmodel@@PAUdynent@@ABUvec@@M@Z 004c59c7 f   rendermodel.obj
 0001:000c4b7e       ?endmodelquery@@YAXXZ      004c5b7e f   rendermodel.obj
 0001:000c4c86       ?startmodelquery@@YAXPAUoccludequery@@@Z 004c5c86 f   rendermodel.obj
 0001:000c4c8d       ?endmodelbatches@@YAXXZ    004c5c8d f   rendermodel.obj
 0001:000c5072       ?renderbatchedmodel@@YAXPAUmodel@@AAUbatchedmodel@@@Z 004c6072 f   rendermodel.obj
 0001:000c5136       ?addbatchedmodel@@YAAAUmodelbatch@@PAUmodel@@@Z 004c6136 f   rendermodel.obj
 0001:000c51f8       ?startmodelbatches@@YAXXZ  004c61f8 f   rendermodel.obj
 0001:000c5207       ?renderellipse@@YAXAAUvec@@MMM@Z 004c6207 f   rendermodel.obj
 0001:000c5330       ?render3dbox@@YAXAAUvec@@MMMM@Z 004c6330 f   rendermodel.obj
 0001:000c547e       ?render2dbox@@YAXAAUvec@@MMM@Z 004c647e f   rendermodel.obj
 0001:000c555d       ?modeloccluded@@YA_NABUvec@@M@Z 004c655d f   rendermodel.obj
 0001:000c5615       ?clearmodel@@YAXPAD@Z      004c6615 f   rendermodel.obj
 0001:000c56e8       ?preloadmodelshaders@@YAXXZ 004c66e8 f   rendermodel.obj
 0001:000c572a       ?flushpreloadedmodels@@YAXXZ 004c672a f   rendermodel.obj
 0001:000c579e       ?preloadmodel@@YAXPBD@Z    004c679e f   rendermodel.obj
 0001:000c57da       ?run@?$_icmd_nummapmodels@$0BFO@@@SAXXZ 004c67da f   rendermodel.obj
 0001:000c57e5       ?run@?$_icmd_mapmodelname@$0BFN@@@SAXPAH@Z 004c67e5 f   rendermodel.obj
 0001:000c5810       ?mapmodelname@@YAPBDH@Z    004c6810 f   rendermodel.obj
 0001:000c582a       ?getmminfo@@YAAAUmapmodelinfo@@H@Z 004c682a f   rendermodel.obj
 0001:000c5844       ?mapmodelreset@@YAXPAH@Z   004c6844 f   rendermodel.obj
 0001:000c587e       ?mapmodelcompat@@YAXPAH00PAD1@Z 004c687e f   rendermodel.obj
 0001:000c5889       ?mmodel@@YAXPAD@Z          004c6889 f   rendermodel.obj
 0001:000c58d7       ?rdanimjoints@@YAXPAH@Z    004c68d7 f   rendermodel.obj
 0001:000c596b       ?rdlimitrot@@YAXPAH0PAM1111@Z 004c696b f   rendermodel.obj
 0001:000c5a88       ?rdlimitdist@@YAXPAH0PAM1@Z 004c6a88 f   rendermodel.obj
 0001:000c5b5a       ?rdjoint@@YAXPAH0PAD11@Z   004c6b5a f   rendermodel.obj
 0001:000c5c68       ?rdtri@@YAXPAH00@Z         004c6c68 f   rendermodel.obj
 0001:000c5d25       ?rdeye@@YAXPAH@Z           004c6d25 f   rendermodel.obj
 0001:000c5db5       ?rdvert@@YAXPAM000@Z       004c6db5 f   rendermodel.obj
 0001:000c5eae       ?mdlname@@YAXXZ            004c6eae f   rendermodel.obj
 0001:000c5ed4       ?mdlextendbb@@YAXPAM00@Z   004c6ed4 f   rendermodel.obj
 0001:000c5f27       ?mdlbb@@YAXPAM00@Z         004c6f27 f   rendermodel.obj
 0001:000c5f5c       ?mdlshadow@@YAXPAH@Z       004c6f5c f   rendermodel.obj
 0001:000c5f83       ?mdlpitch@@YAXPAM@Z        004c6f83 f   rendermodel.obj
 0001:000c5fa6       ?mdlyaw@@YAXPAM@Z          004c6fa6 f   rendermodel.obj
 0001:000c5fc9       ?mdltrans@@YAXPAM00@Z      004c6fc9 f   rendermodel.obj
 0001:000c601c       ?mdlscale@@YAXPAH@Z        004c701c f   rendermodel.obj
 0001:000c6062       ?mdlspin@@YAXPAM0@Z        004c7062 f   rendermodel.obj
 0001:000c608e       ?mdlshader@@YAXPAD@Z       004c708e f   rendermodel.obj
 0001:000c60c0       ?mdlfullbright@@YAXPAM@Z   004c70c0 f   rendermodel.obj
 0001:000c60ed       ?mdlenvmap@@YAXPAM0PAD@Z   004c70ed f   rendermodel.obj
 0001:000c614a       ?mdlglare@@YAXPAM0@Z       004c714a f   rendermodel.obj
 0001:000c6186       ?mdlglow@@YAXPAH@Z         004c7186 f   rendermodel.obj
 0001:000c61d2       ?mdldepthoffset@@YAXPAH@Z  004c71d2 f   rendermodel.obj
 0001:000c61f9       ?mdlalphadepth@@YAXPAH@Z   004c71f9 f   rendermodel.obj
 0001:000c6220       ?mdlalphablend@@YAXPAH@Z   004c7220 f   rendermodel.obj
 0001:000c624d       ?mdlalphatest@@YAXPAM@Z    004c724d f   rendermodel.obj
 0001:000c628a       ?mdlambient@@YAXPAH@Z      004c728a f   rendermodel.obj
 0001:000c62d6       ?mdlspec@@YAXPAH@Z         004c72d6 f   rendermodel.obj
 0001:000c6322       ?mdlellipsecollide@@YAXPAH@Z 004c7322 f   rendermodel.obj
 0001:000c6349       ?mdlcollide@@YAXPAH@Z      004c7349 f   rendermodel.obj
 0001:000c6370       ?mdlcullface@@YAXPAH@Z     004c7370 f   rendermodel.obj
 0001:000c6571       ?iqmnoclip@@YAXPADPAH@Z    004c7571 f   rendermodel.obj
 0001:000c65f6       ?iqmlink@@YAXPAH0PADPAM22@Z 004c75f6 f   rendermodel.obj
 0001:000c6696       ?iqmanimpart@@YAXPAD@Z     004c7696 f   rendermodel.obj
 0001:000c67f0       ?iqmanim@@YAXPAD0PAMPAH@Z  004c77f0 f   rendermodel.obj
 0001:000c6923       ?iqmscroll@@YAXPADPAM1@Z   004c7923 f   rendermodel.obj
 0001:000c69b6       ?iqmshader@@YAXPAD0@Z      004c79b6 f   rendermodel.obj
 0001:000c6a42       ?iqmfullbright@@YAXPADPAM@Z 004c7a42 f   rendermodel.obj
 0001:000c6acb       ?iqmbumpmap@@YAXPAD00@Z    004c7acb f   rendermodel.obj
 0001:000c6bc7       ?iqmenvmap@@YAXPAD0@Z      004c7bc7 f   rendermodel.obj
 0001:000c6c62       ?iqmcullface@@YAXPADPAH@Z  004c7c62 f   rendermodel.obj
 0001:000c6cf0       ?iqmalphablend@@YAXPADPAH@Z 004c7cf0 f   rendermodel.obj
 0001:000c6d7e       ?iqmalphatest@@YAXPADPAM@Z 004c7d7e f   rendermodel.obj
 0001:000c6e1f       ?iqmglare@@YAXPADPAM1@Z    004c7e1f f   rendermodel.obj
 0001:000c6eb2       ?iqmglow@@YAXPADPAH@Z      004c7eb2 f   rendermodel.obj
 0001:000c6f70       ?iqmambient@@YAXPADPAH@Z   004c7f70 f   rendermodel.obj
 0001:000c702e       ?iqmspec@@YAXPADPAH@Z      004c802e f   rendermodel.obj
 0001:000c70ec       ?iqmskin@@YAXPAD00PAM1@Z   004c80ec f   rendermodel.obj
 0001:000c71ec       ?iqmadjust@@YAXPADPAM11111@Z 004c81ec f   rendermodel.obj
 0001:000c72f2       ?iqmpitch@@YAXPADPAM111@Z  004c82f2 f   rendermodel.obj
 0001:000c7429       ?iqmtag@@YAXPAD0@Z         004c8429 f   rendermodel.obj
 0001:000c7490       ?iqmload@@YAXPAD0@Z        004c8490 f   rendermodel.obj
 0001:000c7597       ?setiqmdir@@YAXPAD@Z       004c8597 f   rendermodel.obj
 0001:000c75ce       ?smdnoclip@@YAXPADPAH@Z    004c85ce f   rendermodel.obj
 0001:000c7653       ?smdlink@@YAXPAH0PADPAM22@Z 004c8653 f   rendermodel.obj
 0001:000c76f3       ?smdanimpart@@YAXPAD@Z     004c86f3 f   rendermodel.obj
 0001:000c784d       ?smdanim@@YAXPAD0PAMPAH@Z  004c884d f   rendermodel.obj
 0001:000c7980       ?smdscroll@@YAXPADPAM1@Z   004c8980 f   rendermodel.obj
 0001:000c7a13       ?smdshader@@YAXPAD0@Z      004c8a13 f   rendermodel.obj
 0001:000c7a9f       ?smdfullbright@@YAXPADPAM@Z 004c8a9f f   rendermodel.obj
 0001:000c7b28       ?smdbumpmap@@YAXPAD00@Z    004c8b28 f   rendermodel.obj
 0001:000c7c24       ?smdenvmap@@YAXPAD0@Z      004c8c24 f   rendermodel.obj
 0001:000c7cbf       ?smdcullface@@YAXPADPAH@Z  004c8cbf f   rendermodel.obj
 0001:000c7d4d       ?smdalphablend@@YAXPADPAH@Z 004c8d4d f   rendermodel.obj
 0001:000c7ddb       ?smdalphatest@@YAXPADPAM@Z 004c8ddb f   rendermodel.obj
 0001:000c7e7c       ?smdglare@@YAXPADPAM1@Z    004c8e7c f   rendermodel.obj
 0001:000c7f0f       ?smdglow@@YAXPADPAH@Z      004c8f0f f   rendermodel.obj
 0001:000c7fcd       ?smdambient@@YAXPADPAH@Z   004c8fcd f   rendermodel.obj
 0001:000c808b       ?smdspec@@YAXPADPAH@Z      004c908b f   rendermodel.obj
 0001:000c8149       ?smdskin@@YAXPAD00PAM1@Z   004c9149 f   rendermodel.obj
 0001:000c8249       ?smdadjust@@YAXPADPAM11111@Z 004c9249 f   rendermodel.obj
 0001:000c834f       ?smdpitch@@YAXPADPAM111@Z  004c934f f   rendermodel.obj
 0001:000c8486       ?smdtag@@YAXPAD0@Z         004c9486 f   rendermodel.obj
 0001:000c84ed       ?smdload@@YAXPAD0@Z        004c94ed f   rendermodel.obj
 0001:000c85f4       ?setsmddir@@YAXPAD@Z       004c95f4 f   rendermodel.obj
 0001:000c86c3       ?objnoclip@@YAXPADPAH@Z    004c96c3 f   rendermodel.obj
 0001:000c8748       ?objscroll@@YAXPADPAM1@Z   004c9748 f   rendermodel.obj
 0001:000c87db       ?objshader@@YAXPAD0@Z      004c97db f   rendermodel.obj
 0001:000c8867       ?objfullbright@@YAXPADPAM@Z 004c9867 f   rendermodel.obj
 0001:000c88f0       ?objbumpmap@@YAXPAD00@Z    004c98f0 f   rendermodel.obj
 0001:000c89eb       ?objenvmap@@YAXPAD0@Z      004c99eb f   rendermodel.obj
 0001:000c8a86       ?objcullface@@YAXPADPAH@Z  004c9a86 f   rendermodel.obj
 0001:000c8b14       ?objalphablend@@YAXPADPAH@Z 004c9b14 f   rendermodel.obj
 0001:000c8ba2       ?objalphatest@@YAXPADPAM@Z 004c9ba2 f   rendermodel.obj
 0001:000c8c43       ?objglare@@YAXPADPAM1@Z    004c9c43 f   rendermodel.obj
 0001:000c8cd6       ?objglow@@YAXPADPAH@Z      004c9cd6 f   rendermodel.obj
 0001:000c8d94       ?objambient@@YAXPADPAH@Z   004c9d94 f   rendermodel.obj
 0001:000c8e52       ?objspec@@YAXPADPAH@Z      004c9e52 f   rendermodel.obj
 0001:000c8f10       ?objskin@@YAXPAD00PAM1@Z   004c9f10 f   rendermodel.obj
 0001:000c9010       ?objpitch@@YAXPAM000@Z     004ca010 f   rendermodel.obj
 0001:000c9099       ?objload@@YAXPADPAM@Z      004ca099 f   rendermodel.obj
 0001:000c91d8       ?md5noclip@@YAXPADPAH@Z    004ca1d8 f   rendermodel.obj
 0001:000c925d       ?md5link@@YAXPAH0PADPAM22@Z 004ca25d f   rendermodel.obj
 0001:000c92fd       ?md5animpart@@YAXPAD@Z     004ca2fd f   rendermodel.obj
 0001:000c9457       ?md5anim@@YAXPAD0PAMPAH@Z  004ca457 f   rendermodel.obj
 0001:000c958a       ?md5scroll@@YAXPADPAM1@Z   004ca58a f   rendermodel.obj
 0001:000c961d       ?md5shader@@YAXPAD0@Z      004ca61d f   rendermodel.obj
 0001:000c96a9       ?md5fullbright@@YAXPADPAM@Z 004ca6a9 f   rendermodel.obj
 0001:000c9732       ?md5bumpmap@@YAXPAD00@Z    004ca732 f   rendermodel.obj
 0001:000c982e       ?md5envmap@@YAXPAD0@Z      004ca82e f   rendermodel.obj
 0001:000c98c9       ?md5cullface@@YAXPADPAH@Z  004ca8c9 f   rendermodel.obj
 0001:000c9957       ?md5alphablend@@YAXPADPAH@Z 004ca957 f   rendermodel.obj
 0001:000c99e5       ?md5alphatest@@YAXPADPAM@Z 004ca9e5 f   rendermodel.obj
 0001:000c9a86       ?md5glare@@YAXPADPAM1@Z    004caa86 f   rendermodel.obj
 0001:000c9b19       ?md5glow@@YAXPADPAH@Z      004cab19 f   rendermodel.obj
 0001:000c9bd7       ?md5ambient@@YAXPADPAH@Z   004cabd7 f   rendermodel.obj
 0001:000c9c95       ?md5spec@@YAXPADPAH@Z      004cac95 f   rendermodel.obj
 0001:000c9d53       ?md5skin@@YAXPAD00PAM1@Z   004cad53 f   rendermodel.obj
 0001:000c9e53       ?md5adjust@@YAXPADPAM11111@Z 004cae53 f   rendermodel.obj
 0001:000c9f59       ?md5pitch@@YAXPADPAM111@Z  004caf59 f   rendermodel.obj
 0001:000ca090       ?md5tag@@YAXPAD0@Z         004cb090 f   rendermodel.obj
 0001:000ca0f7       ?md5load@@YAXPAD0PAM@Z     004cb0f7 f   rendermodel.obj
 0001:000ca24b       ?setmd5dir@@YAXPAD@Z       004cb24b f   rendermodel.obj
 0001:000ca282       ?md3noclip@@YAXPADPAH@Z    004cb282 f   rendermodel.obj
 0001:000ca301       ?md3link@@YAXPAH0PADPAM22@Z 004cb301 f   rendermodel.obj
 0001:000ca3a1       ?md3anim@@YAXPADPAH1PAM1@Z 004cb3a1 f   rendermodel.obj
 0001:000ca464       ?md3scroll@@YAXPADPAM1@Z   004cb464 f   rendermodel.obj
 0001:000ca4f1       ?md3shader@@YAXPAD0@Z      004cb4f1 f   rendermodel.obj
 0001:000ca577       ?md3fullbright@@YAXPADPAM@Z 004cb577 f   rendermodel.obj
 0001:000ca5fa       ?md3bumpmap@@YAXPAD00@Z    004cb5fa f   rendermodel.obj
 0001:000ca6eb       ?md3envmap@@YAXPAD0@Z      004cb6eb f   rendermodel.obj
 0001:000ca780       ?md3cullface@@YAXPADPAH@Z  004cb780 f   rendermodel.obj
 0001:000ca808       ?md3alphablend@@YAXPADPAH@Z 004cb808 f   rendermodel.obj
 0001:000ca890       ?md3alphatest@@YAXPADPAM@Z 004cb890 f   rendermodel.obj
 0001:000ca927       ?md3glare@@YAXPADPAM1@Z    004cb927 f   rendermodel.obj
 0001:000ca9b4       ?md3glow@@YAXPADPAH@Z      004cb9b4 f   rendermodel.obj
 0001:000caa6c       ?md3ambient@@YAXPADPAH@Z   004cba6c f   rendermodel.obj
 0001:000cab24       ?md3spec@@YAXPADPAH@Z      004cbb24 f   rendermodel.obj
 0001:000cabdc       ?md3skin@@YAXPAD00PAM1@Z   004cbbdc f   rendermodel.obj
 0001:000cacd6       ?md3pitch@@YAXPAM000@Z     004cbcd6 f   rendermodel.obj
 0001:000cad5f       ?md3load@@YAXPAD@Z         004cbd5f f   rendermodel.obj
 0001:000cae50       ?md2anim@@YAXPADPAH1PAM1@Z 004cbe50 f   rendermodel.obj
 0001:000caf13       ?md2pitch@@YAXPAM000@Z     004cbf13 f   rendermodel.obj
 0001:000cafc2       ?var_bumpmodels@@YAXXZ     004cbfc2 f   rendermodel.obj
 0001:000cafc7       ?var_glowmodels@@YAXXZ     004cbfc7 f   rendermodel.obj
 0001:000cafcc       ?var_envmapmodels@@YAXXZ   004cbfcc f   rendermodel.obj
 0001:000cafd1       ?var_lightmodels@@YAXXZ    004cbfd1 f   rendermodel.obj
 0001:000cafd6       ?cleanragdoll@@YAXPAUdynent@@@Z 004cbfd6 f   rendermodel.obj
 0001:000cafff       ?moveragdoll@@YAXPAUdynent@@@Z 004cbfff f   rendermodel.obj
 0001:000cb19f       ?move@ragdolldata@@QAEXPAUdynent@@M@Z 004cc19f f   rendermodel.obj
 0001:000cb799       ?constrain@ragdolldata@@QAEXXZ 004cc799 f   rendermodel.obj
 0001:000cb7d8       ?updatepos@ragdolldata@@QAEXXZ 004cc7d8 f   rendermodel.obj
 0001:000cb9e7       ?applyrotfriction@ragdolldata@@QAEXM@Z 004cc9e7 f   rendermodel.obj
 0001:000cbbeb       ?calcrotfriction@ragdolldata@@QAEXXZ 004ccbeb f   rendermodel.obj
 0001:000cbdaf       ?constrainrot@ragdolldata@@QAEXXZ 004ccdaf f   rendermodel.obj
 0001:000cbe92       ?constraindist@ragdolldata@@QAEXXZ 004cce92 f   rendermodel.obj
 0001:000cc09a       ?cleanupmodels@@YAXXZ      004cd09a f   rendermodel.obj
 0001:000cc0d3       ?clear_mdls@@YAXXZ         004cd0d3 f   rendermodel.obj
 0001:000cc111       ?preloadusedmapmodels@@YAX_N0@Z 004cd111 f   rendermodel.obj
 0001:000cc262       ?loadmodel@@YAPAUmodel@@PBDH_N@Z 004cd262 f   rendermodel.obj
 0001:000cc6a1       ?printparticles@@YA_NAAUextentity@@PAD@Z 004cd6a1 f   renderparticles.obj
 0001:000cd204       ?regular_particle_flame@@YAXHABUvec@@MMHHMMMH@Z 004ce204 f   renderparticles.obj
 0001:000cd3b6       ?regularshape@@YAXHHHHHHABUvec@@MHMU1@_N22@Z 004ce3b6 f   renderparticles.obj
 0001:000ce01f       ?particle_fireball@@YAXABUvec@@MHHHM@Z 004cf01f f   renderparticles.obj
 0001:000ce086       ?particle_flare@@YAXABUvec@@0HHHMPAUphysent@@H@Z 004cf086 f   renderparticles.obj
 0001:000ce0ba       ?particle_meter@@YAXABUvec@@MHHHHM@Z 004cf0ba f   renderparticles.obj
 0001:000ce13b       ?particle_icon@@YAXABUvec@@HHHHHMH@Z 004cf13b f   renderparticles.obj
 0001:000ce18d       ?particle_textcopy@@YAXABUvec@@PBDHHHMH@Z 004cf18d f   renderparticles.obj
 0001:000ce21a       ?particle_text@@YAXABUvec@@PBDHHHMH@Z 004cf21a f   renderparticles.obj
 0001:000ce28d       ?particle_trail@@YAXHHABUvec@@0HMH_N@Z 004cf28d f   renderparticles.obj
 0001:000ce413       ?regular_particle_splash@@YAXHHHABUvec@@HMHHH_NH@Z 004cf413 f   renderparticles.obj
 0001:000ce44c       ?canaddparticles@@YA_NXZ   004cf44c f   renderparticles.obj
 0001:000ce464       ?particle_flying_flare@@YAXABUvec@@0HHHMH@Z 004cf464 f   renderparticles.obj
 0001:000ce484       ?particle_explodesplash@@YAXABUvec@@HHHMHH@Z 004cf484 f   renderparticles.obj
 0001:000ce7e6       ?newparticle@@YAPAUparticle@@ABUvec@@0HHHMHH@Z 004cf7e6 f   renderparticles.obj
 0001:000ce860       ?removetrackedparticles@@YAXPAUphysent@@@Z 004cf860 f   renderparticles.obj
 0001:000ce87f       ?clearparticles@@YAXXZ     004cf87f f   renderparticles.obj
 0001:000ce89d       ?var_fewparticles@@YAXXZ   004cf89d f   renderparticles.obj
 0001:000ce8a2       ?var_maxparticles@@YAXXZ   004cf8a2 f   renderparticles.obj
 0001:000d02dc       ?binddepthfxparams@@YAXMM_NPAX@Z 004d12dc f   renderparticles.obj
 0001:000d0516       ?binddepthfxtex@@YA_NXZ    004d1516 f   renderparticles.obj
 0001:000d0606       ?var_depthfxfilter@@YAXXZ  004d1606 f   renderparticles.obj
 0001:000d0613       ?var_depthfxrect@@YAXXZ    004d1613 f   renderparticles.obj
 0001:000d0620       ?var_depthfxsize@@YAXXZ    004d1620 f   renderparticles.obj
 0001:000d062d       ?var_depthfxprecision@@YAXXZ 004d162d f   renderparticles.obj
 0001:000d063a       ?var_fpdepthfx@@YAXXZ      004d163a f   renderparticles.obj
 0001:000d0c51       ?addparticleemitters@@YAXXZ 004d1c51 f   renderparticles.obj
 0001:000d0cf2       ?clearparticleemitters@@YAXXZ 004d1cf2 f   renderparticles.obj
 0001:000d0d35       ?finddepthfxranges@@YAXXZ  004d1d35 f   renderparticles.obj
 0001:000d0e4f       ?particle_splash@@YAXHHHABUvec@@HMHH_NH1H@Z 004d1e4f f   renderparticles.obj
 0001:000d0e8a       ?renderparticles@@YAX_N0@Z 004d1e8a f   renderparticles.obj
 0001:000d14bd       ?drawdepthfxtex@@YAXXZ     004d24bd f   renderparticles.obj
 0001:000d151b       ?viewdepthfxtex@@YAXXZ     004d251b f   renderparticles.obj
 0001:000d152f       ?seedparticles@@YAXXZ      004d252f f   renderparticles.obj
 0001:000d15f6       ?particleinit@@YAXXZ       004d25f6 f   renderparticles.obj
 0001:000d165f       ?updateparticles@@YAXXZ    004d265f f   renderparticles.obj
 0001:000d191d       ?cleanupparticles@@YAXXZ   004d291d f   renderparticles.obj
 0001:000d1937       ?cleanupdepthfx@@YAXXZ     004d2937 f   renderparticles.obj
 0001:000d1be1       ?drawskyoutline@@YAXXZ     004d2be1 f   rendersky.obj
 0001:000d1c91       ?drawskylimits@@YA_N_N@Z   004d2c91 f   rendersky.obj
 0001:000d1f1b       ?var_fogdomecolour@@YAXXZ  004d2f1b f   rendersky.obj
 0001:000d28f0       ?draw_env_overlay@@YAXHPAUTexture@@MM@Z 004d38f0 f   rendersky.obj
 0001:000d2c9a       ?draw_envbox@@YAXHMMHPAPAUTexture@@@Z 004d3c9a f   rendersky.obj
 0001:000d2ff5       ?draw_envbox_face@@YAXMMHHHMMHHHMMHHHMMHHHI@Z 004d3ff5 f   rendersky.obj
 0001:000d316e       ?var_cloudlayer@@YAXXZ     004d416e f   rendersky.obj
 0001:000d3183       ?var_cloudbox@@YAXXZ       004d4183 f   rendersky.obj
 0001:000d3199       ?var_skybox@@YAXXZ         004d4199 f   rendersky.obj
 0001:000d31af       ?loadskyoverlay@@YAPAUTexture@@PBD@Z 004d41af f   rendersky.obj
 0001:000d3257       ?loadsky@@YAXPBDQAPAUTexture@@@Z 004d4257 f   rendersky.obj
 0001:000d3322       ?drawskybox@@YAXH_N@Z      004d4322 f   rendersky.obj
 0001:000d3bb8       ?limitsky@@YA_NXZ          004d4bb8 f   rendersky.obj
 0001:000d3c14       ?cleanupsky@@YAXXZ         004d4c14 f   rendersky.obj
 0001:000d3ff8       ?tabify@@YAXPBDPAH@Z       004d4ff8 f   rendertext.obj
 0001:000d40c4       ?popfont@@YA_NXZ           004d50c4 f   rendertext.obj
 0001:000d40e8       ?pushfont@@YAXXZ           004d50e8 f   rendertext.obj
 0001:000d411a       ?fontchar@@YAXPAH000@Z     004d511a f   rendertext.obj
 0001:000d4189       ?fontoffset@@YAXPAD@Z      004d5189 f   rendertext.obj
 0001:000d419e       ?newfont@@YAXPAD0PAH11111@Z 004d519e f   rendertext.obj
 0001:000d4239       ?draw_textf@@YAXPBDHHZZ    004d5239 f   rendertext.obj
 0001:000d4281       ?gettextres@@YAXAAH0@Z     004d5281 f   rendertext.obj
 0001:000d42c8       ?setfont@@YA_NPBD@Z        004d52c8 f   rendertext.obj
 0001:000d42e9       ?reloadfonts@@YAXXZ        004d52e9 f   rendertext.obj
 0001:000d432f       ?text_pos@@YAXPBDHAAH1H@Z  004d532f f   rendertext.obj
 0001:000d454c       ?text_visible@@YAHPBDHHH@Z 004d554c f   rendertext.obj
 0001:000d471b       ?text_bounds@@YAXPBDAAH1H@Z 004d571b f   rendertext.obj
 0001:000d48bb       ?draw_text@@YAXPBDHHHHHHHH@Z 004d58bb f   rendertext.obj
 0001:000d4ca6       ?text_width@@YAHPBD@Z      004d5ca6 f   rendertext.obj
 0001:000d4dcb       ?renderreflectedskyvas@@YAXAAU?$vector@PAUvtxarray@@@@H@Z 004d5dcb f   renderva.obj
 0001:000d4ed7       ?renderskyva@@YAXPAUvtxarray@@_N@Z 004d5ed7 f   renderva.obj
 0001:000d4f8d       ?findreflectedvas@@YAXAAU?$vector@PAUvtxarray@@@@H@Z 004d5f8d f   renderva.obj
 0001:000d53e6       ?cleanupTMUs@@YAXAAUrenderstate@@M_N@Z 004d63e6 f   renderva.obj
 0001:000d558e       ?setupTMUs@@YAXAAUrenderstate@@M_N@Z 004d658e f   renderva.obj
 0001:000d58dc       ?setupcaustics@@YAXHMPAM@Z 004d68dc f   renderva.obj
 0001:000d5b3e       ?var_caustics@@YAXXZ       004d6b3e f   renderva.obj
 0001:000d5c8a       ?renderva@@YAXAAUrenderstate@@PAUvtxarray@@H_N2@Z 004d6c8a f   renderva.obj
 0001:000d5fd2       ?rendershadowmappass@@YAXAAUrenderstate@@PAUvtxarray@@@Z 004d6fd2 f   renderva.obj
 0001:000d604e       ?renderfoggedvas@@YAXAAUrenderstate@@_N@Z 004d704e f   renderva.obj
 0001:000d6144       ?renderzpass@@YAXAAUrenderstate@@PAUvtxarray@@@Z 004d7144 f   renderva.obj
 0001:000d822e       ?renderquery@@YAXAAUrenderstate@@PAUoccludequery@@PAUvtxarray@@_N@Z 004d922e f   renderva.obj
 0001:000d82e9       ?rendershadowmapreceivers@@YAXXZ 004d92e9 f   renderva.obj
 0001:000d8629       ?rendermapmodel@@YAXAAUextentity@@@Z 004d9629 f   renderva.obj
 0001:000d86b9       ?findvisiblemms@@YAXABU?$vector@PAUextentity@@@@@Z 004d96b9 f   renderva.obj
 0001:000d88cd       ?clearqueries@@YAXXZ       004d98cd f   renderva.obj
 0001:000d890f       ?flipqueries@@YAXXZ        004d990f f   renderva.obj
 0001:000d89d6       ?restorevfcP@@YAXXZ        004d99d6 f   renderva.obj
 0001:000d89ef       ?savevfcP@@YAXXZ           004d99ef f   renderva.obj
 0001:000d8a04       ?setvfcP@@YAXMABUvec@@0@Z  004d9a04 f   renderva.obj
 0001:000d8cf2       ?calcvfcD@@YAXXZ           004d9cf2 f   renderva.obj
 0001:000d8d4c       ?findvisiblevas@@YAXAAU?$vector@PAUvtxarray@@@@_N@Z 004d9d4c f   renderva.obj
 0001:000d8e0d       ?sortvisiblevas@@YAXXZ     004d9e0d f   renderva.obj
 0001:000d8e40       ?addvisibleva@@YAXPAUvtxarray@@@Z 004d9e40 f   renderva.obj
 0001:000d8e92       ?vadist@@YAMPAUvtxarray@@ABUvec@@@Z 004d9e92 f   renderva.obj
 0001:000d8eae       ?isvisiblecube@@YAHABUivec@@H@Z 004d9eae f   renderva.obj
 0001:000d9100       ?rendersky@@YA_N_N@Z       004da100 f   renderva.obj
 0001:000d91ca       ?renderdepthobstacles@@YAXABUvec@@0MPAMH@Z 004da1ca f   renderva.obj
 0001:000d94ca       ?bboccluded@@YA_NABUivec@@0@Z 004da4ca f   renderva.obj
 0001:000d967f       ?newquery@@YAPAUoccludequery@@PAX@Z 004da67f f   renderva.obj
 0001:000d96d3       ?drawbb@@YAXABUivec@@0ABUvec@@@Z 004da6d3 f   renderva.obj
 0001:000d97d3       ?checkquery@@YA_NPAUoccludequery@@_N@Z 004da7d3 f   renderva.obj
 0001:000d982b       ?rendergeom@@YAXM_N@Z      004da82b f   renderva.obj
 0001:000da65e       ?renderreflectedmapmodels@@YAXXZ 004db65e f   renderva.obj
 0001:000da7a3       ?renderalphageom@@YAX_N@Z  004db7a3 f   renderva.obj
 0001:000dae2c       ?renderreflectedgeom@@YAX_N0@Z 004dbe2c f   renderva.obj
 0001:000dae64       ?visiblecubes@@YAX_N@Z     004dbe64 f   renderva.obj
 0001:000daf5b       ?rendermapmodels@@YAXXZ    004dbf5b f   renderva.obj
 0001:000db163       ?renderoutline@@YAXXZ      004dc163 f   renderva.obj
 0001:000db32e       ?getnumqueries@@YAHXZ      004dc32e f   renderva.obj
 0001:000db33f       ?resetqueries@@YAXXZ       004dc33f f   renderva.obj
 0001:000db365       ?isvisiblesphere@@YAHMABUvec@@@Z 004dc365 f   renderva.obj
 0001:000db3da       ?loadcaustics@@YAX_N@Z     004dc3da f   renderva.obj
 0001:000db46b       ?cleanupva@@YAXXZ          004dc46b f   renderva.obj
 0001:000db4c4       ?isfoggedsphere@@YA_NMABUvec@@@Z 004dc4c4 f   renderva.obj
 0001:000db557       ?renderblendbrush@@YAXIMMMM@Z 004dc557 f   renderva.obj
 0001:000dbc7a       ?stoplistenserver@@YAXXZ   004dcc7a f   server.obj
 0001:000dbcb7       ?startlistenserver@@YAXPAH@Z 004dccb7 f   server.obj
 0001:000dbd19       ?setuplistenserver@@YA_N_N@Z 004dcd19 f   server.obj
 0001:000dbed3       ?servererror@@YA_N_NPBD@Z  004dced3 f   server.obj
 0001:000dbeef       ?rundedicatedserver@@YAXXZ 004dceef f   server.obj
 0001:000dbf1e       ?flushserver@@YAX_N@Z      004dcf1e f   server.obj
 0001:000dbf3c       ?updatemasterserver@@YAXXZ 004dcf3c f   server.obj
 0001:000dbf77       ?var_serverport@@YAXXZ     004dcf77 f   server.obj
 0001:000dbf8c       ?var_maxclients@@YAXXZ     004dcf8c f   server.obj
 0001:000dbf9f       ?checkserversockets@@YAXXZ 004dcf9f f   server.obj
 0001:000dc10e       ?sendserverinforeply@@YAXAAU?$databuf@E@@@Z 004dd10e f   server.obj
 0001:000dc139       ?flushmasterinput@@YAXXZ   004dd139 f   server.obj
 0001:000dc1ab       ?flushmasteroutput@@YAXXZ  004dd1ab f   server.obj
 0001:000dc218       ?processmasterinput@@YAXXZ 004dd218 f   server.obj
 0001:000dc315       ?requestmasterf@@YA_NPBDZZ 004dd315 f   server.obj
 0001:000dc34a       ?requestmaster@@YA_NPBD@Z  004dd34a f   server.obj
 0001:000dc380       ?connectmaster@@YAIXZ      004dd380 f   server.obj
 0001:000dc406       ?var_masterport@@YAXXZ     004dd406 f   server.obj
 0001:000dc40b       ?var_mastername@@YAXXZ     004dd40b f   server.obj
 0001:000dc410       ?disconnectmaster@@YAXXZ   004dd410 f   server.obj
 0001:000dc457       ?addclient@@YAAAUclient@@XZ 004dd457 f   server.obj
 0001:000dc4df       ?process@@YAXPAU_ENetPacket@@HH@Z 004dd4df f   server.obj
 0001:000dc564       ?kicknonlocalclients@@YAXH@Z 004dd564 f   server.obj
 0001:000dc59a       ?disconnect_client@@YAXHH@Z 004dd59a f   server.obj
 0001:000dc65c       ?sendfile@@YAXHHPAUstream@@PBDZZ 004dd65c f   server.obj
 0001:000dc796       ?sendf@@YAXHHPBDZZ         004dd796 f   server.obj
 0001:000dc933       ?sendpacket@@YAXHHPAU_ENetPacket@@H@Z 004dd933 f   server.obj
 0001:000dc9c3       ?getclientip@@YAIH@Z       004dd9c3 f   server.obj
 0001:000dc9e4       ?getclientpeer@@YAPAU_ENetPeer@@H@Z 004dd9e4 f   server.obj
 0001:000dca02       ?getclientinfo@@YAPAXH@Z   004dda02 f   server.obj
 0001:000dca23       ?getstring@@YAXPADAAU?$databuf@E@@H@Z 004dda23 f   server.obj
 0001:000dca59       ?sendstring@@YAXPBDAAU?$vector@E@@@Z 004dda59 f   server.obj
 0001:000dca5e       ?sendstring@@YAXPBDAAUpacketbuf@@@Z 004dda5e f   server.obj
 0001:000dca63       ?sendstring@@YAXPBDAAU?$databuf@E@@@Z 004dda63 f   server.obj
 0001:000dca68       ?getfloat@@YAMAAU?$databuf@E@@@Z 004dda68 f   server.obj
 0001:000dca7e       ?putfloat@@YAXAAUpacketbuf@@M@Z 004dda7e f   server.obj
 0001:000dcaa1       ?putfloat@@YAXAAU?$databuf@E@@M@Z 004ddaa1 f   server.obj
 0001:000dcab7       ?getuint@@YAHAAU?$databuf@E@@@Z 004ddab7 f   server.obj
 0001:000dcb1c       ?putuint@@YAXAAU?$vector@E@@H@Z 004ddb1c f   server.obj
 0001:000dcb21       ?putuint@@YAXAAUpacketbuf@@H@Z 004ddb21 f   server.obj
 0001:000dcb26       ?getint@@YAHAAU?$databuf@E@@@Z 004ddb26 f   server.obj
 0001:000dcb7f       ?putint@@YAXAAU?$vector@E@@H@Z 004ddb7f f   server.obj
 0001:000dcb84       ?putint@@YAXAAUpacketbuf@@H@Z 004ddb84 f   server.obj
 0001:000dcb89       ?putint@@YAXAAU?$databuf@E@@H@Z 004ddb89 f   server.obj
 0001:000dcb8e       ?cleanupserver@@YAXXZ      004ddb8e f   server.obj
 0001:000dcbd6       ?serveroption@@YA_NPAD@Z   004ddbd6 f   server.obj
 0001:000dcc7c       ?initserver@@YAX_N0@Z      004ddc7c f   server.obj
 0001:000dccc3       ?serverslice@@YAX_NI@Z     004ddcc3 f   server.obj
 0001:000dcfed       ?filtertext@@YAXPADPBD_NH@Z 004ddfed f   server.obj
 0001:000dd03d       ?hasnonlocalclients@@YA_NXZ 004de03d f   server.obj
 0001:000dd048       ?haslocalclients@@YA_NXZ   004de048 f   server.obj
 0001:000dd053       ?localconnect@@YAXXZ       004de053 f   server.obj
 0001:000dd099       ?localdisconnect@@YAX_N@Z  004de099 f   server.obj
 0001:000dd119       ?localclienttoserver@@YAXHPAU_ENetPacket@@@Z 004de119 f   server.obj
 0001:000dd17e       ?run@?$_icmd_clearservers@$0CHA@@@SAXPAH@Z 004de17e f   serverbrowser.obj
 0001:000dd18d       ?run@?$_icmd_keepserver@$0CGP@@@SAXPBDPAH0@Z 004de18d f   serverbrowser.obj
 0001:000dd1ad       ?run@?$_icmd_addserver@$0CGO@@@SAXPBDPAH0@Z 004de1ad f   serverbrowser.obj
 0001:000dd1cd       ?updatefrommaster@@YAXXZ   004de1cd f   serverbrowser.obj
 0001:000dd243       ?retrieveservers@@YAXAAU?$vector@D@@@Z 004de243 f   serverbrowser.obj
 0001:000dd42f       ?clearservers@@YAX_N@Z     004de42f f   serverbrowser.obj
 0001:000dd4e1       ?sortservers@@YAXXZ        004de4e1 f   serverbrowser.obj
 0001:000dd4e9       ?refreshservers@@YAXXZ     004de4e9 f   serverbrowser.obj
 0001:000dd5b0       ?checkpings@@YAXXZ         004de5b0 f   serverbrowser.obj
 0001:000dd7c3       ?checkresolver@@YAXXZ      004de7c3 f   serverbrowser.obj
 0001:000dd874       ?pingservers@@YAXXZ        004de874 f   serverbrowser.obj
 0001:000ddb08       ?connectthread@@YAHPAX@Z   004deb08 f   serverbrowser.obj
 0001:000ddbcf       ?resolvercheck@@YA_NPAPBDPAU_ENetAddress@@@Z 004debcf f   serverbrowser.obj
 0001:000ddc70       ?resolverquery@@YAXPBD@Z   004dec70 f   serverbrowser.obj
 0001:000ddcbc       ?resolverclear@@YAXXZ      004decbc f   serverbrowser.obj
 0001:000ddd2a       ?resolverstop@@YAXAAUresolverthread@@@Z 004ded2a f   serverbrowser.obj
 0001:000ddd70       ?resolverinit@@YAXXZ       004ded70 f   serverbrowser.obj
 0001:000dddf6       ?resolverloop@@YAHPAX@Z    004dedf6 f   serverbrowser.obj
 0001:000ddf28       ?connectwithtimeout@@YAHIPBDABU_ENetAddress@@@Z 004def28 f   serverbrowser.obj
 0001:000de07b       ?showservers@@YAPADPAUg3d_gui@@@Z 004df07b f   serverbrowser.obj
 0001:000de227       ?writeservercfg@@YAXXZ     004df227 f   serverbrowser.obj
 0001:000de345       ?addserver@@YAXPBDH0_N@Z   004df345 f   serverbrowser.obj
 0001:000de42a       ?resolverwait@@YA_NPBDPAU_ENetAddress@@@Z 004df42a f   serverbrowser.obj
 0001:000de62a       ?committmufunc@@YAXI_NAAUtmufunc@@1@Z 004df62a f   shader.obj
 0001:000de75a       ?colortmu@@YAXHMMMM@Z      004df75a f   shader.obj
 0001:000de7f3       ?parsetmufunc@@YAXAAUtmu@@AAUtmufunc@@PBD@Z 004df7f3 f   shader.obj
 0001:000de9cc       ?run@?$_icmd_setpostfx@$0HOA@@@SAXPADPAM111@Z 004df9cc f   shader.obj
 0001:000dea25       ?run@?$_icmd_addpostfx@$0HNK@@@SAXPADPAH10PAM222@Z 004dfa25 f   shader.obj
 0001:000deb0c       ?clearpostfx@@YAXXZ        004dfb0c f   shader.obj
 0001:000deb88       ?cleanuppostfx@@YAX_N@Z    004dfb88 f   shader.obj
 0001:000decc2       ?run@?$_icmd_defuniformparam@$0HCA@@@SAXPADPAM111@Z 004dfcc2 f   shader.obj
 0001:000ded07       ?run@?$_icmd_defpixelparam@$0HBP@@@SAXPADPAHPAM222@Z 004dfd07 f   shader.obj
 0001:000ded56       ?run@?$_icmd_defvertexparam@$0HBO@@@SAXPADPAHPAM222@Z 004dfd56 f   shader.obj
 0001:000deda5       ?run@?$_icmd_setshaderparam@$0HBN@@@SAXPADPAM111@Z 004dfda5 f   shader.obj
 0001:000dede9       ?run@?$_icmd_setuniformparam@$0HBM@@@SAXPADPAM111@Z 004dfde9 f   shader.obj
 0001:000dee2e       ?run@?$_icmd_setpixelparam@$0HBL@@@SAXPAHPAM111@Z 004dfe2e f   shader.obj
 0001:000dee75       ?run@?$_icmd_setvertexparam@$0HBK@@@SAXPAHPAM111@Z 004dfe75 f   shader.obj
 0001:000deebc       ?addshaderparam@@YAXPBDHHMMMM@Z 004dfebc f   shader.obj
 0001:000defb5       ?isshadernative@@YAXPAD@Z  004dffb5 f   shader.obj
 0001:000defd7       ?isshaderdefined@@YAXPAD@Z 004dffd7 f   shader.obj
 0001:000defec       ?run@?$_icmd_forceshader@$0GOG@@@SAXPBD@Z 004dffec f   shader.obj
 0001:000deff5       ?fastshader@@YAXPAD0PAH@Z  004dfff5 f   shader.obj
 0001:000df058       ?altshader@@YAXPAD0@Z      004e0058 f   shader.obj
 0001:000df087       ?linkvslotshader@@YAXAAUVSlot@@_N@Z 004e0087 f   shader.obj
 0001:000df1aa       ?linkslotshader@@YAXAAUSlot@@_N@Z 004e01aa f   shader.obj
 0001:000df2ba       ?setslotshader@@YAXAAUSlot@@@Z 004e02ba f   shader.obj
 0001:000df300       ?resetslotshader@@YAXXZ    004e0300 f   shader.obj
 0001:000df319       ?findshaderparam@@YAPAUShaderParam@@AAUVSlot@@PBDHH@Z 004e0319 f   shader.obj
 0001:000df37b       ?findshaderparam@@YAPAUShaderParam@@AAUSlot@@PBDHH@Z 004e037b f   shader.obj
 0001:000df42e       ?setshader@@YAXPAD@Z       004e042e f   shader.obj
 0001:000df46f       ?variantshader@@YAXPAHPAD011@Z 004e046f f   shader.obj
 0001:000df773       ?shader@@YAXPAHPAD11@Z     004e0773 f   shader.obj
 0001:000dfaf5       ?fixdetailshader@Shader@@QAEX_N0@Z 004e0af5 f   shader.obj
 0001:000dfba7       ?var_shaderdetail@@YAXXZ   004e0ba7 f   shader.obj
 0001:000dfbac       ?var_nativeshaders@@YAXXZ  004e0bac f   shader.obj
 0001:000dfbb1       ?fixshaderdetail@@YAXXZ    004e0bb1 f   shader.obj
 0001:000dfc31       ?useshader@@YAXPAUShader@@@Z 004e0c31 f   shader.obj
 0001:000dfcd9       ?defershader@@YAXPAHPBD1@Z 004e0cd9 f   shader.obj
 0001:000e138f       ?genemufog@@YAXAAU?$vector@D@@0HH@Z 004e238f f   shader.obj
 0001:000e188d       ?newshader@@YAPAUShader@@HPBD00PAU1@H@Z 004e288d f   shader.obj
 0001:000e1e35       ?cleanup@Shader@@QAEX_N@Z  004e2e35 f   shader.obj
 0001:000e1fa7       ?compile@Shader@@QAE_NXZ   004e2fa7 f   shader.obj
 0001:000e217c       ?var_forceglsl@@YAXXZ      004e317c f   shader.obj
 0001:000e2193       ?var_shaderprecision@@YAXXZ 004e3193 f   shader.obj
 0001:000e21aa       ?var_shaders@@YAXXZ        004e31aa f   shader.obj
 0001:000e2755       ?allocenvparams@Shader@@QAEXPAUSlot@@@Z 004e3755 f   shader.obj
 0001:000e3511       ?setslotparams@Shader@@QAEXAAUSlot@@AAUVSlot@@@Z 004e4511 f   shader.obj
 0001:000e353a       ?invalidateenvparams@@YAXHHH@Z 004e453a f   shader.obj
 0001:000e3554       ?setlocalparamfv@@YAXPBDHHPBM@Z 004e4554 f   shader.obj
 0001:000e3576       ?scaletmu@@YAXHHH@Z        004e4576 f   shader.obj
 0001:000e35ac       ?uniformlocversion@Shader@@SAHXZ 004e45ac f   shader.obj
 0001:000e361d       ?inittmus@@YAXXZ           004e461d f   shader.obj
 0001:000e36df       ?renderpostfx@@YAXXZ       004e46df f   shader.obj
 0001:000e3b85       ?checkglslsupport@@YA_NXZ  004e4b85 f   shader.obj
 0001:000e3c23       ?getshaderparamname@@YAPBDPBD@Z 004e4c23 f   shader.obj
 0001:000e3c87       ?useshaderbyname@@YAPAUShader@@PBD@Z 004e4c87 f   shader.obj
 0001:000e3cbb       ?loadshaders@@YAXXZ        004e4cbb f   shader.obj
 0001:000e3f09       ?cleanupshaders@@YAXXZ     004e4f09 f   shader.obj
 0001:000e4062       ?reloadshaders@@YAXXZ      004e5062 f   shader.obj
 0001:000e41e2       ?setupblurkernel@@YAXHMPAM0@Z 004e51e2 f   shader.obj
 0001:000e4408       ?setblurshader@@YAXHHHPAM0I@Z 004e5408 f   shader.obj
 0001:000e45ed       ?setlocalparamf@@YAXPBDHHMMMM@Z 004e55ed f   shader.obj
 0001:000e4631       ?setenvparamf@@YAXPBDHHMMMM@Z 004e5631 f   shader.obj
 0001:000e467f       ?setuptmu@@YAXHPBD0@Z      004e567f f   shader.obj
 0001:000e4743       ?resettmu@@YAXH@Z          004e5743 f   shader.obj
 0001:000e47aa       ?flushenvparams@Shader@@QAEXPAUSlot@@@Z 004e57aa f   shader.obj
 0001:000e488f       ?bindprograms@Shader@@QAEXXZ 004e588f f   shader.obj
 0001:000e48eb       ?lookupshaderbyname@@YAPAUShader@@PBD@Z 004e58eb f   shader.obj
 0001:000e4931       ?calcshadowmapbb@@YAXABUvec@@MMAAM111@Z 004e5931 f   shadowmap.obj
 0001:000e4fa3       ?var_shadowmapangle@@YAXXZ 004e5fa3 f   shadowmap.obj
 0001:000e4fa8       ?setshadowdir@@YAXH@Z      004e5fa8 f   shadowmap.obj
 0001:000e4fe0       ?var_shadowmapambient@@YAXXZ 004e5fe0 f   shadowmap.obj
 0001:000e501c       ?var_shadowmapprecision@@YAXXZ 004e601c f   shadowmap.obj
 0001:000e5029       ?var_fpshadowmap@@YAXXZ    004e6029 f   shadowmap.obj
 0001:000e5036       ?var_shadowmapsize@@YAXXZ  004e6036 f   shadowmap.obj
 0001:000e5043       ?isshadowmapreceiver@@YA_NPAUvtxarray@@@Z 004e6043 f   shadowmap.obj
 0001:000e51aa       ?pushshadowmap@@YAXXZ      004e61aa f   shadowmap.obj
 0001:000e5577       ?popshadowmap@@YAXXZ       004e6577 f   shadowmap.obj
 0001:000e55b5       ?isshadowmapcaster@@YA_NABUvec@@M@Z 004e65b5 f   shadowmap.obj
 0001:000e569b       ?addshadowmapcaster@@YA_NABUvec@@MM@Z 004e669b f   shadowmap.obj
 0001:000e573c       ?rendershadowmap@@YAXXZ    004e673c f   shadowmap.obj
 0001:000e57b6       ?viewshadowmap@@YAXXZ      004e67b6 f   shadowmap.obj
 0001:000e57ca       ?guessshadowdir@@YAXXZ     004e67ca f   shadowmap.obj
 0001:000e58f0       ?cleanshadowmap@@YAXXZ     004e68f0 f   shadowmap.obj
 0001:000e5958       ?updatemumble@@YAXXZ       004e6958 f   sound.obj
 0001:000e5ae9       ?closemumble@@YAXXZ        004e6ae9 f   sound.obj
 0001:000e5b18       ?var_mumble@@YAXXZ         004e6b18 f   sound.obj
 0001:000e5b2a       ?resetsound@@YAXXZ         004e6b2a f   sound.obj
 0001:000e5cb9       ?sound@@YAXPAH@Z           004e6cb9 f   sound.obj
 0001:000e5cd4       ?stopsound@@YA_NHHH@Z      004e6cd4 f   sound.obj
 0001:000e5dcf       ?updatechannel@@YA_NAAUsoundchannel@@@Z 004e6dcf f   sound.obj
 0001:000e608b       ?checkmapsounds@@YAXXZ     004e708b f   sound.obj
 0001:000e617e       ?stopmapsound@@YAXPAUextentity@@@Z 004e717e f   sound.obj
 0001:000e61c3       ?clearmapsounds@@YAXXZ     004e71c3 f   sound.obj
 0001:000e620c       ?resetchannels@@YAXXZ      004e720c f   sound.obj
 0001:000e624d       ?mapsound@@YAXPADPAH1@Z    004e724d f   sound.obj
 0001:000e6281       ?registersound@@YAXPADPAH@Z 004e7281 f   sound.obj
 0001:000e62a0       ?addsound@@YAHPBDHHAAU?$vector@Usoundslot@@@@@Z 004e72a0 f   sound.obj
 0001:000e63e7       ?startmusic@@YAXPAD0@Z     004e73e7 f   sound.obj
 0001:000e6525       ?loadmusic@@YAPAU_Mix_Music@@PBD@Z 004e7525 f   sound.obj
 0001:000e65de       ?musicdone@@YAXXZ          004e75de f   sound.obj
 0001:000e6667       ?var_soundbufferlen@@YAXXZ 004e7667 f   sound.obj
 0001:000e667d       ?var_soundfreq@@YAXXZ      004e767d f   sound.obj
 0001:000e6693       ?var_soundchans@@YAXXZ     004e7693 f   sound.obj
 0001:000e66a9       ?stopmusic@@YAXXZ          004e76a9 f   sound.obj
 0001:000e6731       ?setmusicvol@@YAXH@Z       004e7731 f   sound.obj
 0001:000e6759       ?var_musicvol@@YAXXZ       004e7759 f   sound.obj
 0001:000e676d       ?var_soundvol@@YAXXZ       004e776d f   sound.obj
 0001:000e6783       ?stopchannels@@YAXXZ       004e7783 f   sound.obj
 0001:000e67bf       ?syncchannel@@YAXAAUsoundchannel@@@Z 004e77bf f   sound.obj
 0001:000e67fd       ?freechannel@@YAXH@Z       004e77fd f   sound.obj
 0001:000e682d       ?newchannel@@YAAAUsoundchannel@@HPAUsoundslot@@PBUvec@@PAUextentity@@H@Z 004e782d f   sound.obj
 0001:000e68f2       ?stopsounds@@YAXXZ         004e78f2 f   sound.obj
 0001:000e692e       ?initsound@@YAXXZ          004e792e f   sound.obj
 0001:000e6998       ?initmumble@@YAXXZ         004e7998 f   sound.obj
 0001:000e6a1a       ?updatesounds@@YAXXZ       004e7a1a f   sound.obj
 0001:000e6ae6       ?clear_sound@@YAXXZ        004e7ae6 f   sound.obj
 0001:000e6b1d       ?playsound@@YAHHPBUvec@@PAUextentity@@HHHHH@Z 004e7b1d f   sound.obj
 0001:000e6f78       ?mergenormalmaps@@YAXPAD0@Z 004e7f78 f   texture.obj
 0001:000e71af       ?flipnormalmapy@@YAXPAD0@Z 004e81af f   texture.obj
 0001:000e729c       ?screenshot@@YAXPAD@Z      004e829c f   texture.obj
 0001:000e7435       ?saveimage@@YAXPBDHAAUImageData@@_N@Z 004e8435 f   texture.obj
 0001:000e7506       ?guessimageformat@@YAHPBDH@Z 004e8506 f   texture.obj
 0001:000e7554       ?savetga@@YAXPBDAAUImageData@@_N@Z 004e8554 f   texture.obj
 0001:000e77fa       ?writepngchunk@@YAXPAUstream@@PBDPAEI@Z 004e87fa f   texture.obj
 0001:000e785a       ?gendds@@YAXPAD0@Z         004e885a f   texture.obj
 0001:000e7cd4       ?loaddds@@YA_NPBDAAUImageData@@@Z 004e8cd4 f   texture.obj
 0001:000e7e3e       ?reloadtex@@YAXPAD@Z       004e8e3e f   texture.obj
 0001:000e7ee5       ?cleanuptexture@@YAXPAUTexture@@@Z 004e8ee5 f   texture.obj
 0001:000e7f22       ?genenvmap@@YAIABUvec@@H@Z 004e8f22 f   texture.obj
 0001:000e8128       ?clearenvmaps@@YAXXZ       004e9128 f   texture.obj
 0001:000e8183       ?cubemaploadwildcard@@YAPAUTexture@@PAU1@PBD_N22@Z 004e9183 f   texture.obj
 0001:000e8668       ?var_envmapsize@@YAXXZ     004e9668 f   texture.obj
 0001:000e8671       ?forcecubemapload@@YAXI@Z  004e9671 f   texture.obj
 0001:000ea02f       ?texffenv@@YAXPAH@Z        004eb02f f   texture.obj
 0001:000ea050       ?texcolor@@YAXPAM00@Z      004eb050 f   texture.obj
 0001:000ea0cf       ?texalpha@@YAXPAM0@Z       004eb0cf f   texture.obj
 0001:000ea129       ?texlayer@@YAXPAHPAD0PAM@Z 004eb129 f   texture.obj
 0001:000ea1cb       ?texscale@@YAXPAM@Z        004eb1cb f   texture.obj
 0001:000ea20a       ?texrotate_@@YAXPAH@Z      004eb20a f   texture.obj
 0001:000ea245       ?texoffset_@@YAXPAH0@Z     004eb245 f   texture.obj
 0001:000ea289       ?texscroll@@YAXPAM0@Z      004eb289 f   texture.obj
 0001:000ea2d8       ?autograss@@YAXPAD@Z       004eb2d8 f   texture.obj
 0001:000ea331       ?texture@@YAXPAD0PAH11PAM@Z 004eb331 f   texture.obj
 0001:000ea546       ?run@?$_icmd_fixinsidefaces@$0FFP@@@SAXPAH@Z 004eb546 f   texture.obj
 0001:000ea6dd       ?findvslot@@YAPAUVSlot@@AAUSlot@@ABU1@1@Z 004eb6dd f   texture.obj
 0001:000eabec       ?run@?$_icmd_compactvslots@$0EIL@@@SAXXZ 004ebbec f   texture.obj
 0001:000eac0d       ?compactvslots@@YAHXZ      004ebc0d f   texture.obj
 0001:000eaee6       ?clearslots@@YAXXZ         004ebee6 f   texture.obj
 0001:000eaf95       ?materialreset@@YAXXZ      004ebf95 f   texture.obj
 0001:000eafcc       ?texturereset@@YAXPAH@Z    004ebfcc f   texture.obj
 0001:000eb89d       ?loadsurface@@YAPAUSDL_Surface@@PBD@Z 004ec89d f   texture.obj
 0001:000eb906       ?canloadsurface@@YA_NPBD@Z 004ec906 f   texture.obj
 0001:000eb925       ?forcergbimage@@YAXAAUImageData@@@Z 004ec925 f   texture.obj
 0001:000eb9fd       ?scaleimage@@YAXAAUImageData@@HH@Z 004ec9fd f   texture.obj
 0001:000eba6d       ?texnormal@@YAXAAUImageData@@H@Z 004eca6d f   texture.obj
 0001:000ebc2c       ?texflip@@YAXAAUImageData@@@Z 004ecc2c f   texture.obj
 0001:000ebcb6       ?fixsurfaceformat@@YAPAUSDL_Surface@@PAU1@@Z 004eccb6 f   texture.obj
 0001:000ebd74       ?checkgrayscale@@YA_NPAUSDL_Surface@@@Z 004ecd74 f   texture.obj
 0001:000ebdbb       ?creatergbasurface@@YAPAUSDL_Surface@@PAU1@@Z 004ecdbb f   texture.obj
 0001:000ebe12       ?creatergbsurface@@YAPAUSDL_Surface@@PAU1@@Z 004ece12 f   texture.obj
 0001:000ebe5c       ?wrapsurface@@YAPAUSDL_Surface@@PAXHHH@Z 004ece5c f   texture.obj
 0001:000ec1ae       ?createcompressedtexture@@YAXHHHPAEHHHHHII@Z 004ed1ae f   texture.obj
 0001:000ec224       ?uncompressedformat@@YAII@Z 004ed224 f   texture.obj
 0001:000ec257       ?textarget@@YAII@Z         004ed257 f   texture.obj
 0001:000ec281       ?uploadcompressedtexture@@YAXIIHHPAEHHH_N@Z 004ed281 f   texture.obj
 0001:000ec38d       ?uploadtexture@@YAXIIHHIIPAXHHH_N@Z 004ed38d f   texture.obj
 0001:000ec6e5       ?resizetexture@@YAXHH_N0IHAAH1@Z 004ed6e5 f   texture.obj
 0001:000ec832       ?var_usenp2@@YAXXZ         004ed832 f   texture.obj
 0001:000ec848       ?var_hwmipmap@@YAXXZ       004ed848 f   texture.obj
 0001:000ec85e       ?formatsize@@YAHI@Z        004ed85e f   texture.obj
 0001:000ec88a       ?compressedformat@@YAIIHHH@Z 004ed88a f   texture.obj
 0001:000ec8e1       ?var_aniso@@YAXXZ          004ed8e1 f   texture.obj
 0001:000ec8f7       ?var_bilinear@@YAXXZ       004ed8f7 f   texture.obj
 0001:000ec90d       ?var_trilinear@@YAXXZ      004ed90d f   texture.obj
 0001:000ec923       ?var_texcompressquality@@YAXXZ 004ed923 f   texture.obj
 0001:000ec928       ?var_texcompress@@YAXXZ    004ed928 f   texture.obj
 0001:000ec93e       ?var_texreduce@@YAXXZ      004ed93e f   texture.obj
 0001:000ec954       ?var_reducefilter@@YAXXZ   004ed954 f   texture.obj
 0001:000ec96a       ?var_maxtexsize@@YAXXZ     004ed96a f   texture.obj
 0001:000ec980       ?texgrey@@YAXAAUImageData@@@Z 004ed980 f   texture.obj
 0001:000eca9e       ?texmix@@YAXAAUImageData@@HHHH@Z 004eda9e f   texture.obj
 0001:000ecbae       ?texdecal@@YAXAAUImageData@@@Z 004edbae f   texture.obj
 0001:000ecc82       ?texdup@@YAXAAUImageData@@HH@Z 004edc82 f   texture.obj
 0001:000eccea       ?texffmask@@YAXAAUImageData@@MM@Z 004edcea f   texture.obj
 0001:000ece03       ?texcolorify@@YAXAAUImageData@@ABUvec@@U2@@Z 004ede03 f   texture.obj
 0001:000ecee5       ?texmad@@YAXAAUImageData@@ABUvec@@1@Z 004edee5 f   texture.obj
 0001:000ecfb4       ?texoffset@@YAXAAUImageData@@HH@Z 004edfb4 f   texture.obj
 0001:000ed099       ?texrotate@@YAXAAUImageData@@HH@Z 004ee099 f   texture.obj
 0001:000ed0e2       ?texreorient@@YAXAAUImageData@@_N11H@Z 004ee0e2 f   texture.obj
 0001:000eead2       ?linkslotshaders@@YAXXZ    004efad2 f   texture.obj
 0001:000eeb5d       ?cubemapload@@YAPAUTexture@@PBD_N11@Z 004efb5d f   texture.obj
 0001:000eec75       ?setuptexcompress@@YAXXZ   004efc75 f   texture.obj
 0001:000eeca9       ?setuptexparameters@@YAXHPAXHHII@Z 004efca9 f   texture.obj
 0001:000eede7       ?closestenvmap@@YAGHHHHH@Z 004efde7 f   texture.obj
 0001:000eee73       ?initenvmaps@@YAXXZ        004efe73 f   texture.obj
 0001:000eef56       ?genenvmaps@@YAXXZ         004eff56 f   texture.obj
 0001:000ef015       ?compactvslot@@YAXAAH@Z    004f0015 f   texture.obj
 0001:000ef04b       ?compactvslots@@YAXPAUcube@@H@Z 004f004b f   texture.obj
 0001:000ef11e       ?mergevslot@@YAXAAUVSlot@@ABU1@1@Z 004f011e f   texture.obj
 0001:000ef155       ?editvslot@@YAPAUVSlot@@ABU1@0@Z 004f0155 f   texture.obj
 0001:000ef1c3       ?lookupslot@@YAAAUSlot@@H_N@Z 004f01c3 f   texture.obj
 0001:000ef1ed       ?loadthumbnail@@YAPAUTexture@@AAUSlot@@@Z 004f01ed f   texture.obj
 0001:000ef74c       ?closestenvmap@@YAGABUvec@@@Z 004f074c f   texture.obj
 0001:000ef7d1       ?lookupmaterialslot@@YAAAUMSlot@@H_N@Z 004f07d1 f   texture.obj
 0001:000ef809       ?lookupenvmap@@YAIAAUSlot@@@Z 004f0809 f   texture.obj
 0001:000ef84f       ?lookupenvmap@@YAIG@Z      004f084f f   texture.obj
 0001:000ef892       ?settexture@@YA_NPBDH@Z    004f0892 f   texture.obj
 0001:000ef8b9       ?reloadtexture@@YA_NAAUTexture@@@Z 004f08b9 f   texture.obj
 0001:000ef977       ?reloadtexture@@YA_NPBD@Z  004f0977 f   texture.obj
 0001:000ef99e       ?cleanuptextures@@YAXXZ    004f099e f   texture.obj
 0001:000efa34       ?reloadtextures@@YAXXZ     004f0a34 f   texture.obj
 0001:000efa95       ?texalign@@YAHPAXHH@Z      004f0a95 f   texture.obj
 0001:000efabb       ?loadlayermasks@@YAXXZ     004f0abb f   texture.obj
 0001:000efb5a       ?savepng@@YAXPBDAAUImageData@@_N@Z 004f0b5a f   texture.obj
 0001:000efe6b       ?createtexture@@YAXHHHPAXHHIIHHH_N@Z 004f0e6b f   texture.obj
 0001:000f007e       ?loadimage@@YA_NPBDAAUImageData@@@Z 004f107e f   texture.obj
 0001:000f00a1       ?loadalphamask@@YAXPAUTexture@@@Z 004f10a1 f   texture.obj
 0001:000f01a0       ?textureload@@YAPAUTexture@@PBDH_N1@Z 004f11a0 f   texture.obj
 0001:000f0257       ?lookupvslot@@YAAAUVSlot@@H_N@Z 004f1257 f   texture.obj
 0001:000f0915       ?maskreflection@@YAXAAUReflection@@M_N1@Z 004f1915 f   water.obj
 0001:000f0cbe       ?queryreflection@@YAXAAUReflection@@_N@Z 004f1cbe f   water.obj
 0001:000f0e54       ?addreflection@@YAXAAUmaterialsurface@@@Z 004f1e54 f   water.obj
 0001:000f0f63       ?addwaterfallrefraction@@YAXAAUmaterialsurface@@@Z 004f1f63 f   water.obj
 0001:000f0fb5       ?genwatertex@@YAXAAI00_N@Z 004f1fb5 f   water.obj
 0001:000f12bc       ?var_reflectsize@@YAXXZ    004f22bc f   water.obj
 0001:000f12c1       ?cleanreflection@@YAXAAUReflection@@@Z 004f22c1 f   water.obj
 0001:000f12fb       ?var_waterfade@@YAXXZ      004f22fb f   water.obj
 0001:000f1307       ?renderwaterff@@YAXXZ      004f2307 f   water.obj
 0001:000f1865       ?cleanupwaterTMUs@@YAX_N@Z 004f2865 f   water.obj
 0001:000f18e3       ?setupreflectTMUs@@YAXXZ   004f28e3 f   water.obj
 0001:000f1951       ?setuprefractTMUs@@YAXXZ   004f2951 f   water.obj
 0001:000f19e4       ?setprojtexmatrix@@YAXAAUReflection@@_N@Z 004f29e4 f   water.obj
 0001:000f1a26       ?var_lavacolour@@YAXXZ     004f2a26 f   water.obj
 0001:000f1a56       ?var_waterfallcolour@@YAXXZ 004f2a56 f   water.obj
 0001:000f1a77       ?var_watercolour@@YAXXZ    004f2a77 f   water.obj
 0001:000f1aa7       ?var_vertwater@@YAXXZ      004f2aa7 f   water.obj
 0001:000f1aae       ?renderflatwater@@YAXHHHIIE@Z 004f2aae f   water.obj
 0001:000f23c7       ?renderwaterlod@@YAIHHHIE@Z 004f33c7 f   water.obj
 0001:000f257a       ?calcwatersubdiv@@YAIHHHI@Z 004f357a f   water.obj
 0001:000f26e7       ?rendervertwater@@YAXIHHHIE@Z 004f36e7 f   water.obj
 0001:000f4346       ?var_waterfallrefract@@YAXXZ 004f5346 f   water.obj
 0001:000f4352       ?var_waterenvmap@@YAXXZ    004f5352 f   water.obj
 0001:000f435e       ?var_waterrefract@@YAXXZ   004f535e f   water.obj
 0001:000f436a       ?var_waterreflect@@YAXXZ   004f536a f   water.obj
 0001:000f4376       ?renderwater@@YAXXZ        004f5376 f   water.obj
 0001:000f4f22       ?queryreflections@@YAXXZ   004f5f22 f   water.obj
 0001:000f5243       ?drawreflections@@YAXXZ    004f6243 f   water.obj
 0001:000f5b4a       ?preloadwatershaders@@YAX_N@Z 004f6b4a f   water.obj
 0001:000f5c70       ?renderlava@@YAXABUmaterialsurface@@PAUTexture@@M@Z 004f6c70 f   water.obj
 0001:000f5d18       ?setupwaterfallrefract@@YAXII@Z 004f6d18 f   water.obj
 0001:000f5d6e       ?cleanreflections@@YAXXZ   004f6d6e f   water.obj
 0001:000f5ee8       ?getmapversion@@YAHXZ      004f6ee8 f   world.obj
 0001:000f5eee       ?getworldsize@@YAHXZ       004f6eee f   world.obj
 0001:000f5ef4       ?mpeditent@@YAXHABUvec@@HHHHHH_N@Z 004f6ef4 f   world.obj
 0001:000f600b       ?mapname@@YAXXZ            004f700b f   world.obj
 0001:000f6017       ?mapenlarge@@YAXXZ         004f7017 f   world.obj
 0001:000f602b       ?newmap@@YAXPAH@Z          004f702b f   world.obj
 0001:000f607c       ?shrinkmap@@YAXXZ          004f707c f   world.obj
 0001:000f622e       ?enlargemap@@YA_N_N@Z      004f722e f   world.obj
 0001:000f62eb       ?resetmap@@YAXXZ           004f72eb f   world.obj
 0001:000f6360       ?splitocta@@YAXPAUcube@@H@Z 004f7360 f   world.obj
 0001:000f63a3       ?findplayerspawn@@YAXPAUdynent@@HH@Z 004f73a3 f   world.obj
 0001:000f64cd       ?findentity@@YAHHHHH@Z     004f74cd f   world.obj
 0001:000f6542       ?run@?$_icmd_entindex@$0EDI@@@SAXXZ 004f7542 f   world.obj
 0001:000f654d       ?run@?$_icmd_entget@$0EDH@@@SAXXZ 004f754d f   world.obj
 0001:000f6582       ?run@?$_icmd_insel@$0EDG@@@SAXXZ 004f7582 f   world.obj
 0001:000f65a2       ?run@?$_icmd_entloop@$0EDF@@@SAXPAD@Z 004f75a2 f   world.obj
 0001:000f6754       ?run@?$_icmd_entselect@$0EDE@@@SAXPAD@Z 004f7754 f   world.obj
 0001:000f67b8       ?run@?$_icmd_enthavesel@$0EDD@@@SAXXZ 004f77b8 f   world.obj
 0001:000f67fb       ?nearestent@@YAXXZ         004f77fb f   world.obj
 0001:000f686f       ?printent@@YAXAAUextentity@@PAD@Z 004f786f f   world.obj
 0001:000f68c3       ?entset@@YAXPADPAH1111@Z   004f78c3 f   world.obj
 0001:000f6c40       ?entpaste@@YAXXZ           004f7c40 f   world.obj
 0001:000f6eb3       ?entcopy@@YAXXZ            004f7eb3 f   world.obj
 0001:000f6fc2       ?run@?$_icmd_stackent@$0DNM@@@SAXPAH000@Z 004f7fc2 f   world.obj
 0001:000f6fe2       ?stackent@@YAXHHHH@Z       004f7fe2 f   world.obj
 0001:000f7139       ?newent@@YAXPADPAH1111@Z   004f8139 f   world.obj
 0001:000f7196       ?newentity@@YAXHHHHHH_NUvec@@@Z 004f8196 f   world.obj
 0001:000f728a       ?newentity@@YAPAUextentity@@_NABUvec@@HHHHHH@Z 004f828a f   world.obj
 0001:000f7363       ?attachent@@YAXXZ          004f8363 f   world.obj
 0001:000f75d7       ?dropent@@YAXXZ            004f85d7 f   world.obj
 0001:000f784b       ?dropentity@@YA_NAAUentity@@H@Z 004f884b f   world.obj
 0001:000f7a6e       ?findtype@@YAHPAD@Z        004f8a6e f   world.obj
 0001:000f7ab9       ?delent@@YAXXZ             004f8ab9 f   world.obj
 0001:000f7fe0       ?entautoview@@YAXPAH@Z     004f8fe0 f   world.obj
 0001:000f8118       ?entpush@@YAXPAH@Z         004f9118 f   world.obj
 0001:000f85e9       ?var_entmoving@@YAXXZ      004f95e9 f   world.obj
 0001:000f8652       ?enttoggle@@YA_NH@Z        004f9652 f   world.obj
 0001:000f8690       ?renderentradius@@YAXAAUextentity@@_N@Z 004f9690 f   world.obj
 0001:000f8ab3       ?renderentcone@@YAXABUextentity@@ABUvec@@MM@Z 004f9ab3 f   world.obj
 0001:000f8ce0       ?renderentarrow@@YAXABUextentity@@ABUvec@@M@Z 004f9ce0 f   world.obj
 0001:000f8e96       ?renderentattachment@@YAXABUextentity@@@Z 004f9e96 f   world.obj
 0001:000f8ec0       ?renderentsphere@@YAXABUextentity@@M@Z 004f9ec0 f   world.obj
 0001:000f8ef0       ?renderentring@@YAXABUextentity@@MH@Z 004f9ef0 f   world.obj
 0001:000f8fe5       ?entrotate@@YAXPAH@Z       004f9fe5 f   world.obj
 0001:000f92fe       ?entflip@@YAXXZ            004fa2fe f   world.obj
 0001:000f94ab       ?getselpos@@YA?AUvec@@XZ   004fa4ab f   world.obj
 0001:000f951c       ?attachentities@@YAXXZ     004fa51c f   world.obj
 0001:000f9540       ?attachentity@@YAXAAUextentity@@@Z 004fa540 f   world.obj
 0001:000f95e2       ?detachentity@@YAXAAUextentity@@@Z 004fa5e2 f   world.obj
 0001:000f95f2       ?makeundoent@@YAXXZ        004fa5f2 f   world.obj
 0001:000f961d       ?newundoent@@YAPAUundoblock@@XZ 004fa61d f   world.obj
 0001:000f9693       ?entadd@@YAXH@Z            004fa693 f   world.obj
 0001:000f96b1       ?noentedit@@YA_NXZ         004fa6b1 f   world.obj
 0001:000f96d6       ?var_entediting@@YAXXZ     004fa6d6 f   world.obj
 0001:000f96ff       ?findents@@YAXHH_NABUvec@@1AAU?$vector@H@@@Z 004fa6ff f   world.obj
 0001:000f9cb4       ?modifyoctaentity@@YAXHHPAUcube@@ABUivec@@H11HPAUvtxarray@@@Z 004facb4 f   world.obj
 0001:000fa072       ?getentboundingbox@@YA_NAAUextentity@@AAUivec@@1@Z 004fb072 f   world.obj
 0001:000fa179       ?entname@@YAPADAAUentity@@@Z 004fb179 f   world.obj
 0001:000fa1c5       ?entselectionbox@@YAXABUentity@@AAUvec@@1@Z 004fb1c5 f   world.obj
 0001:000fa357       ?pointinsel@@YA_NAAUselinfo@@AAUvec@@@Z 004fb357 f   world.obj
 0001:000fa3ec       ?entcancel@@YAXXZ          004fb3ec f   world.obj
 0001:000fa3fe       ?haveselent@@YA_NXZ        004fb3fe f   world.obj
 0001:000fa409       ?entdrag@@YAXABUvec@@@Z    004fb409 f   world.obj
 0001:000fa730       ?hoveringonent@@YA_NHH@Z   004fb730 f   world.obj
 0001:000fa782       ?renderentselection@@YAXABUvec@@0_N@Z 004fb782 f   world.obj
 0001:000fab28       ?renderworldaxes@@YAXXZ    004fbb28 f   world.obj
 0001:000facd0       ?pasteundoents@@YAXPAUundoblock@@@Z 004fbcd0 f   world.obj
 0001:000fad84       ?copyundoents@@YAPAUundoblock@@PAU1@@Z 004fbd84 f   world.obj
 0001:000fadea       ?freeoctaentities@@YAXAAUcube@@@Z 004fbdea f   world.obj
 0001:000fae7f       ?emptymap@@YA_NH_NPBD0@Z   004fbe7f f   world.obj
 0001:000faf7d       ?entitiesinoctanodes@@YAXXZ 004fbf7d f   world.obj
 0001:000faf9d       ?startmap@@YAXPBD@Z        004fbf9d f   world.obj
 0001:000fb0dc       ?writeobj@@YAXPAD@Z        004fc0dc f   worldio.obj
 0001:000fb8f4       ?savemap@@YAXPAD@Z         004fc8f4 f   worldio.obj
 0001:000fb8ff       ?savecurrentmap@@YAXXZ     004fc8ff f   worldio.obj
 0001:000fb90b       ?load_world@@YA_NPBD0@Z    004fc90b f   worldio.obj
 0001:000fc5d5       ?getmapcrc@@YAIXZ          004fd5d5 f   worldio.obj
 0001:000fc5db       ?readsefile@@YAXXZ         004fd5db f   worldio.obj
 0001:000fc863       ?writesefile@@YAXXZ        004fd863 f   worldio.obj
 0001:000fca36       ?save_world@@YA_NPBD_N@Z   004fda36 f   worldio.obj
 0001:000fcf4d       ?loadvslots@@YAXPAUstream@@H@Z 004fdf4d f   worldio.obj
 0001:000fd091       ?loadvslot@@YAXPAUstream@@AAUVSlot@@H@Z 004fe091 f   worldio.obj
 0001:000fd224       ?savevslots@@YAXPAUstream@@H@Z 004fe224 f   worldio.obj
 0001:000fd2f0       ?savevslot@@YAXPAUstream@@AAUVSlot@@H@Z 004fe2f0 f   worldio.obj
 0001:000fd49f       ?loadchildren@@YAPAUcube@@PAUstream@@@Z 004fe49f f   worldio.obj
 0001:000fd4cb       ?loadc@@YAXPAUstream@@AAUcube@@@Z 004fe4cb f   worldio.obj
 0001:000fd8c4       ?savec@@YAXPAUcube@@PAUstream@@_N@Z 004fe8c4 f   worldio.obj
 0001:000fdbfd       ?mapcfgname@@YAXXZ         004febfd f   worldio.obj
 0001:000fdc77       ?setmapfilenames@@YAXPBD0@Z 004fec77 f   worldio.obj
 0001:000fdd6e       ?getmapfilenames@@YAXPBD0PAD11@Z 004fed6e f   worldio.obj
 0001:000fde6d       ?cutogz@@YAXPAD@Z          004fee6d f   worldio.obj
 0001:000fde82       ?backup@@YAXPAD0@Z         004fee82 f   worldio.obj
 0001:000fdf08       ?render@ai@@YAXXZ          004fef08 f   ai.obj
 0001:000fe252       ?drawroute@ai@@YAXPAUfpsent@@AAUaistate@1@M@Z 004ff252 f   ai.obj
 0001:000fe48b       ?drawstate@ai@@YAXPAUfpsent@@AAUaistate@1@_NH@Z 004ff48b f   ai.obj
 0001:000fe664       ?think@ai@@YAXPAUfpsent@@_N@Z 004ff664 f   ai.obj
 0001:000fe890       ?avoid@ai@@YAXXZ           004ff890 f   ai.obj
 0001:000fe950       ?logic@ai@@YAXPAUfpsent@@AAUaistate@1@_N@Z 004ff950 f   ai.obj
 0001:000fea74       ?timeouts@ai@@YAXPAUfpsent@@AAUaistate@1@@Z 004ffa74 f   ai.obj
 0001:000fec3d       ?request@ai@@YA_NPAUfpsent@@AAUaistate@1@@Z 004ffc3d f   ai.obj
 0001:000fed3e       ?hasrange@ai@@YA_NPAUfpsent@@0H@Z 004ffd3e f   ai.obj
 0001:000fedb6       ?process@ai@@YAHPAUfpsent@@AAUaistate@1@@Z 004ffdb6 f   ai.obj
 0001:000ff53d       ?lockon@ai@@YA_NPAUfpsent@@0M@Z 0050053d f   ai.obj
 0001:000ff5d7       ?scaleyawpitch@ai@@YAXAAM0MMMM@Z 005005d7 f   ai.obj
 0001:000ff6f8       ?getyawpitch@ai@@YAXABUvec@@0AAM1@Z 005006f8 f   ai.obj
 0001:000ff779       ?fixrange@ai@@YAXAAM0@Z    00500779 f   ai.obj
 0001:000ff790       ?fixfullrange@ai@@YAXAAM00_N@Z 00500790 f   ai.obj
 0001:000ff80a       ?jumpto@ai@@YAXPAUfpsent@@AAUaistate@1@ABUvec@@@Z 0050080a f   ai.obj
 0001:000ff9e2       ?hunt@ai@@YA_NPAUfpsent@@AAUaistate@1@H@Z 005009e2 f   ai.obj
 0001:000ffaf8       ?anynode@ai@@YA_NPAUfpsent@@AAUaistate@1@_N@Z 00500af8 f   ai.obj
 0001:000ffc87       ?wpspot@ai@@YA_NPAUfpsent@@H_N@Z 00500c87 f   ai.obj
 0001:000ffd0a       ?closenode@ai@@YAHPAUfpsent@@_N@Z 00500d0a f   ai.obj
 0001:000ffe25       ?dopursue@ai@@YAHPAUfpsent@@AAUaistate@1@@Z 00500e25 f   ai.obj
 0001:000fff06       ?dointerest@ai@@YAHPAUfpsent@@AAUaistate@1@@Z 00500f06 f   ai.obj
 0001:0010003c       ?dodefend@ai@@YAHPAUfpsent@@AAUaistate@1@@Z 0050103c f   ai.obj
 0001:0010017e       ?dowait@ai@@YAHPAUfpsent@@AAUaistate@1@@Z 0050117e f   ai.obj
 0001:001001e3       ?check@ai@@YA_NPAUfpsent@@AAUaistate@1@@Z 005011e3 f   ai.obj
 0001:00100202       ?itemspawned@ai@@YAXH@Z    00501202 f   ai.obj
 0001:001003e2       ?killed@ai@@YAXPAUfpsent@@0@Z 005013e2 f   ai.obj
 0001:001003f4       ?spawned@ai@@YAXPAUfpsent@@@Z 005013f4 f   ai.obj
 0001:00100405       ?setup@ai@@YAXPAUfpsent@@_N@Z 00501405 f   ai.obj
 0001:001004e8       ?findorientation@ai@@YAXAAUvec@@MM0@Z 005014e8 f   ai.obj
 0001:001005cc       ?damaged@ai@@YAXPAUfpsent@@0@Z 005015cc f   ai.obj
 0001:001006b6       ?find@ai@@YA_NPAUfpsent@@AAUaistate@1@_N@Z 005016b6 f   ai.obj
 0001:00100916       ?parseinterests@ai@@YA_NPAUfpsent@@AAUaistate@1@AAU?$vector@Uinterest@ai@@@@_N3@Z 00501916 f   ai.obj
 0001:001009ed       ?items@ai@@YAXPAUfpsent@@AAUaistate@1@AAU?$vector@Uinterest@ai@@@@_N@Z 005019ed f   ai.obj
 0001:00100b96       ?assist@ai@@YAXPAUfpsent@@AAUaistate@1@AAU?$vector@Uinterest@ai@@@@_N3@Z 00501b96 f   ai.obj
 0001:00100cb1       ?hasgoodammo@ai@@YA_NPAUfpsent@@@Z 00501cb1 f   ai.obj
 0001:00100cd0       ?isgoodammo@ai@@YAHH@Z     00501cd0 f   ai.obj
 0001:00100cda       ?target@ai@@YA_NPAUfpsent@@AAUaistate@1@_N2M@Z 00501cda f   ai.obj
 0001:00100ed3       ?violence@ai@@YA_NPAUfpsent@@AAUaistate@1@0_N@Z 00501ed3 f   ai.obj
 0001:00100f55       ?defend@ai@@YA_NPAUfpsent@@AAUaistate@1@ABUvec@@MMH@Z 00501f55 f   ai.obj
 0001:0010101e       ?patrol@ai@@YA_NPAUfpsent@@AAUaistate@1@ABUvec@@MMH_N@Z 0050201e f   ai.obj
 0001:0010114d       ?enemy@ai@@YA_NPAUfpsent@@AAUaistate@1@ABUvec@@M_N@Z 0050214d f   ai.obj
 0001:0010128d       ?badhealth@ai@@YA_NPAUfpsent@@@Z 0050228d f   ai.obj
 0001:001012b3       ?randomnode@ai@@YA_NPAUfpsent@@AAUaistate@1@MM@Z 005022b3 f   ai.obj
 0001:00101305       ?randomnode@ai@@YA_NPAUfpsent@@AAUaistate@1@ABUvec@@MM@Z 00502305 f   ai.obj
 0001:0010142d       ?makeroute@ai@@YA_NPAUfpsent@@AAUaistate@1@ABUvec@@_N3@Z 0050242d f   ai.obj
 0001:0010145c       ?makeroute@ai@@YA_NPAUfpsent@@AAUaistate@1@H_N2@Z 0050245c f   ai.obj
 0001:00101501       ?checkothers@ai@@YA_NAAU?$vector@H@@PAUfpsent@@HHH_N@Z 00502501 f   ai.obj
 0001:001015eb       ?update@ai@@YAXXZ          005025eb f   ai.obj
 0001:0010170b       ?doreloadai@ai@@YAXPAUfpsent@@@Z 0050270b f   ai.obj
 0001:00101766       ?init@ai@@YAXPAUfpsent@@HHHHHPBD1@Z 00502766 f   ai.obj
 0001:0010196e       ?destroy@ai@@YAXPAUfpsent@@@Z 0050296e f   ai.obj
 0001:0010199a       ?create@ai@@YAXPAUfpsent@@@Z 0050299a f   ai.obj
 0001:00101a11       ?getaimpos@ai@@YA?AUvec@@PAUfpsent@@0@Z 00502a11 f   ai.obj
 0001:00101c38       ?hastarget@ai@@YA_NPAUfpsent@@AAUaistate@1@0MMM@Z 00502c38 f   ai.obj
 0001:00101db0       ?canshoot@ai@@YA_NPAUfpsent@@0@Z 00502db0 f   ai.obj
 0001:00101e48       ?cansee@ai@@YA_NPAUfpsent@@AAUvec@@11@Z 00502e48 f   ai.obj
 0001:00101eb6       ?getsight@ai@@YA_NAAUvec@@MM00MMM@Z 00502eb6 f   ai.obj
 0001:00102010       ?targetable@ai@@YA_NPAUfpsent@@0@Z 00503010 f   ai.obj
 0001:00102065       ?weaprange@ai@@YA_NPAUfpsent@@HM@Z 00503065 f   ai.obj
 0001:00102098       ?weapmaxdist@ai@@YAMH@Z    00503098 f   ai.obj
 0001:001020ad       ?weapmindist@ai@@YAMH@Z    005030ad f   ai.obj
 0001:001020ce       ?canmove@ai@@YA_NPAUfpsent@@@Z 005030ce f   ai.obj
 0001:001020e6       ?viewfieldy@ai@@YAMH@Z     005030e6 f   ai.obj
 0001:001020f4       ?viewfieldx@ai@@YAMH@Z     005030f4 f   ai.obj
 0001:00102122       ?viewdist@ai@@YAMH@Z       00503122 f   ai.obj
 0001:0010215e       ?run@?$_icmd_botbalance@$0BD@@ai@@SAXPAH@Z 0050315e f   ai.obj
 0001:00102174       ?run@?$_icmd_botlimit@$0BC@@ai@@SAXPAH@Z 00503174 f   ai.obj
 0001:0010218a       ?run@?$_icmd_delbot@$0BB@@ai@@SAXXZ 0050318a f   ai.obj
 0001:00102199       ?run@?$_icmd_addbot@$0BA@@ai@@SAXPAD@Z 00503199 f   ai.obj
 0001:001021dd       ?checktriggers@entities@@YAXXZ 005031dd f   entities.obj
 0001:0010252e       ?doleveltrigger@entities@@YAXHH@Z 0050352e f   entities.obj
 0001:0010257f       ?run@?$_icmd_trigger@$0CBC@@entities@@SAXPAH0@Z 0050357f f   entities.obj
 0001:001025a8       ?unlocktriggers@entities@@YAXHHH@Z 005035a8 f   entities.obj
 0001:00102658       ?resettriggers@entities@@YAXXZ 00503658 f   entities.obj
 0001:00102702       ?setspawn@entities@@YAXH_N@Z 00503702 f   entities.obj
 0001:0010271b       ?spawnitems@entities@@YAX_N@Z 0050371b f   entities.obj
 0001:001027a5       ?resetspawns@entities@@YAXXZ 005037a5 f   entities.obj
 0001:001027c5       ?putitems@entities@@YAXAAUpacketbuf@@@Z 005037c5 f   entities.obj
 0001:00102849       ?checkquad@entities@@YAXHPAUfpsent@@@Z 00503849 f   entities.obj
 0001:001028a1       ?trypickup@entities@@YAXHPAUfpsent@@@Z 005038a1 f   entities.obj
 0001:00102ad6       ?teleport@entities@@YAXHPAUfpsent@@@Z 00503ad6 f   entities.obj
 0001:00102c3b       ?jumppadeffects@entities@@YAXPAUfpsent@@H_N@Z 00503c3b f   entities.obj
 0001:00102d36       ?teleporteffects@entities@@YAXPAUfpsent@@HH_N@Z 00503d36 f   entities.obj
 0001:00102f3c       ?pickupeffects@entities@@YAXHPAUfpsent@@@Z 00503f3c f   entities.obj
 0001:00103154       ?repammo@entities@@YAXPAUfpsent@@H_N@Z 00504154 f   entities.obj
 0001:00103166       ?addammo@entities@@YAXHAAH_N@Z 00504166 f   entities.obj
 0001:00103199       ?renderentities@entities@@YAXXZ 00504199 f   entities.obj
 0001:001033ad       ?preloadentities@entities@@YAXXZ 005043ad f   entities.obj
 0001:00103465       ?entmdlname@entities@@YAPBDH@Z 00504465 f   entities.obj
 0001:0010346d       ?itemicon@entities@@YAHH@Z 0050446d f   entities.obj
 0001:00103492       ?checkitems@entities@@YAXPAUfpsent@@@Z 00504492 f   entities.obj
 0001:00103553       ?extraentinfosize@entities@@YAHXZ 00504553 f   entities.obj
 0001:00103556       ?writeent@entities@@YAXAAUentity@@PAD@Z 00504556 f   entities.obj
 0001:00103559       ?readent@entities@@YAXAAUentity@@PAD@Z 00504559 f   entities.obj
 0001:001035a3       ?deleteentity@entities@@YAXPAUextentity@@@Z 005045a3 f   entities.obj
 0001:001035ae       ?entnameinfo@entities@@YAPBDAAUentity@@@Z 005045ae f   entities.obj
 0001:001035b4       ?mayattach@entities@@YA_NAAUextentity@@@Z 005045b4 f   entities.obj
 0001:001035b7       ?attachent@entities@@YA_NAAUextentity@@0@Z 005045b7 f   entities.obj
 0001:001035ba       ?editent@entities@@YAXH_N@Z 005045ba f   entities.obj
 0001:00103659       ?entmodel@entities@@YAPBDABUentity@@@Z 00504659 f   entities.obj
 0001:00103685       ?entradius@entities@@YAXAAUextentity@@_N@Z 00504685 f   entities.obj
 0001:0010383e       ?fixentity@entities@@YAXAAUextentity@@@Z 0050483e f   entities.obj
 0001:00103897       ?printent@entities@@YA_NAAUextentity@@PAD@Z 00504897 f   entities.obj
 0001:0010389a       ?clearents@entities@@YAXXZ 0050489a f   entities.obj
 0001:001038bf       ?animatemapmodel@entities@@YAXABUextentity@@AAH1@Z 005048bf f   entities.obj
 0001:0010390d       ?entname@entities@@YAPBDH@Z 0050490d f   entities.obj
 0001:00103924       ?dropheight@entities@@YAMAAUentity@@@Z 00504924 f   entities.obj
 0001:0010393c       ?newentity@entities@@YAPAUextentity@@XZ 0050493c f   entities.obj
 0001:00103982       ?getents@entities@@YAAAU?$vector@PAUextentity@@@@XZ 00504982 f   entities.obj
 0001:001039b5       ?mastermodeicon@game@@YAPBDHPBD@Z 005049b5 f   fps.obj
 0001:001039d0       ?mastermodecolor@game@@YAPBDHPBD@Z 005049d0 f   fps.obj
 0001:001039eb       ?newhud@game@@YAXHH@Z      005049eb f   fps.obj
 0001:00104813       ?drawhudicons@game@@YAXPAUfpsent@@@Z 00505813 f   fps.obj
 0001:0010495b       ?drawammohud@game@@YAXPAUfpsent@@@Z 0050595b f   fps.obj
 0001:00104aee       ?run@?$_icmd_ammohudcycle@$0DOA@@game@@SAXPAD000000@Z 00505aee f   fps.obj
 0001:00104bd3       ?run@?$_icmd_ammohuddown@$0DND@@game@@SAXPAD00@Z 00505bd3 f   fps.obj
 0001:00104c4b       ?run@?$_icmd_ammohudup@$0DMK@@game@@SAXPAD00@Z 00505c4b f   fps.obj
 0001:00104cc3       ?drawicon@game@@YAXHMMMHH@Z 00505cc3 f   fps.obj
 0001:00104e43       ?run@?$_icmd_kill@$0DJN@@game@@SAXXZ 00505e43 f   fps.obj
 0001:00104e4e       ?duplicatename@game@@YA_NPAUfpsent@@PBD@Z 00505e4e f   fps.obj
 0001:00104e9e       ?startgame@game@@YAXXZ     00505e9e f   fps.obj
 0001:0010504b       ?clearclients@game@@YAX_N@Z 0050604b f   fps.obj
 0001:0010507d       ?clientdisconnected@game@@YAXH_N@Z 0050607d f   fps.obj
 0001:00105153       ?run@?$_icmd_gettotalshots@$0CLM@@game@@SAXXZ 00506153 f   fps.obj
 0001:00105164       ?run@?$_icmd_gettotaldamage@$0CLL@@game@@SAXXZ 00506164 f   fps.obj
 0001:00105175       ?run@?$_icmd_getaccuracy@$0CLK@@game@@SAXXZ 00506175 f   fps.obj
 0001:0010519c       ?run@?$_icmd_getdeaths@$0CLJ@@game@@SAXXZ 0050619c f   fps.obj
 0001:001051ad       ?run@?$_icmd_getflags@$0CLI@@game@@SAXXZ 005061ad f   fps.obj
 0001:001051be       ?run@?$_icmd_getfrags@$0CLH@@game@@SAXXZ 005061be f   fps.obj
 0001:001051cf       ?timeupdate@game@@YAXH@Z   005061cf f   fps.obj
 0001:001052f9       ?killed@game@@YAXPAUfpsent@@0@Z 005062f9 f   fps.obj
 0001:00105bb6       ?resayteam@game@@YAXPAD@Z  00506bb6 f   fps.obj
 0001:00105bfa       ?deathstate@game@@YAXPAUfpsent@@_N@Z 00506bfa f   fps.obj
 0001:00105dc1       ?damaged@game@@YAXHPAUfpsent@@0_N@Z 00506dc1 f   fps.obj
 0001:00105f92       ?respawn@game@@YAXXZ       00506f92 f   fps.obj
 0001:001060da       ?spawnplayer@game@@YAXPAUfpsent@@@Z 005070da f   fps.obj
 0001:00106141       ?checkslowmo@game@@YAXXZ   00507141 f   fps.obj
 0001:001061d3       ?var_slowmosp@game@@YAXXZ  005071d3 f   fps.obj
 0001:0010620d       ?otherplayers@game@@YAXH@Z 0050720d f   fps.obj
 0001:001063b7       ?predictplayer@game@@YAXPAUfpsent@@_N@Z 005073b7 f   fps.obj
 0001:001064c0       ?followingplayer@game@@YAPAUfpsent@@XZ 005074c0 f   fps.obj
 0001:001064ed       ?stopfollowing@game@@YAXXZ 005074ed f   fps.obj
 0001:00106510       ?respawnself@game@@YAXXZ   00507510 f   fps.obj
 0001:001065b3       ?spawnstate@game@@YAPAUfpsent@@PAU2@@Z 005075b3 f   fps.obj
 0001:001065d0       ?run@?$_icmd_nextfollow@$0EC@@game@@SAXPAH@Z 005075d0 f   fps.obj
 0001:001065e2       ?nextfollow@game@@YAXH@Z   005075e2 f   fps.obj
 0001:0010666a       ?follow@game@@YAXPAD@Z     0050766a f   fps.obj
 0001:001066ed       ?run@?$_icmd_getfollow@$0BP@@game@@SAXXZ 005076ed f   fps.obj
 0001:00106706       ?taunt@game@@YAXXZ         00507706 f   fps.obj
 0001:0010674f       ?clientoption@game@@YA_NPBD@Z 0050774f f   fps.obj
 0001:00106752       ?newclient@game@@YAPAUfpsent@@H@Z 00507752 f   fps.obj
 0001:00106814       ?colorname@game@@YAPBDPAUfpsent@@PBD1@Z 00507814 f   fps.obj
 0001:001068a6       ?msgsound@game@@YAXHPAUphysent@@@Z 005078a6 f   fps.obj
 0001:0010690d       ?getclient@game@@YAPAUfpsent@@H@Z 0050790d f   fps.obj
 0001:00106932       ?writegamedata@game@@YAXAAU?$vector@D@@@Z 00507932 f   fps.obj
 0001:00106935       ?getmapinfo@game@@YAPBDXZ  00507935 f   fps.obj
 0001:00106959       ?readgamedata@game@@YAXAAU?$vector@D@@@Z 00507959 f   fps.obj
 0001:0010695c       ?startmap@game@@YAXPBD@Z   0050795c f   fps.obj
 0001:001069df       ?serverinfostartcolumn@game@@YA_NPAUg3d_gui@@H@Z 005079df f   fps.obj
 0001:00106a42       ?serverinfoentry@game@@YA_NPAUg3d_gui@@HPBDH11HABU?$vector@H@@H@Z 00507a42 f   fps.obj
 0001:00106c4e       ?serverinfoendcolumn@game@@YAXPAUg3d_gui@@H@Z 00507c4e f   fps.obj
 0001:00106c60       ?lighteffects@game@@YAXPAUdynent@@AAUvec@@1@Z 00507c60 f   fps.obj
 0001:00106c63       ?setupcamera@game@@YAXXZ   00507c63 f   fps.obj
 0001:00106ccc       ?detachcamera@game@@YA_NXZ 00507ccc f   fps.obj
 0001:00106cdc       ?collidecamera@game@@YA_NXZ 00507cdc f   fps.obj
 0001:00106d03       ?needminimap@game@@YA_NXZ  00507d03 f   fps.obj
 0001:00106d6b       ?hudplayer@game@@YAPAUfpsent@@XZ 00507d6b f   fps.obj
 0001:00106d8d       ?defaultcrosshair@game@@YAPBDH@Z 00507d8d f   fps.obj
 0001:00106da9       ?selectcrosshair@game@@YAHAAM00AAH1@Z 00507da9 f   fps.obj
 0001:0010715a       ?gameplayhud@game@@YAXHH@Z 0050815a f   fps.obj
 0001:001072e1       ?abovegameplayhud@game@@YAMHH@Z 005082e1 f   fps.obj
 0001:00107309       ?numdynents@game@@YAHXZ    00508309 f   fps.obj
 0001:0010731b       ?dynentcollide@game@@YAXPAUphysent@@0ABUvec@@@Z 0050831b f   fps.obj
 0001:00107372       ?allowmove@game@@YA_NPAUphysent@@@Z 00508372 f   fps.obj
 0001:00107399       ?physicstrigger@game@@YAXPAUphysent@@_NHHH@Z 00508399 f   fps.obj
 0001:001074b7       ?suicide@game@@YAXPAUphysent@@@Z 005084b7 f   fps.obj
 0001:00107548       ?canjump@game@@YA_NXZ      00508548 f   fps.obj
 0001:00107575       ?doattack@game@@YAX_N@Z    00508575 f   fps.obj
 0001:00107592       ?doaltattack@game@@YAX_N@Z 00508592 f   fps.obj
 0001:001075af       ?dosprint@game@@YAX_N@Z    005085af f   fps.obj
 0001:001075cc       ?docrouch@game@@YAX_N@Z    005085cc f   fps.obj
 0001:0010762b       ?resetgamestate@game@@YAXXZ 0050862b f   fps.obj
 0001:0010766f       ?initclient@game@@YAXXZ    0050866f f   fps.obj
 0001:001076be       ?iterdynents@game@@YAPAUdynent@@H@Z 005086be f   fps.obj
 0001:001076f6       ?savedservers@game@@YAPBDXZ 005086f6 f   fps.obj
 0001:001076fc       ?gameident@game@@YAPBDXZ   005086fc f   fps.obj
 0001:00107702       ?loadconfigs@game@@YAXXZ   00508702 f   fps.obj
 0001:0010770e       ?updateworld@game@@YAXXZ   0050870e f   fps.obj
 0001:00107c2e       ?getclientmap@game@@YAPBDXZ 00508c2e f   fps.obj
 0001:00107c34       ?clipconsole@game@@YAHHH@Z 00508c34 f   fps.obj
 0001:00107c4e       ?savedconfig@game@@YAPBDXZ 00508c4e f   fps.obj
 0001:00107c54       ?autoexec@game@@YAPBDXZ    00508c54 f   fps.obj
 0001:00107c5a       ?defaultconfig@game@@YAPBDXZ 00508c5a f   fps.obj
 0001:00107c86       ?hitmonster@game@@YAXHPAUmonster@1@PAUfpsent@@ABUvec@@H@Z 00508c86 f   monster.obj
 0001:00107c93       ?rendermonsters@game@@YAXXZ 00508c93 f   monster.obj
 0001:00107de4       ?monsterkilled@game@@YAXXZ 00508de4 f   monster.obj
 0001:00107e26       ?run@?$_icmd_endsp@$0BFJ@@game@@SAXXZ 00508e26 f   monster.obj
 0001:00107e2d       ?spawnmonster@game@@YAXXZ  00508e2d f   monster.obj
 0001:00107ebd       ?preloadmonsters@game@@YAXXZ 00508ebd f   monster.obj
 0001:00107ed7       ?run@?$_icmd_nummonsters@$0BBK@@game@@SAXPAH0@Z 00508ed7 f   monster.obj
 0001:00107eef       ?nummonsters@game@@YAHHH@Z 00508eef f   monster.obj
 0001:00107f56       ?clearmonsters@game@@YAXXZ 00508f56 f   monster.obj
 0001:00108177       ?updatemonsters@game@@YAXH@Z 00509177 f   monster.obj
 0001:001082b9       ?stackmonster@game@@YAXPAUmonster@1@PAUphysent@@@Z 005092b9 f   monster.obj
 0001:001082cf       ?suicidemonster@game@@YAXPAUmonster@1@@Z 005092cf f   monster.obj
 0001:001082e2       ?endsp@game@@YAX_N@Z       005092e2 f   monster.obj
 0001:00108323       ?hitmovable@game@@YAXHPAUmovable@1@PAUfpsent@@ABUvec@@H@Z 00509323 f   movable.obj
 0001:001084b7       ?rendermovables@game@@YAXXZ 005094b7 f   movable.obj
 0001:00108575       ?run@?$_icmd_platform@$0IM@@game@@SAXPAH0@Z 00509575 f   movable.obj
 0001:00108586       ?triggerplatform@game@@YAXHH@Z 00509586 f   movable.obj
 0001:001086e5       ?clearmovables@game@@YAXXZ 005096e5 f   movable.obj
 0001:001087d7       ?updatemovables@game@@YAXH@Z 005097d7 f   movable.obj
 0001:00108b1c       ?stackmovable@game@@YAXPAUmovable@1@PAUphysent@@@Z 00509b1c f   movable.obj
 0001:00108b32       ?suicidemovable@game@@YAXPAUmovable@1@@Z 00509b32 f   movable.obj
 0001:00108b54       ?preloadweapons@game@@YAXXZ 00509b54 f   render.obj
 0001:00108c2c       ?hudgunorigin@game@@YA?AUvec@@HABU2@0PAUfpsent@@@Z 00509c2c f   render.obj
 0001:00108ed2       ?drawhudgun@game@@YAXXZ    00509ed2 f   render.obj
 0001:0010901a       ?drawhudmodel@game@@YAXPAUfpsent@@HMH@Z 0050a01a f   render.obj
 0001:00109531       ?renderplayer@game@@YAXPAUfpsent@@ABUplayermodelinfo@1@HM_N@Z 0050a531 f   render.obj
 0001:001099c0       ?preloadplayermodel@game@@YAXXZ 0050a9c0 f   render.obj
 0001:00109a70       ?changedplayermodel@game@@YAXXZ 0050aa70 f   render.obj
 0001:00109b65       ?getplayermodelinfo@game@@YAABUplayermodelinfo@1@PAUfpsent@@@Z 0050ab65 f   render.obj
 0001:00109ba6       ?getplayermodelinfo@game@@YAPBUplayermodelinfo@1@H@Z 0050aba6 f   render.obj
 0001:00109bb7       ?saveragdoll@game@@YAXPAUfpsent@@@Z 0050abb7 f   render.obj
 0001:00109c94       ?var_playermodel@game@@YAXXZ 0050ac94 f   render.obj
 0001:00109c99       ?moveragdolls@game@@YAXXZ  0050ac99 f   render.obj
 0001:00109d19       ?swayhudgun@game@@YAXH@Z   0050ad19 f   render.obj
 0001:00109fd7       ?clearragdolls@game@@YAXXZ 0050afd7 f   render.obj
 0001:0010a015       ?chooserandomplayermodel@game@@YAHH@Z 0050b015 f   render.obj
 0001:0010a061       ?preload@game@@YAXXZ       0050b061 f   render.obj
 0001:0010a0a0       ?rendergame@game@@YAX_N@Z  0050b0a0 f   render.obj
 0001:0010a485       ?renderavatar@game@@YAXXZ  0050b485 f   render.obj
 0001:0010a4cb       ?run@?$_icmd_showscores@$0BIH@@game@@SAXPAH@Z 0050b4cb f   scoreboard.obj
 0001:0010a4da       ?var_scoreboard@game@@YAXXZ 0050b4da f   scoreboard.obj
 0001:0010a4ee       ?renderscoreboard@game@@YAXAAUg3d_gui@@_N@Z 0050b4ee f   scoreboard.obj
 0001:0010b203       ?sortteams@game@@YAXAAU?$vector@Uteamscore@@@@@Z 0050c203 f   scoreboard.obj
 0001:0010b38e       ?getbestteams@game@@YAXAAU?$vector@PBD@@@Z 0050c38e f   scoreboard.obj
 0001:0010b402       ?getbestplayers@game@@YAXAAU?$vector@PAUfpsent@@@@@Z 0050c402 f   scoreboard.obj
 0001:0010b493       ?showscores@game@@YAX_N@Z  0050c493 f   scoreboard.obj
 0001:0010b4a4       ?g3d_gamemenus@game@@YAXXZ 0050c4a4 f   scoreboard.obj
 0001:0010b53e       ?delselwaypoints@ai@@YAXXZ 0050c53e f   waypoint.obj
 0001:0010b651       ?run@?$_icmd_savewaypoints@$0CLI@@ai@@SAXPAD@Z 0050c651 f   waypoint.obj
 0001:0010b65c       ?run@?$_icmd_loadwaypoints@$0CJL@@ai@@SAXPAD@Z 0050c65c f   waypoint.obj
 0001:0010b667       ?getwaypointfile@ai@@YA_NPBDPAD@Z 0050c667 f   waypoint.obj
 0001:0010b6ce       ?remapwaypoints@ai@@YAXXZ  0050c6ce f   waypoint.obj
 0001:0010b7f3       ?seedwaypoints@ai@@YAXXZ   0050c7f3 f   waypoint.obj
 0001:0010b861       ?run@?$_icmd_clearwaypoints@$0CCJ@@ai@@SAXXZ 0050c861 f   waypoint.obj
 0001:0010b86d       ?navigate@ai@@YAXPAUfpsent@@@Z 0050c86d f   waypoint.obj
 0001:0010baa4       ?linkwaypoint@ai@@YAXAAUwaypoint@1@H@Z 0050caa4 f   waypoint.obj
 0001:0010baea       ?addwaypoint@ai@@YAHABUvec@@H@Z 0050caea f   waypoint.obj
 0001:0010bb78       ?buildwpcache@ai@@YAXXZ    0050cb78 f   waypoint.obj
 0001:0010bc3e       ?clearwpcache@ai@@YAXXZ    0050cc3e f   waypoint.obj
 0001:0010bfc2       ?getweight@ai@@YAHABUvec@@@Z 0050cfc2 f   waypoint.obj
 0001:0010c0c2       ?navigate@ai@@YAXXZ        0050d0c2 f   waypoint.obj
 0001:0010c0ef       ?savewaypoints@ai@@YAX_NPBD@Z 0050d0ef f   waypoint.obj
 0001:0010c252       ?clearwaypoints@ai@@YAX_N@Z 0050d252 f   waypoint.obj
 0001:0010c275       ?inferwaypoints@ai@@YAXPAUfpsent@@ABUvec@@1M@Z 0050d275 f   waypoint.obj
 0001:0010c385       ?loadwaypoints@ai@@YAX_NPBD@Z 0050d385 f   waypoint.obj
 0001:0010c558       ?route@ai@@YA_NPAUfpsent@@HHAAU?$vector@H@@ABUavoidset@1@_N@Z 0050d558 f   waypoint.obj
 0001:0010ca8a       ?closestwaypoint@ai@@YAHABUvec@@M_NPAUfpsent@@@Z 0050da8a f   waypoint.obj
 0001:0010ceaa       ?findwaypointswithin@ai@@YAXABUvec@@MMAAU?$vector@H@@@Z 0050deaa f   waypoint.obj
 0001:0010d1cc       ?remap@avoidset@ai@@QAEHPAUfpsent@@HAAUvec@@_N@Z 0050e1cc f   waypoint.obj
 0001:0010d369       ?avoidnear@avoidset@ai@@QAEXPAXMABUvec@@M@Z 0050e369 f   waypoint.obj
 0001:0010d688       ?checkidlesound@game@@YAXPAUfpsent@@_N@Z 0050e688 f   weapon.obj
 0001:0010d69f       ?checkattacksound@game@@YAXPAUfpsent@@_N@Z 0050e69f f   weapon.obj
 0001:0010d71b       ?doreload@game@@YAXPAUfpsent@@@Z 0050e71b f   weapon.obj
 0001:0010d7d9       ?shoteffects@game@@YAXHABUvec@@0PAUfpsent@@_NHH@Z 0050e7d9 f   weapon.obj
 0001:0010fcf5       ?raydamage@game@@YAXAAUvec@@0PAUfpsent@@@Z 00510cf5 f   weapon.obj
 0001:0011044e       ?shorten@game@@YAXAAUvec@@0M@Z 0051144e f   weapon.obj
 0001:001104b9       ?sound_nearmiss@game@@YAXHABUvec@@0_N@Z 005114b9 f   weapon.obj
 0001:0011062a       ?updateprojectiles@game@@YAXH@Z 0051162a f   weapon.obj
 0001:00110fc2       ?projdamage@game@@YA_NPAUdynent@@AAUprojectile@1@AAUvec@@H@Z 00511fc2 f   weapon.obj
 0001:00111033       ?isheadshot@game@@YA_NPAUdynent@@Uvec@@@Z 00512033 f   weapon.obj
 0001:0011105f       ?explodeeffects@game@@YAXHPAUfpsent@@_NH@Z 0051205f f   weapon.obj
 0001:00111062       ?projsplash@game@@YAXAAUprojectile@1@AAUvec@@PAUdynent@@H@Z 00512062 f   weapon.obj
 0001:0011116f       ?radialeffect@game@@YAXPAUdynent@@ABUvec@@HPAUfpsent@@H@Z 0051216f f   weapon.obj
 0001:0011139b       ?hitpush@game@@YAXHPAUdynent@@PAUfpsent@@AAUvec@@2HH@Z 0051239b f   weapon.obj
 0001:00111427       ?hit@game@@YAXHPAUdynent@@PAUfpsent@@ABUvec@@HMH@Z 00512427 f   weapon.obj
 0001:0011173d       ?spawnbouncer@game@@YAXABUvec@@0PAUfpsent@@HHPAUentitylight@@@Z 0051273d f   weapon.obj
 0001:00111955       ?removeprojectiles@game@@YAXPAUfpsent@@@Z 00512955 f   weapon.obj
 0001:001119ca       ?newprojectile@game@@YAXABUvec@@0M_NHPAUfpsent@@H@Z 005129ca f   weapon.obj
 0001:00111b0f       ?removebouncers@game@@YAXPAUfpsent@@@Z 00512b0f f   weapon.obj
 0001:00111b4e       ?updatebouncers@game@@YAXH@Z 00512b4e f   weapon.obj
 0001:001134ae       ?projdist@game@@YAMPAUdynent@@AAUvec@@ABU3@@Z 005144ae f   weapon.obj
 0001:00113524       ?newbouncer@game@@YAXABUvec@@0_NHPAUfpsent@@HHHPAUentitylight@@@Z 00514524 f   weapon.obj
 0001:001138f4       ?createrays@game@@YAXHABUvec@@0@Z 005148f4 f   weapon.obj
 0001:00113966       ?offsetray@game@@YAXABUvec@@0HMAAU2@_N@Z 00514966 f   weapon.obj
 0001:00113ba3       ?run@?$_icmd_weapon@$0JP@@game@@SAXPAD000000@Z 00514ba3 f   weapon.obj
 0001:00113d36       ?weaponswitch@game@@YAXPAUfpsent@@@Z 00514d36 f   weapon.obj
 0001:00113dba       ?run@?$_icmd_cycleweapon@$0HL@@game@@SAXPAD000000@Z 00514dba f   weapon.obj
 0001:00113e4f       ?cycleweapon@game@@YAXHPAH_N@Z 00514e4f f   weapon.obj
 0001:00113eca       ?run@?$_icmd_setweapon@$0FN@@game@@SAXPADPAH@Z 00514eca f   weapon.obj
 0001:00113edd       ?setweapon@game@@YAXPBD_N@Z 00514edd f   weapon.obj
 0001:00113f94       ?getweapon@game@@YAHPBD@Z  00514f94 f   weapon.obj
 0001:00114038       ?run@?$_icmd_nextweapon@$0EG@@game@@SAXPAH0@Z 00515038 f   weapon.obj
 0001:0011404d       ?nextweapon@game@@YAXH_N@Z 0051504d f   weapon.obj
 0001:001140cf       ?updatescreenshake@game@@YAXXZ 005150cf f   weapon.obj
 0001:00114163       ?run@?$_icmd_getweapon@$0BE@@game@@SAXXZ 00515163 f   weapon.obj
 0001:00114174       ?renderbouncers@game@@YAXXZ 00515174 f   weapon.obj
 0001:0011475b       ?renderprojectiles@game@@YAXXZ 0051575b f   weapon.obj
 0001:0011496e       ?rendercaughtitems@game@@YAXXZ 0051596e f   weapon.obj
 0001:00114ecb       ?preloadbouncers@game@@YAXXZ 00515ecb f   weapon.obj
 0001:00114f2a       ?explode@game@@YAX_NPAUfpsent@@ABUvec@@PAUdynent@@HH@Z 00515f2a f   weapon.obj
 0001:00115568       ?clearprojectiles@game@@YAXXZ 00516568 f   weapon.obj
 0001:00115574       ?clearbouncers@game@@YAXXZ 00516574 f   weapon.obj
 0001:0011559a       ?intersect@game@@YA_NPAUdynent@@ABUvec@@1AAM@Z 0051659a f   weapon.obj
 0001:001155f9       ?updateweapons@game@@YAXH@Z 005165f9 f   weapon.obj
 0001:00115a00       ?damageeffect@game@@YAXHPAUfpsent@@_N@Z 00516a00 f   weapon.obj
 0001:00115b19       ?gibeffect@game@@YAXHABUvec@@PAUfpsent@@@Z 00516b19 f   weapon.obj
 0001:00115e30       ?removeweapons@game@@YAXPAUfpsent@@@Z 00516e30 f   weapon.obj
 0001:00115e40       ?intersectclosest@game@@YAPAUdynent@@ABUvec@@0PAUfpsent@@AAM@Z 00516e40 f   weapon.obj
 0001:00115ede       ?gunselect@game@@YAXHPAUfpsent@@@Z 00516ede f   weapon.obj
 0001:00115fc4       ?shoot@game@@YAXPAUfpsent@@ABUvec@@@Z 00516fc4 f   weapon.obj
 0001:001167f0       ?avoidweapons@game@@YAXAAUavoidset@ai@@M@Z 005177f0 f   weapon.obj
 0001:001168c3       ?particletrack@game@@YAXPAUphysent@@AAUvec@@1@Z 005178c3 f   weapon.obj
 0001:001169b5       ?bounced@game@@YAXPAUphysent@@ABUvec@@@Z 005179b5 f   weapon.obj
 0001:00116c8e       ?adddynlights@game@@YAXXZ  00517c8e f   weapon.obj
 0001:00116e74       ?dynlighttrack@game@@YAXPAUphysent@@AAUvec@@@Z 00517e74 f   weapon.obj
 0001:00116ec3       ?answerchallenge@@YAXPBD0AAU?$vector@D@@@Z 00517ec3 f   crypto.obj
 0001:00116f3f       ?hashstring@@YA_NPBDPADH@Z 00517f3f f   crypto.obj
 0001:00116f97       ?genprivkey@@YAXPBDAAU?$vector@D@@1@Z 00517f97 f   crypto.obj
 0001:001170a7       ?hash@tiger@@YAXPBEHAAThashval@1@@Z 005180a7 f   crypto.obj
 0001:001171c5       ?gensboxes@tiger@@YAXXZ    005181c5 f   crypto.obj
 0001:001172e4       ?compress@tiger@@YAXPB_KQA_K@Z 005182e4 f   crypto.obj
 0001:00117d1e       ?adjoint@glmatrixf@@QAEXABU1@@Z 00518d1e f   geom.obj
 0001:00118277       ?linecylinderintersect@@YA_NABUvec@@000MAAM@Z 00519277 f   geom.obj
 0001:00118688       ?invert@glmatrixf@@QAE_NABU1@M@Z 00519688 f   geom.obj
 0001:00118750       ?rayrectintersect@@YA_NABUvec@@000AAMAAH@Z 00519750 f   geom.obj
 0001:001188af       ?opentempfile@@YAPAUstream@@PBD0@Z 005198af f   stream.obj
 0001:0011892e       ?openrawfile@@YAPAUstream@@PBD0@Z 0051992e f   stream.obj
 0001:001189a3       ?getline@stream@@UAE_NPADH@Z 005199a3 f   stream.obj
 0001:00118a02       ?size@stream@@UAEJXZ       00519a02 f   stream.obj
 0001:00118ac1       ?listdir@@YA_NPBD0AAU?$vector@PAD@@@Z 00519ac1 f   stream.obj
 0001:00118b71       ?fixpackagedir@@YAIPAD@Z   00519b71 f   stream.obj
 0001:00118b93       ?fileexists@@YA_NPBD0@Z    00519b93 f   stream.obj
 0001:00118bc1       ?createdir@@YA_NPBD@Z      00519bc1 f   stream.obj
 0001:00118bfd       ?rwops@stream@@QAEPAUSDL_RWops@@XZ 00519bfd f   stream.obj
 0001:00118c2c       ?makerelpath@@YAPADPBD000@Z 00519c2c f   stream.obj
 0001:00118d10       ?parentdir@@YAPBDPBD@Z     00519d10 f   stream.obj
 0001:00118d4e       ?sethomedir@@YAXPBD@Z      00519d4e f   stream.obj
 0001:00118da0       ?addpackagedir@@YAXPBD@Z   00519da0 f   stream.obj
 0001:00118dfe       ?findfile@@YAPBDPBD0@Z     00519dfe f   stream.obj
 0001:00118f18       ?opengzfile@@YAPAUstream@@PBD0PAU1@H@Z 00519f18 f   stream.obj
 0001:00118fc8       ?loadfile@@YAPADPBDPAH@Z   00519fc8 f   stream.obj
 0001:00119030       ?path@@YAPADPAD@Z          0051a030 f   stream.obj
 0001:00119109       ?listfiles@@YAHPBD0AAU?$vector@PAD@@@Z 0051a109 f   stream.obj
 0001:001191d6       ?openfile@@YAPAUstream@@PBD0@Z 0051a1d6 f   stream.obj
 0001:001191f3       ?path@@YAPADPBD_N@Z        0051a1f3 f   stream.obj
 0001:00119223       ?reloadMT@@YAIXZ           0051a223 f   tools.obj
 0001:00119336       ?seedMT@@YAXI@Z            0051a336 f   tools.obj
 0001:00119361       ?randomMT@@YAIXZ           0051a361 f   tools.obj
 0001:00119402       ?run@?$_icmd_removezip@$0CDH@@@SAXPBD@Z 0051a402 f   zip.obj
 0001:0011940b       ?run@?$_icmd_addzip@$0CDG@@@SAXPBD00@Z 0051a40b f   zip.obj
 0001:0011942d       ?removezip@@YA_NPBD@Z      0051a42d f   zip.obj
 0001:00119502       ?addzip@@YA_NPBD00@Z       0051a502 f   zip.obj
 0001:001199f8       ?findzip@@YAPAUziparchive@@PBD@Z 0051a9f8 f   zip.obj
 0001:00119e7e       ?listzipfiles@@YAHPBD0AAU?$vector@PAD@@@Z 0051ae7e f   zip.obj
 0001:00119ff8       ?openzipfile@@YAPAUstream@@PBD0@Z 0051aff8 f   zip.obj
 0001:0011a0c7       _main                      0051b0c7 f   SDL_win32_main.obj
 0001:0011a29d       ?gotosel@game@@YAXXZ       0051b29d f   client1.obj
 0001:0011a359       ?gotoplayer@game@@YAXPBD@Z 0051b359 f   client1.obj
 0001:0011a43e       ?sendmap@game@@YAXXZ       0051b43e f   client1.obj
 0001:0011a590       ?listdemos@game@@YAXXZ     0051b590 f   client1.obj
 0001:0011a5ab       ?run@?$_icmd_getdemo@$0HEM@@game@@SAXPAH@Z 0051b5ab f   client1.obj
 0001:0011a5b6       ?getdemo@game@@YAXH@Z      0051b5b6 f   client1.obj
 0001:0011a5e8       ?run@?$_icmd_cleardemos@$0HEE@@game@@SAXPAH@Z 0051b5e8 f   client1.obj
 0001:0011a5f3       ?cleardemos@game@@YAXH@Z   0051b5f3 f   client1.obj
 0001:0011a61b       ?run@?$_icmd_recorddemo@$0HDN@@game@@SAXPAH@Z 0051b61b f   client1.obj
 0001:0011a626       ?recorddemo@game@@YAXH@Z   0051b626 f   client1.obj
 0001:0011a64e       ?stopdemo@game@@YAXXZ      0051b64e f   client1.obj
 0001:0011a679       ?getmap@game@@YAXXZ        0051b679 f   client1.obj
 0001:0011a6bf       ?receivefile@game@@YAXPAEH@Z 0051b6bf f   client1.obj
 0001:0011a857       ?parsemessages@game@@YAXHPAUfpsent@@AAU?$databuf@E@@@Z 0051b857 f   client1.obj
 0001:0011ca0f       ?play@game@@YAXHUvec@@@Z   0051da0f f   client1.obj
 0001:0011cb35       ?parsestate@game@@YAXPAUfpsent@@AAU?$databuf@E@@_N@Z 0051db35 f   client1.obj
 0001:0011cc8d       ?parsepositions@game@@YAXAAU?$databuf@E@@@Z 0051dc8d f   client1.obj
 0001:0011d28c       ?updatepos@game@@YAXPAUfpsent@@@Z 0051e28c f   client1.obj
 0001:0011d3f2       ?sendintro@game@@YAXXZ     0051e3f2 f   client1.obj
 0001:0011d4e2       ?sendmessages@game@@YAXXZ  0051e4e2 f   client1.obj
 0001:0011d657       ?sendpositions@game@@YAXXZ 0051e657 f   client1.obj
 0001:0011dc1b       ?sayteam@game@@YAXPAD@Z    0051ec1b f   client1.obj
 0001:0011dc72       ?run@?$_icmd_paused@$0CEC@@game@@SAXPAH0PAUident@@@Z 0051ec72 f   client1.obj
 0001:0011dcbf       ?run@?$_icmd_pausegame@$0CDM@@game@@SAXPAH@Z 0051ecbf f   client1.obj
 0001:0011dcce       ?pausegame@game@@YAX_N@Z   0051ecce f   client1.obj
 0001:0011dcf8       ?printvar@game@@YAXPAUfpsent@@PAUident@@@Z 0051ecf8 f   client1.obj
 0001:0011dde5       ?sendclipboard@game@@YAXXZ 0051ede5 f   client1.obj
 0001:0011dea1       ?run@?$_icmd_map@$0BKG@@game@@SAXPAD@Z 0051eea1 f   client1.obj
 0001:0011deaa       ?run@?$_icmds_@$0BJF@@game@@SAXPAH@Z 0051eeaa f   client1.obj
 0001:0011ded3       ?run@?$_icmds_@$0BJE@@game@@SAXPAH@Z 0051eed3 f   client1.obj
 0001:0011defc       ?run@?$_icmds_@$0BJD@@game@@SAXPAH@Z 0051eefc f   client1.obj
 0001:0011df25       ?run@?$_icmds_@$0BJC@@game@@SAXPAH@Z 0051ef25 f   client1.obj
 0001:0011df4e       ?run@?$_icmds_@$0BJB@@game@@SAXPAH@Z 0051ef4e f   client1.obj
 0001:0011df77       ?run@?$_icmds_@$0BJA@@game@@SAXPAH@Z 0051ef77 f   client1.obj
 0001:0011dfa0       ?run@?$_icmds_@$0BIP@@game@@SAXPAH@Z 0051efa0 f   client1.obj
 0001:0011dfc6       ?run@?$_icmds_@$0BIO@@game@@SAXPAH@Z 0051efc6 f   client1.obj
 0001:0011dff4       ?run@?$_icmds_@$0BIN@@game@@SAXPAH@Z 0051eff4 f   client1.obj
 0001:0011e022       ?run@?$_icmds_@$0BIM@@game@@SAXPAH@Z 0051f022 f   client1.obj
 0001:0011e04b       ?run@?$_icmds_@$0BIL@@game@@SAXPAH@Z 0051f04b f   client1.obj
 0001:0011e077       ?run@?$_icmds_@$0BIK@@game@@SAXPAH@Z 0051f077 f   client1.obj
 0001:0011e09d       ?run@?$_icmds_@$0BIJ@@game@@SAXPAH@Z 0051f09d f   client1.obj
 0001:0011e0c3       ?run@?$_icmds_@$0BII@@game@@SAXPAH@Z 0051f0c3 f   client1.obj
 0001:0011e0e9       ?run@?$_icmds_@$0BIH@@game@@SAXPAH@Z 0051f0e9 f   client1.obj
 0001:0011e10f       ?run@?$_icmds_@$0BIG@@game@@SAXPAH@Z 0051f10f f   client1.obj
 0001:0011e135       ?run@?$_icmds_@$0BIF@@game@@SAXPAH@Z 0051f135 f   client1.obj
 0001:0011e15b       ?run@?$_icmd_timeremaining@$0BIE@@game@@SAXPAH@Z 0051f15b f   client1.obj
 0001:0011e1cb       ?run@?$_icmd_getmode@$0BHK@@game@@SAXXZ 0051f1cb f   client1.obj
 0001:0011e1d6       ?run@?$_icmd_mode@$0BHJ@@game@@SAXPAH@Z 0051f1d6 f   client1.obj
 0001:0011e1e1       ?setmode@game@@YAXH@Z      0051f1e1 f   client1.obj
 0001:0011e236       ?changemapserv@game@@YAXPBDH@Z 0051f236 f   client1.obj
 0001:0011e333       ?run@?$_icmd_checkmaps@$0BFA@@game@@SAXXZ 0051f333 f   client1.obj
 0001:0011e342       ?run@?$_icmd_spectator@$0BEO@@game@@SAXPAHPAD@Z 0051f342 f   client1.obj
 0001:0011e351       ?togglespectator@game@@YAXHPBD@Z 0051f351 f   client1.obj
 0001:0011e384       ?run@?$_icmd_auth@$0BEH@@game@@SAXPAD@Z 0051f384 f   client1.obj
 0001:0011e38d       ?tryauth@game@@YA_NPBD@Z   0051f38d f   client1.obj
 0001:0011e3ba       ?run@?$_icmd_mastermode@$0BDN@@game@@SAXPAH@Z 0051f3ba f   client1.obj
 0001:0011e3d0       ?setmaster@game@@YAXPBD@Z  0051f3d0 f   client1.obj
 0001:0011e46e       ?hashpwd@game@@YAXPBD@Z    0051f46e f   client1.obj
 0001:0011e4ad       ?setteam@game@@YAXPBD0@Z   0051f4ad f   client1.obj
 0001:0011e4dd       ?kick@game@@YAXPBD@Z       0051f4dd f   client1.obj
 0001:0011e509       ?clearbans@game@@YAXXZ     0051f509 f   client1.obj
 0001:0011e518       ?run@?$_icmd_listclients@$0BBE@@game@@SAXPAH@Z 0051f518 f   client1.obj
 0001:0011e527       ?listclients@game@@YAX_N@Z 0051f527 f   client1.obj
 0001:0011e63a       ?run@?$_icmd_getclientnum@$0PO@@game@@SAXPAD@Z 0051f63a f   client1.obj
 0001:0011e65c       ?run@?$_icmd_isai@$0OF@@game@@SAXPAH0@Z 0051f65c f   client1.obj
 0001:0011e675       ?isai@game@@YA_NHH@Z       0051f675 f   client1.obj
 0001:0011e698       ?run@?$_icmd_isspectator@$0NN@@game@@SAXPAH@Z 0051f698 f   client1.obj
 0001:0011e6ab       ?isspectator@game@@YA_NH@Z 0051f6ab f   client1.obj
 0001:0011e6c3       ?run@?$_icmd_mastermodename@$0NG@@game@@SAXPAH@Z 0051f6c3 f   client1.obj
 0001:0011e6db       ?run@?$_icmd_getmastermode@$0NF@@game@@SAXXZ 0051f6db f   client1.obj
 0001:0011e6e6       ?run@?$_icmd_isadmin@$0ND@@game@@SAXPAH@Z 0051f6e6 f   client1.obj
 0001:0011e6f9       ?isadmin@game@@YA_NH@Z     0051f6f9 f   client1.obj
 0001:0011e711       ?run@?$_icmd_ismaster@$0MM@@game@@SAXPAH@Z 0051f711 f   client1.obj
 0001:0011e724       ?ismaster@game@@YA_NH@Z    0051f724 f   client1.obj
 0001:0011e73d       ?run@?$_icmd_getclienticon@$0MF@@game@@SAXPAH@Z 0051f73d f   client1.obj
 0001:0011e750       ?getclienticon@game@@YAPBDH@Z 0051f750 f   client1.obj
 0001:0011e7bc       ?run@?$_icmd_getclientmodel@$0LM@@game@@SAXPAH@Z 0051f7bc f   client1.obj
 0001:0011e7ce       ?getclientmodel@game@@YAHH@Z 0051f7ce f   client1.obj
 0001:0011e7e2       ?run@?$_icmd_getclientteam@$0LF@@game@@SAXPAH@Z 0051f7e2 f   client1.obj
 0001:0011e7f5       ?getclientteam@game@@YAPBDH@Z 0051f7f5 f   client1.obj
 0001:0011e80d       ?run@?$_icmd_getclientname@$0KO@@game@@SAXPAH@Z 0051f80d f   client1.obj
 0001:0011e820       ?getclientname@game@@YAPBDH@Z 0051f820 f   client1.obj
 0001:0011e838       ?saveauthkeys@game@@YAXXZ  0051f838 f   client1.obj
 0001:0011e8bb       ?genauthkey@game@@YAXPBD@Z 0051f8bb f   client1.obj
 0001:0011e973       ?run@?$_icmd_hasauthkey@$0GP@@game@@SAXPAD0@Z 0051f973 f   client1.obj
 0001:0011e98c       ?hasauthkey@game@@YA_NPBD0@Z 0051f98c f   client1.obj
 0001:0011e9f1       ?run@?$_icmd_authkey@$0GG@@game@@SAXPAD00@Z 0051f9f1 f   client1.obj
 0001:0011ea04       ?addauthkey@game@@YAXPBD00@Z 0051fa04 f   client1.obj
 0001:0011eb35       ?findauthkey@game@@YAPAUauthkey@1@PBD@Z 0051fb35 f   client1.obj
 0001:0011ebc6       ?run@?$_icmd_getteam@$0DM@@game@@SAXXZ 0051fbc6 f   client1.obj
 0001:0011ebd8       ?run@?$_icmd_team@$0DL@@game@@SAXPAD@Z 0051fbd8 f   client1.obj
 0001:0011ebe1       ?switchteam@game@@YAXPBD@Z 0051fbe1 f   client1.obj
 0001:0011ec33       ?run@?$_icmd_getname@$0DA@@game@@SAXXZ 0051fc33 f   client1.obj
 0001:0011ec45       ?run@?$_icmd_name@$0CP@@game@@SAXPAD@Z 0051fc45 f   client1.obj
 0001:0011ec4e       ?switchname@game@@YAXPBD@Z 0051fc4e f   client1.obj
 0001:0011ecd0       ?run@?$_icmd_lastsaidteam@$0M@@game@@SAXXZ 0051fcd0 f   client1.obj
 0001:0011ecdc       ?run@?$_icmd_lastsaid@$09@game@@SAXXZ 0051fcdc f   client1.obj
 0001:0011ece8       ?parseplayer@game@@YAHPBD@Z 0051fce8 f   client1.obj
 0001:0011ed9c       ?c2sinfo@game@@YAX_N@Z     0051fd9c f   client1.obj
 0001:0011edcb       ?changemap@game@@YAXPBDH@Z 0051fdcb f   client1.obj
 0001:0011ee4c       ?setclientmode@game@@YAXXZ 0051fe4c f   client1.obj
 0001:0011ee92       ?switchplayermodel@game@@YAXH@Z 0051fe92 f   client1.obj
 0001:0011eebe       ?sendmapinfo@game@@YAXXZ   0051febe f   client1.obj
 0001:0011eeed       ?sendposition@game@@YAXPAUfpsent@@_N@Z 0051feed f   client1.obj
 0001:0011ef4f       ?addmsg@game@@YAXHPBDZZ    0051ff4f f   client1.obj
 0001:0011f250       ?newmap@game@@YAXH@Z       00520250 f   client1.obj
 0001:0011f261       ?edittoggled@game@@YAX_N@Z 00520261 f   client1.obj
 0001:0011f2cf       ?edittrigger@game@@YAXABUselinfo@@HHHH@Z 005202cf f   client1.obj
 0001:0011f473       ?changemap@game@@YAXPBD@Z  00520473 f   client1.obj
 0001:0011f49a       ?ispaused@game@@YA_NXZ     0052049a f   client1.obj
 0001:0011f4a0       ?forceedit@game@@YAXPBD@Z  005204a0 f   client1.obj
 0001:0011f4b0       ?toserver@game@@YAXPAD@Z   005204b0 f   client1.obj
 0001:0011f521       ?allowedittoggle@game@@YA_NXZ 00520521 f   client1.obj
 0001:0011f591       ?vartrigger@game@@YAXPAUident@@@Z 00520591 f   client1.obj
 0001:0011f62d       ?writeclientinfo@game@@YAXPAUstream@@@Z 0052062d f   client1.obj
 0001:0011f647       ?connectfail@game@@YAXXZ   00520647 f   client1.obj
 0001:0011f65c       ?connectattempt@game@@YAXPBD0ABU_ENetAddress@@@Z 0052065c f   client1.obj
 0001:0011f677       ?gamedisconnect@game@@YAX_N@Z 00520677 f   client1.obj
 0001:0011f724       ?parsepacketclient@game@@YAXHAAUpacketbuf@@@Z 00520724 f   client1.obj
 0001:0011f759       ?gameconnect@game@@YAX_N@Z 00520759 f   client1.obj
 0001:0011f7ce       ?changeteam@aiman@server@@YAXPAUclientinfo@2@@Z 005207ce f   server1.obj
 0001:0011f7e8       ?addclient@aiman@server@@YAXPAUclientinfo@2@@Z 005207e8 f   server1.obj
 0001:0011f802       ?changemap@aiman@server@@YAXXZ 00520802 f   server1.obj
 0001:0011f84b       ?setbotbalance@aiman@server@@YAXPAUclientinfo@2@_N@Z 0052084b f   server1.obj
 0001:0011f8b1       ?setbotlimit@aiman@server@@YAXPAUclientinfo@2@H@Z 005208b1 f   server1.obj
 0001:0011f913       ?reqdel@aiman@server@@YAXPAUclientinfo@2@@Z 00520913 f   server1.obj
 0001:0011f94b       ?reqadd@aiman@server@@YAXPAUclientinfo@2@H@Z 0052094b f   server1.obj
 0001:0011f99a       ?checkai@aiman@server@@YAXXZ 0052099a f   server1.obj
 0001:0011f9f3       ?clearai@aiman@server@@YAXXZ 005209f3 f   server1.obj
 0001:0011fa14       ?checksetup@aiman@server@@YAXXZ 00520a14 f   server1.obj
 0001:0011fa5d       ?reassignai@aiman@server@@YA_NXZ 00520a5d f   server1.obj
 0001:0011faea       ?removeai@aiman@server@@YAXPAUclientinfo@2@@Z 00520aea f   server1.obj
 0001:0011fb15       ?shiftai@aiman@server@@YAXPAUclientinfo@2@0@Z 00520b15 f   server1.obj
 0001:0011fb76       ?reinitai@aiman@server@@YAXPAUclientinfo@2@@Z 00520b76 f   server1.obj
 0001:0011fbf3       ?deleteai@aiman@server@@YA_NXZ 00520bf3 f   server1.obj
 0001:0011fc20       ?deleteai@aiman@server@@YAXPAUclientinfo@2@@Z 00520c20 f   server1.obj
 0001:0011fcc9       ?addai@aiman@server@@YA_NHH@Z 00520cc9 f   server1.obj
 0001:0011fed1       ?findaiclient@aiman@server@@YAPAUclientinfo@2@PAU32@@Z 00520ed1 f   server1.obj
 0001:0011ff46       ?chooseteam@aiman@server@@YAPBDXZ 00520f46 f   server1.obj
 0001:0011ffa7       ?balanceteams@aiman@server@@YAXXZ 00520fa7 f   server1.obj
 0001:00120178       ?calcteams@aiman@server@@YAXAAU?$vector@Uteamscore@@@@@Z 00521178 f   server1.obj
 0001:0012027b       ?extserverinforeply@server@@YAXAAU?$databuf@E@@0@Z 0052127b f   server1.obj
 0001:001203ce       ?extinfoteams@server@@YAXAAU?$databuf@E@@@Z 005213ce f   server1.obj
 0001:001205f1       ?extinfoplayer@server@@YAXAAU?$databuf@E@@PAUclientinfo@1@@Z 005215f1 f   server1.obj
 0001:001206e8       ?sendclipboard@server@@YAXPAUclientinfo@1@@Z 005216e8 f   server1.obj
 0001:0012075b       ?receivefile@server@@YAXHPAEH@Z 0052175b f   server1.obj
 0001:00120856       ?answerchallenge@server@@YAXPAUclientinfo@1@IPAD@Z 00521856 f   server1.obj
 0001:001208c1       ?tryauth@server@@YAXPAUclientinfo@1@PBD@Z 005218c1 f   server1.obj
 0001:0012092a       ?authchallenged@server@@YAXIPBD@Z 0052192a f   server1.obj
 0001:00120956       ?authsucceeded@server@@YAXI@Z 00521956 f   server1.obj
 0001:0012097e       ?authfailed@server@@YAXI@Z 0052197e f   server1.obj
 0001:0012098f       ?findauth@server@@YAPAUclientinfo@1@I@Z 0052198f f   server1.obj
 0001:001209be       ?allowconnect@server@@YAHPAUclientinfo@1@PBD@Z 005219be f   server1.obj
 0001:00120ab3       ?addgban@server@@YAXPBD@Z  00521ab3 f   server1.obj
 0001:00120b81       ?checkgban@server@@YA_NI@Z 00521b81 f   server1.obj
 0001:00120bae       ?cleargbans@server@@YAXXZ  00521bae f   server1.obj
 0001:00120bc0       ?noclients@server@@YAXXZ   00521bc0 f   server1.obj
 0001:00120bd6       ?sendservinfo@server@@YAXPAUclientinfo@1@@Z 00521bd6 f   server1.obj
 0001:00120c07       ?checkmaps@server@@YAXH@Z  00521c07 f   server1.obj
 0001:00120ee0       ?cleartimedevents@server@@YAXPAUclientinfo@1@@Z 00521ee0 f   server1.obj
 0001:00120fb1       ?processevents@server@@YAXXZ 00521fb1 f   server1.obj
 0001:00120ffc       ?flushevents@server@@YAXPAUclientinfo@1@H@Z 00521ffc f   server1.obj
 0001:0012102a       ?clearevent@server@@YAXPAUclientinfo@1@@Z 0052202a f   server1.obj
 0001:00121071       ?flush@timedevent@server@@UAE_NPAUclientinfo@2@H@Z 00522071 f   server1.obj
 0001:0012109b       ?flush@gameevent@server@@UAE_NPAUclientinfo@2@H@Z 0052209b f   server1.obj
 0001:001210a9       ?process@pickupevent@server@@UAEXPAUclientinfo@2@@Z 005220a9 f   server1.obj
 0001:001210fa       ?process@shotevent@server@@UAEXPAUclientinfo@2@@Z 005220fa f   server1.obj
 0001:001213a6       ?process@explodeevent@server@@UAEXPAUclientinfo@2@@Z 005223a6 f   server1.obj
 0001:00121613       ?process@suicideevent@server@@UAEXPAUclientinfo@2@@Z 00522613 f   server1.obj
 0001:0012161f       ?suicide@server@@YAXPAUclientinfo@1@@Z 0052261f f   server1.obj
 0001:0012169e       ?dodamage@server@@YAXPAUclientinfo@1@0HHABUvec@@@Z 0052269e f   server1.obj
 0001:00121946       ?startintermission@server@@YAXXZ 00522946 f   server1.obj
 0001:00121964       ?checkintermission@server@@YAXXZ 00522964 f   server1.obj
 0001:001219ae       ?vote@server@@YAXPADHH@Z   005229ae f   server1.obj
 0001:00121b66       ?checkvotes@server@@YAX_N@Z 00522b66 f   server1.obj
 0001:00121d77       ?changemap@server@@YAXPBDH@Z 00522d77 f   server1.obj
 0001:00121ff2       ?sendinitclient@server@@YAXPAUclientinfo@1@@Z 00522ff2 f   server1.obj
 0001:00122050       ?sendresume@server@@YAXPAUclientinfo@1@@Z 00523050 f   server1.obj
 0001:001220ad       ?restorescore@server@@YA_NPAUclientinfo@1@@Z 005230ad f   server1.obj
 0001:001220d1       ?welcomepacket@server@@YAHAAUpacketbuf@@PAUclientinfo@1@@Z 005230d1 f   server1.obj
 0001:00122543       ?welcomeinitclient@server@@YAXAAUpacketbuf@@H@Z 00523543 f   server1.obj
 0001:00122583       ?putinitclient@server@@YAXPAUclientinfo@1@AAUpacketbuf@@@Z 00523583 f   server1.obj
 0001:00122626       ?sendwelcome@server@@YAXPAUclientinfo@1@@Z 00523626 f   server1.obj
 0001:00122686       ?sendspawn@server@@YAXPAUclientinfo@1@@Z 00523686 f   server1.obj
 0001:001226de       ?spawnstate@server@@YAXPAUclientinfo@1@@Z 005236de f   server1.obj
 0001:00122704       ?buildworldstate@server@@YA_NXZ 00523704 f   server1.obj
 0001:00122a24       ?addclientstate@server@@YAXAAUworldstate@1@AAUclientinfo@1@@Z 00523a24 f   server1.obj
 0001:00122ad7       ?flushclientposition@server@@YAXAAUclientinfo@1@@Z 00523ad7 f   server1.obj
 0001:00122b6d       ?cleanworldstate@server@@YAXPAU_ENetPacket@@@Z 00523b6d f   server1.obj
 0001:00122bed       ?checktype@server@@YAHHPAUclientinfo@1@@Z 00523bed f   server1.obj
 0001:00122c72       ?savescore@server@@YAXPAUclientinfo@1@@Z 00523c72 f   server1.obj
 0001:00122c90       ?findscore@server@@YAAAUsavedscore@1@PAUclientinfo@1@_N@Z 00523c90 f   server1.obj
 0001:00122dd3       ?setmaster@server@@YAXPAUclientinfo@1@_NPBD2@Z 00523dd3 f   server1.obj
 0001:00123083       ?revokemaster@server@@YAXPAUclientinfo@1@@Z 00524083 f   server1.obj
 0001:001230a1       ?checkpassword@server@@YA_NPAUclientinfo@1@PBD1@Z 005240a1 f   server1.obj
 0001:001230d9       ?pausegame@server@@YAX_NPAUclientinfo@1@@Z 005240d9 f   server1.obj
 0001:00123101       ?readdemo@server@@YAXXZ    00524101 f   server1.obj
 0001:001231ec       ?setupdemoplayback@server@@YAXXZ 005241ec f   server1.obj
 0001:00123388       ?enddemoplayback@server@@YAXXZ 00524388 f   server1.obj
 0001:00123408       ?senddemo@server@@YAXHH@Z  00524408 f   server1.obj
 0001:00123449       ?cleardemos@server@@YAXH@Z 00524449 f   server1.obj
 0001:001234f4       ?listdemos@server@@YAXH@Z  005244f4 f   server1.obj
 0001:0012358f       ?setupdemorecord@server@@YAXXZ 0052458f f   server1.obj
 0001:00123692       ?enddemorecord@server@@YAXXZ 00524692 f   server1.obj
 0001:00123848       ?writedemo@server@@YAXHPAXH@Z 00524848 f   server1.obj
 0001:0012388b       ?chooseworstteam@server@@YAPBDPBDPAUclientinfo@1@@Z 0052488b f   server1.obj
 0001:00123a10       ?autoteam@server@@YAXXZ    00524a10 f   server1.obj
 0001:00123be7       ?choosebestclient@server@@YAPAUclientinfo@1@AAM@Z 00524be7 f   server1.obj
 0001:00123c62       ?pickup@server@@YA_NHH@Z   00524c62 f   server1.obj
 0001:00123d2e       ?spawntime@server@@YAHH@Z  00524d2e f   server1.obj
 0001:00123de3       ?canspawnitem@server@@YA_NH@Z 00524de3 f   server1.obj
 0001:00123e24       ?colorname@server@@YAPBDPAUclientinfo@1@PAD@Z 00524e24 f   server1.obj
 0001:00123ea4       ?duplicatename@server@@YA_NPAUclientinfo@1@PAD@Z 00524ea4 f   server1.obj
 0001:00123eef       ?numclients@server@@YAHH_N00@Z 00524eef f   server1.obj
 0001:00123f66       ?serveroption@server@@YA_NPBD@Z 00524f66 f   server1.obj
 0001:00123fe5       ?resetitems@server@@YAXXZ  00524fe5 f   server1.obj
 0001:00123ff7       ?privname@server@@YAPBDH@Z 00524ff7 f   server1.obj
 0001:00124013       ?getinfo@server@@YAPAUclientinfo@1@H@Z 00525013 f   server1.obj
 0001:00124036       ?var_publicserver@server@@YAXXZ 00525036 f   server1.obj
 0001:0012406b       ?hashpassword@server@@YAXHHPBDPADH@Z 0052506b f   server1.obj
 0001:001240d4       ?forcemap@server@@YAXPBDH@Z 005250d4 f   server1.obj
 0001:00124151       ?forcepaused@server@@YAX_N@Z 00525151 f   server1.obj
 0001:00124156       ?msgsizelookup@server@@YAHH@Z 00525156 f   server1.obj
 0001:001241a4       ?stopdemo@server@@YAXXZ    005251a4 f   server1.obj
 0001:001241d0       ?modename@server@@YAPBDHPBD@Z 005251d0 f   server1.obj
 0001:001241e5       ?mastermodename@server@@YAPBDHPBD@Z 005251e5 f   server1.obj
 0001:001241fc       ?delayspawn@server@@YA_NH@Z 005251fc f   server1.obj
 0001:00124203       ?servercompatible@server@@YA_NPAD00HABU?$vector@H@@H@Z 00525203 f   server1.obj
 0001:0012421d       ?recordpacket@server@@YAXHPAXH@Z 0052521d f   server1.obj
 0001:00124222       ?allowbroadcast@server@@YA_NH@Z 00525222 f   server1.obj
 0001:0012423a       ?clientdisconnect@server@@YAXH@Z 0052523a f   server1.obj
 0001:001242f4       ?deleteclientinfo@server@@YAXPAX@Z 005252f4 f   server1.obj
 0001:0012430f       ?sendservmsg@server@@YAXPBD@Z 0052530f f   server1.obj
 0001:00124324       ?parsepacket@server@@YAXHHAAUpacketbuf@@@Z 00525324 f   server1.obj
 0001:0012660c       ?newclientinfo@server@@YAPAXXZ 0052760c f   server1.obj
 0001:00126640       ?defaultmaster@server@@YAPBDXZ 00527640 f   server1.obj
 0001:00126646       ?masterport@server@@YAHXZ  00527646 f   server1.obj
 0001:0012664c       ?processmasterinput@server@@YAXPBDH0@Z 0052764c f   server1.obj
 0001:0012671a       ?serverinforeply@server@@YAXAAU?$databuf@E@@0@Z 0052771a f   server1.obj
 0001:0012680c       ?serverupdate@server@@YAXXZ 0052780c f   server1.obj
 0001:00126ace       ?sendpackets@server@@YA_N_N@Z 00527ace f   server1.obj
 0001:00126b25       ?ispaused@server@@YA_NXZ   00527b25 f   server1.obj
 0001:00126b2b       ?clientconnect@server@@YAHHI@Z 00527b2b f   server1.obj
 0001:00126bad       ?localdisconnect@server@@YAXH@Z 00527bad f   server1.obj
 0001:00126bda       ?localconnect@server@@YAXH@Z 00527bda f   server1.obj
 0001:00126c3f       ?reserveclients@server@@YAHXZ 00527c3f f   server1.obj
 0001:00126c43       ?serverinfoport@server@@YAHH@Z 00527c43 f   server1.obj
 0001:00126c51       ?laninfoport@server@@YAHXZ 00527c51 f   server1.obj
 0001:00126c57       ?serverinit@server@@YAXXZ  00527c57 f   server1.obj
 0001:00126c70       ?parseoptions@game@@YAXAAU?$vector@PBD@@@Z 00527c70 f   server1.obj
 0001:00126caf       ?serverport@server@@YAHH@Z 00527caf f   server1.obj
 0001:00126cbd       ?numchannels@server@@YAHXZ 00527cbd f   server1.obj
 0001:00126cc4       __EH_prolog                00527cc4 f   LIBCMT:ehprolog.obj
 0001:00126ce3       __EH_prolog2               00527ce3 f   LIBCMT:ehprolg2.obj
 0001:00126d20       __SEH_prolog               00527d20 f   LIBCMT:sehprolg.obj
 0001:00126d60       __ftol3                    00527d60 f   LIBCMT:ftol3.obj
 0001:00126dd0       __dtol3                    00527dd0 f   LIBCMT:ftol3.obj
 0001:00126e7f       ??0__non_rtti_object@std@@QAE@ABV01@@Z 00527e7f f i libvcruntime:rtti.obj
 0001:00126e9a       ??0bad_cast@std@@QAE@ABV01@@Z 00527e9a f i libvcruntime:rtti.obj
 0001:00126eb5       ??0bad_typeid@std@@QAE@ABV01@@Z 00527eb5 f i libvcruntime:rtti.obj
 0001:0012726d       ?__construct_from_string_literal@__non_rtti_object@std@@SA?AV12@QBD@Z 0052826d f i libvcruntime:rtti.obj
 0001:00127289       ?__construct_from_string_literal@bad_cast@std@@SA?AV12@QBD@Z 00528289 f i libvcruntime:rtti.obj
 0001:001272a5       ___RTDynamicCast           005282a5 f   libvcruntime:rtti.obj
 0001:001273b0       __except_handler3          005283b0 f   libvcruntime:exsup3.obj
 0001:001274cb       _CallDestructExceptionObject 005284cb f   libvcruntime:calldtor.obj
 0001:001275d0       __ValidateEH3RN            005285d0 f   libvcruntime:eh3valid.obj
 0001:0012c4c1       ??__Fmeshgroups@?1??sharemeshes@animmodel@@QAAPAUmeshgroup@1@PADZZ@YAXXZ 0052d4c1 f i rendermodel.obj
 0001:0012c4e5       ??__Fskeletons@?1??shareskeleton@skelmeshgroup@skelmodel@@QAEXPAD@Z@YAXXZ 0052d4e5 f i rendermodel.obj
 0001:0012cabf       ??__Ftargets@?N@??aidefend@captureclientmode@game@@UAE_NPAUfpsent@@AAUaistate@ai@@@Z@YAXXZ 0052dabf f i client1.obj
 0001:0012cac9       ??__Ftargets@?3??aifind@captureclientmode@game@@UAEXPAUfpsent@@AAUaistate@ai@@AAU?$vector@Uinterest@ai@@@@@Z@YAXXZ 0052dac9 f i client1.obj
 0001:0012cad3       ??__Ftargets@?BA@??aidefend@ctfclientmode@game@@UAE_NPAUfpsent@@AAUaistate@ai@@@Z@YAXXZ 0052dad3 f i client1.obj
 0001:0012cadd       ??__Ftargets@?6??aifind@ctfclientmode@game@@UAEXPAUfpsent@@AAUaistate@ai@@AAU?$vector@Uinterest@ai@@@@@Z@YAXXZ 0052dadd f i client1.obj
 0001:0012cae7       ??__Ftakenflags@?1??aicheck@ctfclientmode@game@@UAE_NPAUfpsent@@AAUaistate@ai@@@Z@YAXXZ 0052dae7 f i client1.obj
 0001:0012caf1       ??__Finterests@?4??aihomerun@ctfclientmode@game@@QAE_NPAUfpsent@@AAUaistate@ai@@@Z@YAXXZ 0052daf1 f i client1.obj
 0002:00000000       __imp__VirtualQuery@12     0052e000     kernel32:KERNEL32.dll
 0002:00000004       __imp__SetEndOfFile@4      0052e004     kernel32:KERNEL32.dll
 0002:00000008       __imp__WriteConsoleW@20    0052e008     kernel32:KERNEL32.dll
 0002:0000000c       __imp__HeapReAlloc@16      0052e00c     kernel32:KERNEL32.dll
 0002:00000010       __imp__HeapSize@12         0052e010     kernel32:KERNEL32.dll
 0002:00000014       __imp__CreateFileW@28      0052e014     kernel32:KERNEL32.dll
 0002:00000018       __imp__FlushFileBuffers@4  0052e018     kernel32:KERNEL32.dll
 0002:0000001c       __imp__GetStringTypeW@16   0052e01c     kernel32:KERNEL32.dll
 0002:00000020       __imp__GetProcessHeap@0    0052e020     kernel32:KERNEL32.dll
 0002:00000024       __imp__SetEnvironmentVariableW@8 0052e024     kernel32:KERNEL32.dll
 0002:00000028       __imp__FreeEnvironmentStringsW@4 0052e028     kernel32:KERNEL32.dll
 0002:0000002c       __imp__GetEnvironmentStringsW@0 0052e02c     kernel32:KERNEL32.dll
 0002:00000030       __imp__ReadConsoleW@20     0052e030     kernel32:KERNEL32.dll
 0002:00000034       __imp__GetConsoleMode@8    0052e034     kernel32:KERNEL32.dll
 0002:00000038       __imp__GetConsoleOutputCP@0 0052e038     kernel32:KERNEL32.dll
 0002:0000003c       __imp__SetFilePointerEx@20 0052e03c     kernel32:KERNEL32.dll
 0002:00000040       __imp__GetFileSizeEx@8     0052e040     kernel32:KERNEL32.dll
 0002:00000044       __imp__WideCharToMultiByte@32 0052e044     kernel32:KERNEL32.dll
 0002:00000048       __imp__GetTimeZoneInformation@4 0052e048     kernel32:KERNEL32.dll
 0002:0000004c       __imp__MoveFileExW@12      0052e04c     kernel32:KERNEL32.dll
 0002:00000050       __imp__DeleteFileW@4       0052e050     kernel32:KERNEL32.dll
 0002:00000054       __imp__MultiByteToWideChar@24 0052e054     kernel32:KERNEL32.dll
 0002:00000058       __imp__LCMapStringW@24     0052e058     kernel32:KERNEL32.dll
 0002:0000005c       __imp__CompareStringW@24   0052e05c     kernel32:KERNEL32.dll
 0002:00000060       __imp__GetTimeFormatW@24   0052e060     kernel32:KERNEL32.dll
 0002:00000064       __imp__GetDateFormatW@24   0052e064     kernel32:KERNEL32.dll
 0002:00000068       __imp__DecodePointer@4     0052e068     kernel32:KERNEL32.dll
 0002:0000006c       __imp__GetFileType@4       0052e06c     kernel32:KERNEL32.dll
 0002:00000070       __imp__HeapAlloc@12        0052e070     kernel32:KERNEL32.dll
 0002:00000074       __imp__HeapFree@12         0052e074     kernel32:KERNEL32.dll
 0002:00000078       __imp__GetCommandLineW@0   0052e078     kernel32:KERNEL32.dll
 0002:0000007c       __imp__WriteFile@20        0052e07c     kernel32:KERNEL32.dll
 0002:00000080       __imp__GetStdHandle@4      0052e080     kernel32:KERNEL32.dll
 0002:00000084       __imp__GetModuleFileNameW@12 0052e084     kernel32:KERNEL32.dll
 0002:00000088       __imp__ReadFile@20         0052e088     kernel32:KERNEL32.dll
 0002:0000008c       __imp__GetModuleHandleExW@12 0052e08c     kernel32:KERNEL32.dll
 0002:00000090       __imp__ExitProcess@4       0052e090     kernel32:KERNEL32.dll
 0002:00000094       __imp__LoadLibraryExW@12   0052e094     kernel32:KERNEL32.dll
 0002:00000098       __imp__TlsFree@4           0052e098     kernel32:KERNEL32.dll
 0002:0000009c       __imp__TlsSetValue@8       0052e09c     kernel32:KERNEL32.dll
 0002:000000a0       __imp__TlsGetValue@4       0052e0a0     kernel32:KERNEL32.dll
 0002:000000a4       __imp__TlsAlloc@0          0052e0a4     kernel32:KERNEL32.dll
 0002:000000a8       __imp__EncodePointer@4     0052e0a8     kernel32:KERNEL32.dll
 0002:000000ac       __imp__SetLastError@4      0052e0ac     kernel32:KERNEL32.dll
 0002:000000b0       __imp__GetLastError@0      0052e0b0     kernel32:KERNEL32.dll
 0002:000000b4       __imp__RaiseException@16   0052e0b4     kernel32:KERNEL32.dll
 0002:000000b8       __imp__RtlUnwind@16        0052e0b8     kernel32:KERNEL32.dll
 0002:000000bc       __imp__TerminateProcess@8  0052e0bc     kernel32:KERNEL32.dll
 0002:000000c0       __imp__InitializeSListHead@4 0052e0c0     kernel32:KERNEL32.dll
 0002:000000c4       __imp__GetSystemTimeAsFileTime@4 0052e0c4     kernel32:KERNEL32.dll
 0002:000000c8       __imp__GetCurrentThreadId@0 0052e0c8     kernel32:KERNEL32.dll
 0002:000000cc       __imp__GetCurrentProcessId@0 0052e0cc     kernel32:KERNEL32.dll
 0002:000000d0       __imp__QueryPerformanceCounter@4 0052e0d0     kernel32:KERNEL32.dll
 0002:000000d4       __imp__GetStartupInfoW@4   0052e0d4     kernel32:KERNEL32.dll
 0002:000000d8       __imp__SetUnhandledExceptionFilter@4 0052e0d8     kernel32:KERNEL32.dll
 0002:000000dc       __imp__UnhandledExceptionFilter@4 0052e0dc     kernel32:KERNEL32.dll
 0002:000000e0       __imp__IsDebuggerPresent@0 0052e0e0     kernel32:KERNEL32.dll
 0002:000000e4       __imp__IsProcessorFeaturePresent@4 0052e0e4     kernel32:KERNEL32.dll
 0002:000000e8       __imp__GetProcAddress@8    0052e0e8     kernel32:KERNEL32.dll
 0002:000000ec       __imp__GetModuleHandleW@4  0052e0ec     kernel32:KERNEL32.dll
 0002:000000f0       __imp__CreateEventW@16     0052e0f0     kernel32:KERNEL32.dll
 0002:000000f4       __imp__WaitForSingleObjectEx@12 0052e0f4     kernel32:KERNEL32.dll
 0002:000000f8       __imp__ResetEvent@4        0052e0f8     kernel32:KERNEL32.dll
 0002:000000fc       __imp__SetEvent@4          0052e0fc     kernel32:KERNEL32.dll
 0002:00000100       __imp__DeleteCriticalSection@4 0052e100     kernel32:KERNEL32.dll
 0002:00000104       __imp__InitializeCriticalSectionAndSpinCount@8 0052e104     kernel32:KERNEL32.dll
 0002:00000108       __imp__LeaveCriticalSection@4 0052e108     kernel32:KERNEL32.dll
 0002:0000010c       __imp__EnterCriticalSection@4 0052e10c     kernel32:KERNEL32.dll
 0002:00000110       __imp__FreeLibrary@4       0052e110     kernel32:KERNEL32.dll
 0002:00000114       __imp__GetCommandLineA@0   0052e114     kernel32:KERNEL32.dll
 0002:00000118       __imp__GetModuleHandleA@4  0052e118     kernel32:KERNEL32.dll
 0002:0000011c       __imp__FindNextFileA@8     0052e11c     kernel32:KERNEL32.dll
 0002:00000120       __imp__FindFirstFileA@8    0052e120     kernel32:KERNEL32.dll
 0002:00000124       __imp__CreateDirectoryA@8  0052e124     kernel32:KERNEL32.dll
 0002:00000128       __imp__GetFileAttributesA@4 0052e128     kernel32:KERNEL32.dll
 0002:0000012c       __imp__CloseHandle@4       0052e12c     kernel32:KERNEL32.dll
 0002:00000130       __imp__UnmapViewOfFile@4   0052e130     kernel32:KERNEL32.dll
 0002:00000134       __imp__MapViewOfFile@20    0052e134     kernel32:KERNEL32.dll
 0002:00000138       __imp__OpenFileMappingA@12 0052e138     kernel32:KERNEL32.dll
 0002:0000013c       __imp__SetPriorityClass@8  0052e13c     kernel32:KERNEL32.dll
 0002:00000140       __imp__GetCurrentThread@0  0052e140     kernel32:KERNEL32.dll
 0002:00000144       __imp__GetCurrentProcess@0 0052e144     kernel32:KERNEL32.dll
 0002:00000148       __imp__GlobalUnlock@4      0052e148     kernel32:KERNEL32.dll
 0002:0000014c       __imp__GlobalLock@4        0052e14c     kernel32:KERNEL32.dll
 0002:00000150       __imp__FindClose@4         0052e150     kernel32:KERNEL32.dll
 0002:00000154       __imp__FindFirstFileExW@24 0052e154     kernel32:KERNEL32.dll
 0002:00000158       __imp__FindNextFileW@8     0052e158     kernel32:KERNEL32.dll
 0002:0000015c       __imp__IsValidCodePage@4   0052e15c     kernel32:KERNEL32.dll
 0002:00000160       __imp__GetACP@0            0052e160     kernel32:KERNEL32.dll
 0002:00000164       __imp__GetOEMCP@0          0052e164     kernel32:KERNEL32.dll
 0002:00000168       __imp__GetCPInfo@8         0052e168     kernel32:KERNEL32.dll
 0002:0000016c       __imp__SetStdHandle@8      0052e16c     kernel32:KERNEL32.dll
 0002:00000170       \177KERNEL32_NULL_THUNK_DATA 0052e170     kernel32:KERNEL32.dll
 0002:00000174       __imp__glLoadMatrixf@4     0052e174     opengl32:OPENGL32.dll
 0002:00000178       __imp__glNormalPointer@12  0052e178     opengl32:OPENGL32.dll
 0002:0000017c       __imp__glCullFace@4        0052e17c     opengl32:OPENGL32.dll
 0002:00000180       __imp__glFrontFace@4       0052e180     opengl32:OPENGL32.dll
 0002:00000184       __imp__glFogi@8            0052e184     opengl32:OPENGL32.dll
 0002:00000188       __imp__glFrustum@48        0052e188     opengl32:OPENGL32.dll
 0002:0000018c       __imp__glPopMatrix@0       0052e18c     opengl32:OPENGL32.dll
 0002:00000190       __imp__glPolygonOffset@8   0052e190     opengl32:OPENGL32.dll
 0002:00000194       __imp__glIsEnabled@4       0052e194     opengl32:OPENGL32.dll
 0002:00000198       __imp__glFogf@8            0052e198     opengl32:OPENGL32.dll
 0002:0000019c       __imp__glClear@4           0052e19c     opengl32:OPENGL32.dll
 0002:000001a0       __imp__glColorMask@16      0052e1a0     opengl32:OPENGL32.dll
 0002:000001a4       __imp__glCopyTexImage2D@32 0052e1a4     opengl32:OPENGL32.dll
 0002:000001a8       __imp__glMaterialfv@12     0052e1a8     opengl32:OPENGL32.dll
 0002:000001ac       __imp__glLightfv@12        0052e1ac     opengl32:OPENGL32.dll
 0002:000001b0       __imp__glAlphaFunc@8       0052e1b0     opengl32:OPENGL32.dll
 0002:000001b4       __imp__glTexGeni@12        0052e1b4     opengl32:OPENGL32.dll
 0002:000001b8       __imp__glLightModelfv@8    0052e1b8     opengl32:OPENGL32.dll
 0002:000001bc       __imp__glFlush@0           0052e1bc     opengl32:OPENGL32.dll
 0002:000001c0       __imp__glDepthRange@16     0052e1c0     opengl32:OPENGL32.dll
 0002:000001c4       __imp__glTexGenfv@12       0052e1c4     opengl32:OPENGL32.dll
 0002:000001c8       __imp__glColor4fv@4        0052e1c8     opengl32:OPENGL32.dll
 0002:000001cc       __imp__glTexEnvi@12        0052e1cc     opengl32:OPENGL32.dll
 0002:000001d0       __imp__glTexEnvfv@12       0052e1d0     opengl32:OPENGL32.dll
 0002:000001d4       __imp__glTexCoord4f@16     0052e1d4     opengl32:OPENGL32.dll
 0002:000001d8       __imp__glHint@8            0052e1d8     opengl32:OPENGL32.dll
 0002:000001dc       __imp__glTexImage1D@32     0052e1dc     opengl32:OPENGL32.dll
 0002:000001e0       __imp__glTexSubImage1D@28  0052e1e0     opengl32:OPENGL32.dll
 0002:000001e4       __imp__glTexImage2D@36     0052e1e4     opengl32:OPENGL32.dll
 0002:000001e8       __imp__glTexCoord3f@12     0052e1e8     opengl32:OPENGL32.dll
 0002:000001ec       __imp__glGetTexLevelParameteriv@16 0052e1ec     opengl32:OPENGL32.dll
 0002:000001f0       __imp__glLineWidth@4       0052e1f0     opengl32:OPENGL32.dll
 0002:000001f4       __imp__glShadeModel@4      0052e1f4     opengl32:OPENGL32.dll
 0002:000001f8       __imp__glClearDepth@8      0052e1f8     opengl32:OPENGL32.dll
 0002:000001fc       __imp__glClearColor@16     0052e1fc     opengl32:OPENGL32.dll
 0002:00000200       __imp__glGetIntegerv@8     0052e200     opengl32:OPENGL32.dll
 0002:00000204       __imp__glGetString@4       0052e204     opengl32:OPENGL32.dll
 0002:00000208       __imp__glVertex3fv@4       0052e208     opengl32:OPENGL32.dll
 0002:0000020c       __imp__glReadPixels@28     0052e20c     opengl32:OPENGL32.dll
 0002:00000210       __imp__glColor3ubv@4       0052e210     opengl32:OPENGL32.dll
 0002:00000214       __imp__glColor4ubv@4       0052e214     opengl32:OPENGL32.dll
 0002:00000218       __imp__glPolygonMode@8     0052e218     opengl32:OPENGL32.dll
 0002:0000021c       __imp__glTexSubImage2D@36  0052e21c     opengl32:OPENGL32.dll
 0002:00000220       __imp__glPixelStorei@8     0052e220     opengl32:OPENGL32.dll
 0002:00000224       __imp__glVertex3f@12       0052e224     opengl32:OPENGL32.dll
 0002:00000228       __imp__glVertex2i@8        0052e228     opengl32:OPENGL32.dll
 0002:0000022c       __imp__glViewport@16       0052e22c     opengl32:OPENGL32.dll
 0002:00000230       __imp__glCopyTexSubImage2D@32 0052e230     opengl32:OPENGL32.dll
 0002:00000234       __imp__glScissor@16        0052e234     opengl32:OPENGL32.dll
 0002:00000238       __imp__glTexParameteri@12  0052e238     opengl32:OPENGL32.dll
 0002:0000023c       __imp__glReadBuffer@4      0052e23c     opengl32:OPENGL32.dll
 0002:00000240       __imp__glDisable@4         0052e240     opengl32:OPENGL32.dll
 0002:00000244       __imp__glColor3ub@12       0052e244     opengl32:OPENGL32.dll
 0002:00000248       __imp__glBegin@4           0052e248     opengl32:OPENGL32.dll
 0002:0000024c       __imp__glVertex2f@8        0052e24c     opengl32:OPENGL32.dll
 0002:00000250       __imp__glEnd@0             0052e250     opengl32:OPENGL32.dll
 0002:00000254       __imp__glEnable@4          0052e254     opengl32:OPENGL32.dll
 0002:00000258       __imp__glColor3f@12        0052e258     opengl32:OPENGL32.dll
 0002:0000025c       __imp__glTexCoord2fv@4     0052e25c     opengl32:OPENGL32.dll
 0002:00000260       __imp__glColor4ub@16       0052e260     opengl32:OPENGL32.dll
 0002:00000264       __imp__glColor4f@16        0052e264     opengl32:OPENGL32.dll
 0002:00000268       __imp__glBindTexture@8     0052e268     opengl32:OPENGL32.dll
 0002:0000026c       __imp__glColor3fv@4        0052e26c     opengl32:OPENGL32.dll
 0002:00000270       __imp__glBlendFunc@8       0052e270     opengl32:OPENGL32.dll
 0002:00000274       __imp__glDepthFunc@4       0052e274     opengl32:OPENGL32.dll
 0002:00000278       __imp__glTexCoord2f@8      0052e278     opengl32:OPENGL32.dll
 0002:0000027c       __imp__glPushMatrix@0      0052e27c     opengl32:OPENGL32.dll
 0002:00000280       __imp__glTranslatef@12     0052e280     opengl32:OPENGL32.dll
 0002:00000284       __imp__glScalef@12         0052e284     opengl32:OPENGL32.dll
 0002:00000288       __imp__glRotatef@16        0052e288     opengl32:OPENGL32.dll
 0002:0000028c       __imp__glMultMatrixf@4     0052e28c     opengl32:OPENGL32.dll
 0002:00000290       __imp__glDepthMask@4       0052e290     opengl32:OPENGL32.dll
 0002:00000294       __imp__glMatrixMode@4      0052e294     opengl32:OPENGL32.dll
 0002:00000298       __imp__glLoadIdentity@0    0052e298     opengl32:OPENGL32.dll
 0002:0000029c       __imp__glOrtho@48          0052e29c     opengl32:OPENGL32.dll
 0002:000002a0       __imp__glDeleteTextures@8  0052e2a0     opengl32:OPENGL32.dll
 0002:000002a4       __imp__glGenTextures@8     0052e2a4     opengl32:OPENGL32.dll
 0002:000002a8       __imp__glDrawBuffer@4      0052e2a8     opengl32:OPENGL32.dll
 0002:000002ac       __imp__glEnableClientState@4 0052e2ac     opengl32:OPENGL32.dll
 0002:000002b0       __imp__glDisableClientState@4 0052e2b0     opengl32:OPENGL32.dll
 0002:000002b4       __imp__glVertexPointer@16  0052e2b4     opengl32:OPENGL32.dll
 0002:000002b8       __imp__glTexCoordPointer@16 0052e2b8     opengl32:OPENGL32.dll
 0002:000002bc       __imp__glColorPointer@16   0052e2bc     opengl32:OPENGL32.dll
 0002:000002c0       __imp__glDrawElements@16   0052e2c0     opengl32:OPENGL32.dll
 0002:000002c4       __imp__glGetFloatv@8       0052e2c4     opengl32:OPENGL32.dll
 0002:000002c8       __imp__glFogfv@8           0052e2c8     opengl32:OPENGL32.dll
 0002:000002cc       __imp__glDrawArrays@12     0052e2cc     opengl32:OPENGL32.dll
 0002:000002d0       \177OPENGL32_NULL_THUNK_DATA 0052e2d0     opengl32:OPENGL32.dll
 0002:000002d4       __imp__SDL_EnableUNICODE   0052e2d4     SDL:SDL.dll
 0002:000002d8       __imp__SDL_SetModuleHandle 0052e2d8     SDL:SDL.dll
 0002:000002dc       __imp__SDL_strlcpy         0052e2dc     SDL:SDL.dll
 0002:000002e0       __imp__SDL_AllocRW         0052e2e0     SDL:SDL.dll
 0002:000002e4       __imp__SDL_SaveBMP_RW      0052e2e4     SDL:SDL.dll
 0002:000002e8       __imp__SDL_SetAlpha        0052e2e8     SDL:SDL.dll
 0002:000002ec       __imp__SDL_FreeSurface     0052e2ec     SDL:SDL.dll
 0002:000002f0       __imp__SDL_UpperBlit       0052e2f0     SDL:SDL.dll
 0002:000002f4       __imp__SDL_CreateRGBSurface 0052e2f4     SDL:SDL.dll
 0002:000002f8       __imp__SDL_CreateRGBSurfaceFrom 0052e2f8     SDL:SDL.dll
 0002:000002fc       __imp__SDL_RWFromFile      0052e2fc     SDL:SDL.dll
 0002:00000300       __imp__SDL_UnlockAudio     0052e300     SDL:SDL.dll
 0002:00000304       __imp__SDL_GetTicks        0052e304     SDL:SDL.dll
 0002:00000308       __imp__SDL_LockAudio       0052e308     SDL:SDL.dll
 0002:0000030c       __imp__SDL_FreeRW          0052e30c     SDL:SDL.dll
 0002:00000310       __imp__SDL_KillThread      0052e310     SDL:SDL.dll
 0002:00000314       __imp__SDL_ThreadID        0052e314     SDL:SDL.dll
 0002:00000318       __imp__SDL_GetThreadID     0052e318     SDL:SDL.dll
 0002:0000031c       __imp__SDL_GL_GetProcAddress 0052e31c     SDL:SDL.dll
 0002:00000320       __imp__SDL_WM_SetCaption   0052e320     SDL:SDL.dll
 0002:00000324       __imp__SDL_GetVideoInfo    0052e324     SDL:SDL.dll
 0002:00000328       __imp__SDL_Init            0052e328     SDL:SDL.dll
 0002:0000032c       __imp__SDL_Delay           0052e32c     SDL:SDL.dll
 0002:00000330       __imp__SDL_GL_SwapBuffers  0052e330     SDL:SDL.dll
 0002:00000334       __imp__SDL_PollEvent       0052e334     SDL:SDL.dll
 0002:00000338       __imp__SDL_SetVideoMode    0052e338     SDL:SDL.dll
 0002:0000033c       __imp__SDL_GL_SetAttribute 0052e33c     SDL:SDL.dll
 0002:00000340       __imp__SDL_VideoModeOK     0052e340     SDL:SDL.dll
 0002:00000344       __imp__SDL_ListModes       0052e344     SDL:SDL.dll
 0002:00000348       __imp__SDL_GetError        0052e348     SDL:SDL.dll
 0002:0000034c       __imp__SDL_EnableKeyRepeat 0052e34c     SDL:SDL.dll
 0002:00000350       __imp__SDL_WasInit         0052e350     SDL:SDL.dll
 0002:00000354       __imp__SDL_Quit            0052e354     SDL:SDL.dll
 0002:00000358       __imp__SDL_SetGamma        0052e358     SDL:SDL.dll
 0002:0000035c       __imp__SDL_WM_GrabInput    0052e35c     SDL:SDL.dll
 0002:00000360       __imp__SDL_ShowCursor      0052e360     SDL:SDL.dll
 0002:00000364       __imp__SDL_RemoveTimer     0052e364     SDL:SDL.dll
 0002:00000368       __imp__SDL_AddTimer        0052e368     SDL:SDL.dll
 0002:0000036c       __imp__SDL_WaitThread      0052e36c     SDL:SDL.dll
 0002:00000370       __imp__SDL_CreateMutex     0052e370     SDL:SDL.dll
 0002:00000374       __imp__SDL_DestroyMutex    0052e374     SDL:SDL.dll
 0002:00000378       __imp__SDL_CreateThread    0052e378     SDL:SDL.dll
 0002:0000037c       __imp__SDL_CreateCond      0052e37c     SDL:SDL.dll
 0002:00000380       __imp__SDL_DestroyCond     0052e380     SDL:SDL.dll
 0002:00000384       __imp__SDL_CondWaitTimeout 0052e384     SDL:SDL.dll
 0002:00000388       __imp__SDL_CondBroadcast   0052e388     SDL:SDL.dll
 0002:0000038c       __imp__SDL_CondWait        0052e38c     SDL:SDL.dll
 0002:00000390       __imp__SDL_CondSignal      0052e390     SDL:SDL.dll
 0002:00000394       __imp__SDL_mutexV          0052e394     SDL:SDL.dll
 0002:00000398       __imp__SDL_mutexP          0052e398     SDL:SDL.dll
 0002:0000039c       __imp__SDL_GetModState     0052e39c     SDL:SDL.dll
 0002:000003a0       \177SDL_NULL_THUNK_DATA    0052e3a0     SDL:SDL.dll
 0002:000003a4       __imp__IMG_Load_RW         0052e3a4     SDL_image:SDL_image.dll
 0002:000003a8       __imp__IMG_Load            0052e3a8     SDL_image:SDL_image.dll
 0002:000003ac       \177SDL_image_NULL_THUNK_DATA 0052e3ac     SDL_image:SDL_image.dll
 0002:000003b0       __imp__Mix_Volume          0052e3b0     SDL_mixer:SDL_mixer.dll
 0002:000003b4       __imp__Mix_QuerySpec       0052e3b4     SDL_mixer:SDL_mixer.dll
 0002:000003b8       __imp__Mix_SetPostMix      0052e3b8     SDL_mixer:SDL_mixer.dll
 0002:000003bc       __imp__Mix_FadingChannel   0052e3bc     SDL_mixer:SDL_mixer.dll
 0002:000003c0       __imp__Mix_Linked_Version  0052e3c0     SDL_mixer:SDL_mixer.dll
 0002:000003c4       __imp__Mix_SetPanning      0052e3c4     SDL_mixer:SDL_mixer.dll
 0002:000003c8       __imp__Mix_HaltChannel     0052e3c8     SDL_mixer:SDL_mixer.dll
 0002:000003cc       __imp__Mix_VolumeMusic     0052e3cc     SDL_mixer:SDL_mixer.dll
 0002:000003d0       __imp__Mix_FreeChunk       0052e3d0     SDL_mixer:SDL_mixer.dll
 0002:000003d4       __imp__Mix_FadeOutChannel  0052e3d4     SDL_mixer:SDL_mixer.dll
 0002:000003d8       __imp__Mix_PlayChannelTimed 0052e3d8     SDL_mixer:SDL_mixer.dll
 0002:000003dc       __imp__Mix_FadeInChannelTimed 0052e3dc     SDL_mixer:SDL_mixer.dll
 0002:000003e0       __imp__Mix_LoadWAV_RW      0052e3e0     SDL_mixer:SDL_mixer.dll
 0002:000003e4       __imp__Mix_ResumeMusic     0052e3e4     SDL_mixer:SDL_mixer.dll
 0002:000003e8       __imp__Mix_PausedMusic     0052e3e8     SDL_mixer:SDL_mixer.dll
 0002:000003ec       __imp__Mix_PlayingMusic    0052e3ec     SDL_mixer:SDL_mixer.dll
 0002:000003f0       __imp__Mix_CloseAudio      0052e3f0     SDL_mixer:SDL_mixer.dll
 0002:000003f4       __imp__Mix_PlayMusic       0052e3f4     SDL_mixer:SDL_mixer.dll
 0002:000003f8       __imp__Mix_LoadMUS         0052e3f8     SDL_mixer:SDL_mixer.dll
 0002:000003fc       __imp__Mix_LoadMUS_RW      0052e3fc     SDL_mixer:SDL_mixer.dll
 0002:00000400       __imp__Mix_ChannelFinished 0052e400     SDL_mixer:SDL_mixer.dll
 0002:00000404       __imp__Mix_AllocateChannels 0052e404     SDL_mixer:SDL_mixer.dll
 0002:00000408       __imp__Mix_OpenAudio       0052e408     SDL_mixer:SDL_mixer.dll
 0002:0000040c       __imp__Mix_FreeMusic       0052e40c     SDL_mixer:SDL_mixer.dll
 0002:00000410       __imp__Mix_HaltMusic       0052e410     SDL_mixer:SDL_mixer.dll
 0002:00000414       \177SDL_mixer_NULL_THUNK_DATA 0052e414     SDL_mixer:SDL_mixer.dll
 0002:00000418       __imp__CloseClipboard@0    0052e418     user32:USER32.dll
 0002:0000041c       __imp__GetClipboardData@4  0052e41c     user32:USER32.dll
 0002:00000420       __imp__OpenClipboard@4     0052e420     user32:USER32.dll
 0002:00000424       __imp__IsClipboardFormatAvailable@4 0052e424     user32:USER32.dll
 0002:00000428       __imp__MessageBoxA@16      0052e428     user32:USER32.dll
 0002:0000042c       \177USER32_NULL_THUNK_DATA 0052e42c     user32:USER32.dll
 0002:00000430       __imp__timeBeginPeriod@4   0052e430     winmm:WINMM.dll
 0002:00000434       __imp__timeGetTime@0       0052e434     winmm:WINMM.dll
 0002:00000438       __imp__timeEndPeriod@4     0052e438     winmm:WINMM.dll
 0002:0000043c       \177WINMM_NULL_THUNK_DATA  0052e43c     winmm:WINMM.dll
 0002:00000440       __imp__accept@12           0052e440     ws2_32:WS2_32.dll
 0002:00000444       __imp__connect@12          0052e444     ws2_32:WS2_32.dll
 0002:00000448       __imp__setsockopt@20       0052e448     ws2_32:WS2_32.dll
 0002:0000044c       __imp__ioctlsocket@12      0052e44c     ws2_32:WS2_32.dll
 0002:00000450       __imp__socket@12           0052e450     ws2_32:WS2_32.dll
 0002:00000454       __imp__closesocket@4       0052e454     ws2_32:WS2_32.dll
 0002:00000458       __imp__WSASendTo@36        0052e458     ws2_32:WS2_32.dll
 0002:0000045c       __imp__bind@12             0052e45c     ws2_32:WS2_32.dll
 0002:00000460       __imp__WSARecvFrom@36      0052e460     ws2_32:WS2_32.dll
 0002:00000464       __imp__inet_ntoa@4         0052e464     ws2_32:WS2_32.dll
 0002:00000468       __imp__inet_addr@4         0052e468     ws2_32:WS2_32.dll
 0002:0000046c       __imp__gethostbyname@4     0052e46c     ws2_32:WS2_32.dll
 0002:00000470       __imp__WSACleanup@0        0052e470     ws2_32:WS2_32.dll
 0002:00000474       __imp__WSAStartup@8        0052e474     ws2_32:WS2_32.dll
 0002:00000478       __imp__ntohs@4             0052e478     ws2_32:WS2_32.dll
 0002:0000047c       __imp__ntohl@4             0052e47c     ws2_32:WS2_32.dll
 0002:00000480       __imp__htonl@4             0052e480     ws2_32:WS2_32.dll
 0002:00000484       __imp__htons@4             0052e484     ws2_32:WS2_32.dll
 0002:00000488       __imp____WSAFDIsSet@8      0052e488     ws2_32:WS2_32.dll
 0002:0000048c       __imp__WSAGetLastError@0   0052e48c     ws2_32:WS2_32.dll
 0002:00000490       __imp__gethostbyaddr@12    0052e490     ws2_32:WS2_32.dll
 0002:00000494       __imp__select@20           0052e494     ws2_32:WS2_32.dll
 0002:00000498       __imp__listen@8            0052e498     ws2_32:WS2_32.dll
 0002:0000049c       \177WS2_32_NULL_THUNK_DATA 0052e49c     ws2_32:WS2_32.dll
 0002:000004a0       __imp__SymGetSymFromAddr@16 0052e4a0     dbghelp:dbghelp.dll
 0002:000004a4       __imp__SymFunctionTableAccess@8 0052e4a4     dbghelp:dbghelp.dll
 0002:000004a8       __imp__SymGetModuleBase@8  0052e4a8     dbghelp:dbghelp.dll
 0002:000004ac       __imp__StackWalk@36        0052e4ac     dbghelp:dbghelp.dll
 0002:000004b0       __imp__SymInitialize@12    0052e4b0     dbghelp:dbghelp.dll
 0002:000004b4       __imp__SymGetLineFromAddr@16 0052e4b4     dbghelp:dbghelp.dll
 0002:000004b8       \177dbghelp_NULL_THUNK_DATA 0052e4b8     dbghelp:dbghelp.dll
 0002:000004bc       __imp__compress2           0052e4bc     zdll:zlib1.dll
 0002:000004c0       __imp__inflate             0052e4c0     zdll:zlib1.dll
 0002:000004c4       __imp__inflateReset        0052e4c4     zdll:zlib1.dll
 0002:000004c8       __imp__inflateEnd          0052e4c8     zdll:zlib1.dll
 0002:000004cc       __imp__deflateInit2_       0052e4cc     zdll:zlib1.dll
 0002:000004d0       __imp__inflateInit2_       0052e4d0     zdll:zlib1.dll
 0002:000004d4       __imp__deflateEnd          0052e4d4     zdll:zlib1.dll
 0002:000004d8       __imp__deflate             0052e4d8     zdll:zlib1.dll
 0002:000004dc       __imp__deflateInit_        0052e4dc     zdll:zlib1.dll
 0002:000004e0       __imp__crc32               0052e4e0     zdll:zlib1.dll
 0002:000004e4       __imp__uncompress          0052e4e4     zdll:zlib1.dll
 0002:000004e8       __imp__compressBound       0052e4e8     zdll:zlib1.dll
 0002:000004ec       \177zlib1_NULL_THUNK_DATA  0052e4ec     zdll:zlib1.dll
 0002:000004f0       ___guard_check_icall_fptr  0052e4f0     LIBCMT:guard_support.obj
 0002:000004f4       ___castguard_check_failure_os_handled_fptr 0052e4f4     LIBCMT:guard_support.obj
 0002:000004f8       ___xc_a                    0052e4f8     LIBCMT:initializers.obj
 0002:00001a48       ___xc_z                    0052fa48     LIBCMT:initializers.obj
 0002:00001a4c       ___xi_a                    0052fa4c     LIBCMT:initializers.obj
 0002:00001a5c       ___acrt_stdio_initializer  0052fa5c     libucrt:stdio_initializer.obj
 0002:00001a60       ___acrt_tran_sse2_initializer 0052fa60     libucrt:sse2_initializer.obj
 0002:00001a64       ___acrt_timeset_initializer 0052fa64     libucrt:timeset_initializer.obj
 0002:00001a68       ___acrt_multibyte_initializer 0052fa68     libucrt:multibyte_initializer.obj
 0002:00001a6c       ___acrt_fmode_initializer  0052fa6c     libucrt:fmode_initializer.obj
 0002:00001a70       ___xi_z                    0052fa70     LIBCMT:initializers.obj
 0002:00001a74       ___xl_a                    0052fa74     LIBCMT:tlssup.obj
 0002:00001a78       ___xl_z                    0052fa78     LIBCMT:tlssup.obj
 0002:00001a7c       ___xp_a                    0052fa7c     LIBCMT:initializers.obj
 0002:00001a80       ___acrt_locale_terminator  0052fa80     libucrt:locale_initializer.obj
 0002:00001a84       ___dcrt_console_output_terminator 0052fa84     libucrt:console_output_initializer.obj
 0002:00001a88       ___acrt_stdio_terminator   0052fa88     libucrt:stdio_initializer.obj
 0002:00001a8c       ___xp_z                    0052fa8c     LIBCMT:initializers.obj
 0002:00001a90       ___xt_a                    0052fa90     LIBCMT:initializers.obj
 0002:00001a94       ___xt_z                    0052fa94     LIBCMT:initializers.obj
 0002:00001b84       ??_7type_info@@6B@         0052fb84     LIBCMT:std_type_info_static.obj
 0002:00001b88       ??_C@_1EC@JIJBPKFM@?$AAa?$AAp?$AAi?$AA?9?$AAm?$AAs?$AA?9?$AAw?$AAi?$AAn?$AA?9?$AAc?$AAo?$AAr?$AAe@ 0052fb88     LIBCMT:thread_safe_statics.obj
 0002:00001bcc       ??_C@_1BK@MGMFAEKH@?$AAk?$AAe?$AAr?$AAn?$AAe?$AAl?$AA3?$AA2?$AA?4?$AAd?$AAl?$AAl@ 0052fbcc     LIBCMT:thread_safe_statics.obj
 0002:00001be8       ??_C@_0BJ@JEBJOJFJ@SleepConditionVariableCS@ 0052fbe8     LIBCMT:thread_safe_statics.obj
 0002:00001c04       ??_C@_0BJ@PGPPEPCC@WakeAllConditionVariable@ 0052fc04     LIBCMT:thread_safe_statics.obj
 0002:00001c24       ??_7exception@std@@6B@     0052fc24     LIBCMT:throw_bad_alloc.obj
 0002:00001c2c       ??_C@_0BC@EOODALEL@Unknown?5exception@ 0052fc2c     LIBCMT:throw_bad_alloc.obj
 0002:00001c44       ??_7bad_alloc@std@@6B@     0052fc44     LIBCMT:throw_bad_alloc.obj
 0002:00001c4c       ??_C@_0P@GHFPNOJB@bad?5allocation@ 0052fc4c     LIBCMT:throw_bad_alloc.obj
 0002:00001c60       ??_7bad_array_new_length@std@@6B@ 0052fc60     LIBCMT:throw_bad_alloc.obj
 0002:00001c68       ??_C@_0BF@KINCDENJ@bad?5array?5new?5length@ 0052fc68     LIBCMT:throw_bad_alloc.obj
 0002:00001c88       __pDestructExceptionObject 0052fc88     libvcruntime:ehhelpers.obj
 0002:00001c90       ??_7bad_exception@std@@6B@ 0052fc90     libvcruntime:frame.obj
 0002:00001c98       ??_C@_0O@DPKOEFFH@bad?5exception@ 0052fc98     libvcruntime:frame.obj
 0002:00002030       ??_C@_08EHJDFFNH@__based?$CI@ 00530030     libvcruntime:undname.obj
 0002:0000203c       ??_C@_07KOLFKCDI@__cdecl@  0053003c     libvcruntime:undname.obj
 0002:00002044       ??_C@_08GHMPAG@__pascal@   00530044     libvcruntime:undname.obj
 0002:00002050       ??_C@_09IFJBGAPI@__stdcall@ 00530050     libvcruntime:undname.obj
 0002:0000205c       ??_C@_0L@NPHFGOKO@__thiscall@ 0053005c     libvcruntime:undname.obj
 0002:00002068       ??_C@_0L@JMKHOMEK@__fastcall@ 00530068     libvcruntime:undname.obj
 0002:00002074       ??_C@_0N@BCKKPABJ@__vectorcall@ 00530074     libvcruntime:undname.obj
 0002:00002084       ??_C@_09HIJEGCPM@__clrcall@ 00530084     libvcruntime:undname.obj
 0002:00002090       ??_C@_06GHPCKEAG@__eabi@   00530090     libvcruntime:undname.obj
 0002:00002098       ??_C@_09IOPIDJLG@__swift_1@ 00530098     libvcruntime:undname.obj
 0002:000020a4       ??_C@_09KFNFGKHF@__swift_2@ 005300a4     libvcruntime:undname.obj
 0002:000020b0       ??_C@_09LMMOFLDE@__swift_3@ 005300b0     libvcruntime:undname.obj
 0002:000020bc       ??_C@_07JOMMBBKO@__ptr64@  005300bc     libvcruntime:undname.obj
 0002:000020c4       ??_C@_0L@PILCLIHE@__restrict@ 005300c4     libvcruntime:undname.obj
 0002:000020d0       ??_C@_0M@GFIIJFMG@__unaligned@ 005300d0     libvcruntime:undname.obj
 0002:000020dc       ??_C@_09DHDLOLLB@restrict?$CI@ 005300dc     libvcruntime:undname.obj
 0002:000020e8       ??_C@_04NIHEBCM@?5new@     005300e8     libvcruntime:undname.obj
 0002:000020f0       ??_C@_07FPCDHGMM@?5delete@ 005300f0     libvcruntime:undname.obj
 0002:000020f8       ??_C@_02EGOFBIJA@?$DN?$DN@ 005300f8     libvcruntime:undname.obj
 0002:000020fc       ??_C@_02GPECMEKF@?$FL?$FN@ 005300fc     libvcruntime:undname.obj
 0002:00002100       ??_C@_08LHJFAFGD@operator@ 00530100     libvcruntime:undname.obj
 0002:0000210c       ??_C@_02HBOOOICD@?9?$DO@   0053010c     libvcruntime:undname.obj
 0002:00002110       ??_C@_02ECNGHCIF@?$CL?$CL@ 00530110     libvcruntime:undname.obj
 0002:00002114       ??_C@_02BAABKJLB@?9?9@     00530114     libvcruntime:undname.obj
 0002:00002118       ??_C@_03MNHNFDLC@?9?$DO?$CK@ 00530118     libvcruntime:undname.obj
 0002:0000211c       ??_C@_02HCKGKOFO@?$CI?$CJ@ 0053011c     libvcruntime:undname.obj
 0002:00002120       ??_C@_02FPIMKNGF@?$CK?$DN@ 00530120     libvcruntime:undname.obj
 0002:00002124       ??_C@_02FOEOMHFC@?$CL?$DN@ 00530124     libvcruntime:undname.obj
 0002:00002128       ??_C@_02FKMDLLOA@?9?$DN@   00530128     libvcruntime:undname.obj
 0002:0000212c       ??_C@_02FJEHGPIO@?1?$DN@   0053012c     libvcruntime:undname.obj
 0002:00002130       ??_C@_02FENAOKFI@?$CF?$DN@ 00530130     libvcruntime:undname.obj
 0002:00002134       ??_C@_03IKFCCPFF@?$DO?$DO?$DN@ 00530134     libvcruntime:undname.obj
 0002:00002138       ??_C@_03CDNPDDLA@?$DM?$DM?$DN@ 00530138     libvcruntime:undname.obj
 0002:0000213c       ??_C@_02FGJGFEAB@?$CG?$DN@ 0053013c     libvcruntime:undname.obj
 0002:00002140       ??_C@_02DHLNPPGH@?$HM?$DN@ 00530140     libvcruntime:undname.obj
 0002:00002144       ??_C@_02MHEGNOJ@?$FO?$DN@  00530144     libvcruntime:undname.obj
 0002:00002148       ??_C@_09IFPLHPGF@?$GAvftable?8@ 00530148     libvcruntime:undname.obj
 0002:00002154       ??_C@_09BLBHBJP@?$GAvbtable?8@ 00530154     libvcruntime:undname.obj
 0002:00002160       ??_C@_07FEEIOKP@?$GAvcall?8@ 00530160     libvcruntime:undname.obj
 0002:00002168       ??_C@_08LLFFHHDJ@?$GAtypeof?8@ 00530168     libvcruntime:undname.obj
 0002:00002174       ??_C@_0BF@KDPPACIK@?$GAlocal?5static?5guard?8@ 00530174     libvcruntime:undname.obj
 0002:0000218c       ??_C@_08OBABFOLI@?$GAstring?8@ 0053018c     libvcruntime:undname.obj
 0002:00002198       ??_C@_0BD@JDLKDPAB@?$GAvbase?5destructor?8@ 00530198     libvcruntime:undname.obj
 0002:000021ac       ??_C@_0BN@DEGPLNFK@?$GAvector?5deleting?5destructor?8@ 005301ac     libvcruntime:undname.obj
 0002:000021cc       ??_C@_0BO@OBMKPJIG@?$GAdefault?5constructor?5closure?8@ 005301cc     libvcruntime:undname.obj
 0002:000021ec       ??_C@_0BN@IMDCHIKM@?$GAscalar?5deleting?5destructor?8@ 005301ec     libvcruntime:undname.obj
 0002:0000220c       ??_C@_0BO@PFGOCPJJ@?$GAvector?5constructor?5iterator?8@ 0053020c     libvcruntime:undname.obj
 0002:0000222c       ??_C@_0BN@LFPFMEDL@?$GAvector?5destructor?5iterator?8@ 0053022c     libvcruntime:undname.obj
 0002:0000224c       ??_C@_0CE@IKBNEHA@?$GAvector?5vbase?5constructor?5itera@ 0053024c     libvcruntime:undname.obj
 0002:00002270       ??_C@_0BL@NILFHHPC@?$GAvirtual?5displacement?5map?8@ 00530270     libvcruntime:undname.obj
 0002:0000228c       ??_C@_0CB@JONCMFFK@?$GAeh?5vector?5constructor?5iterator@ 0053028c     libvcruntime:undname.obj
 0002:000022b0       ??_C@_0CA@GCEOPDGL@?$GAeh?5vector?5destructor?5iterator?8@ 005302b0     libvcruntime:undname.obj
 0002:000022d0       ??_C@_0CH@OOJPLCPH@?$GAeh?5vector?5vbase?5constructor?5it@ 005302d0     libvcruntime:undname.obj
 0002:000022f8       ??_C@_0BL@LLKPOHJI@?$GAcopy?5constructor?5closure?8@ 005302f8     libvcruntime:undname.obj
 0002:00002314       ??_C@_0BA@KBCDOMBN@?$GAudt?5returning?8@ 00530314     libvcruntime:undname.obj
 0002:00002324       ??_C@_03KLGMFNMG@?$GAEH@   00530324     libvcruntime:undname.obj
 0002:00002328       ??_C@_05KHLCHHI@?$GARTTI@  00530328     libvcruntime:undname.obj
 0002:00002330       ??_C@_0BA@KKLDJDLB@?$GAlocal?5vftable?8@ 00530330     libvcruntime:undname.obj
 0002:00002340       ??_C@_0CE@IIHCMGGL@?$GAlocal?5vftable?5constructor?5clos@ 00530340     libvcruntime:undname.obj
 0002:00002364       ??_C@_06FHBGPFGH@?5new?$FL?$FN@ 00530364     libvcruntime:undname.obj
 0002:0000236c       ??_C@_09LBNFPBCA@?5delete?$FL?$FN@ 0053036c     libvcruntime:undname.obj
 0002:00002378       ??_C@_0P@HJKNJFNN@?$GAomni?5callsig?8@ 00530378     libvcruntime:undname.obj
 0002:00002388       ??_C@_0BL@CNOONJFP@?$GAplacement?5delete?5closure?8@ 00530388     libvcruntime:undname.obj
 0002:000023a4       ??_C@_0BN@CKNJLHMB@?$GAplacement?5delete?$FL?$FN?5closure?8@ 005303a4     libvcruntime:undname.obj
 0002:000023c4       ??_C@_0CG@CFDHKGGD@?$GAmanaged?5vector?5constructor?5ite@ 005303c4     libvcruntime:undname.obj
 0002:000023ec       ??_C@_0CF@IMGKMJNO@?$GAmanaged?5vector?5destructor?5iter@ 005303ec     libvcruntime:undname.obj
 0002:00002414       ??_C@_0CG@HLDDJMAG@?$GAeh?5vector?5copy?5constructor?5ite@ 00530414     libvcruntime:undname.obj
 0002:0000243c       ??_C@_0CM@FCBBDIGB@?$GAeh?5vector?5vbase?5copy?5construct@ 0053043c     libvcruntime:undname.obj
 0002:00002468       ??_C@_0BL@CLIPGLGB@?$GAdynamic?5initializer?5for?5?8@ 00530468     libvcruntime:undname.obj
 0002:00002484       ??_C@_0CB@PDBIFEP@?$GAdynamic?5atexit?5destructor?5for?5@ 00530484     libvcruntime:undname.obj
 0002:000024a8       ??_C@_0CD@CGAJBKEJ@?$GAvector?5copy?5constructor?5iterat@ 005304a8     libvcruntime:undname.obj
 0002:000024cc       ??_C@_0CJ@GJELGAMM@?$GAvector?5vbase?5copy?5constructor?5@ 005304cc     libvcruntime:undname.obj
 0002:000024f8       ??_C@_0CL@FGIJHLCE@?$GAmanaged?5vector?5copy?5constructo@ 005304f8     libvcruntime:undname.obj
 0002:00002524       ??_C@_0BM@PMGGMLDN@?$GAlocal?5static?5thread?5guard?8@ 00530524     libvcruntime:undname.obj
 0002:00002540       ??_C@_0N@BDNMDMOL@operator?5?$CC?$CC?5@ 00530540     libvcruntime:undname.obj
 0002:00002550       ??_C@_0BC@GGEBGALA@operator?5co_await@ 00530550     libvcruntime:undname.obj
 0002:00002564       ??_C@_0M@GAAIMMOH@operator?$DM?$DN?$DO@ 00530564     libvcruntime:undname.obj
 0002:00002570       ??_C@_0BC@DAFEJGAK@?5Type?5Descriptor?8@ 00530570     libvcruntime:undname.obj
 0002:00002584       ??_C@_0BM@LDKODKLH@?5Base?5Class?5Descriptor?5at?5?$CI@ 00530584     libvcruntime:undname.obj
 0002:000025a0       ??_C@_0BD@LGICGFMM@?5Base?5Class?5Array?8@ 005305a0     libvcruntime:undname.obj
 0002:000025b4       ??_C@_0BN@MECKDCOJ@?5Class?5Hierarchy?5Descriptor?8@ 005305b4     libvcruntime:undname.obj
 0002:000025d4       ??_C@_0BK@CFCOFLF@?5Complete?5Object?5Locator?8@ 005305d4     libvcruntime:undname.obj
 0002:000025f0       ??_C@_0BG@JNJLAMPM@?$GAanonymous?5namespace?8@ 005305f0     libvcruntime:undname.obj
 0002:00002614       ??_C@_1DM@KHCHBNEB@?$AAa?$AAp?$AAi?$AA?9?$AAm?$AAs?$AA?9?$AAw?$AAi?$AAn?$AA?9?$AAc?$AAo?$AAr?$AAe@ 00530614     libvcruntime:winapi_downlevel.obj
 0002:00002650       ??_C@_1DK@LPPGFMPP@?$AAa?$AAp?$AAi?$AA?9?$AAm?$AAs?$AA?9?$AAw?$AAi?$AAn?$AA?9?$AAc?$AAo?$AAr?$AAe@ 00530650     libvcruntime:winapi_downlevel.obj
 0002:0000268c       ??_C@_1BC@GDMECMAK@?$AAk?$AAe?$AAr?$AAn?$AAe?$AAl?$AA3?$AA2@ 0053068c     libvcruntime:winapi_downlevel.obj
 0002:000026a0       ??_C@_1BA@PFFKHIOG@?$AAa?$AAp?$AAi?$AA?9?$AAm?$AAs?$AA?9@ 005306a0     libvcruntime:winapi_downlevel.obj
 0002:000026b8       ??_C@_08KNHFBNJ@FlsAlloc@  005306b8     libvcruntime:winapi_downlevel.obj
 0002:000026cc       ??_C@_07PEJMOBNF@FlsFree@  005306cc     libvcruntime:winapi_downlevel.obj
 0002:000026dc       ??_C@_0M@GDNOONDI@FlsGetValue@ 005306dc     libvcruntime:winapi_downlevel.obj
 0002:000026f0       ??_C@_0M@JCPCPOEF@FlsSetValue@ 005306f0     libvcruntime:winapi_downlevel.obj
 0002:00002704       ??_C@_0BM@HCFOFFN@InitializeCriticalSectionEx@ 00530704     libvcruntime:winapi_downlevel.obj
 0002:00002720       ?standard_lookup_table_spectre@__crt_stdio_output@@3V?$spectre_mitigated_lookup_table@Ustate_transition_pair@__crt_stdio_output@@$0IA@@1@B 00530720     libucrt:output.obj
 0002:00002b20       ??_C@_1O@CEDCILHN@?$AA?$CI?$AAn?$AAu?$AAl?$AAl?$AA?$CJ@ 00530b20     libucrt:output.obj
 0002:00002b30       ??_C@_06OJHGLDPL@?$CInull?$CJ@ 00530b30     libucrt:output.obj
 0002:00002bd8       ?large_power_data@?1??multiply_by_power_of_ten@__crt_strtox@@YA_NAAUbig_integer@2@I@Z@4QBIB 00530bd8     libucrt:strtod.obj
 0002:000034e0       ?large_power_indices@?1??multiply_by_power_of_ten@__crt_strtox@@YA_NAAUbig_integer@2@I@Z@4QBUunpack_index@?1??12@YA_N0I@Z@B 005314e0     libucrt:strtod.obj
 0002:00003578       ?small_powers_of_ten@?1??multiply_by_power_of_ten@__crt_strtox@@YA_NAAUbig_integer@2@I@Z@4QBIB 00531578     libucrt:strtod.obj
 0002:000035a0       ??_C@_1GE@DPGDJKLM@?$AAm?$AAi?$AAn?$AAk?$AAe?$AAr?$AAn?$AAe?$AAl?$AA?2?$AAc?$AAr?$AAt?$AAs?$AA?2@ 005315a0     libucrt:strtod.obj
 0002:00003608       ??_C@_1FM@FELNCOBF@?$AA_?$AA_?$AAc?$AAr?$AAt?$AA_?$AAs?$AAt?$AAr?$AAt?$AAo?$AAx?$AA?3?$AA?3?$AAf@ 00531608     libucrt:strtod.obj
 0002:00003664       ??_C@_1BG@GEMHBGAF@?$AA_?$AAi?$AAs?$AA_?$AAd?$AAo?$AAu?$AAb?$AAl?$AAe@ 00531664     libucrt:strtod.obj
 0002:00003680       ??_C@_1FK@JOJELFFO@?$AA_?$AA_?$AAc?$AAr?$AAt?$AA_?$AAs?$AAt?$AAr?$AAt?$AAo?$AAx?$AA?3?$AA?3?$AAf@ 00531680     libucrt:strtod.obj
 0002:000036dc       ??_C@_1BI@BANMPGJI@?$AA?$CB?$AA_?$AAi?$AAs?$AA_?$AAd?$AAo?$AAu?$AAb?$AAl?$AAe@ 005316dc     libucrt:strtod.obj
 0002:000036f4       ?inf_uppercase@?1???$parse_floating_point_possible_infinity@DV?$c_string_character_source@D@__crt_strtox@@PBD@__crt_strtox@@YA?AW4floating_point_parse_result@1@AADAAV?$c_string_character_source@D@1@PBD@Z@4QBDB 005316f4     libucrt:strtod.obj
 0002:000036f8       ?inf_lowercase@?1???$parse_floating_point_possible_infinity@DV?$c_string_character_source@D@__crt_strtox@@PBD@__crt_strtox@@YA?AW4floating_point_parse_result@1@AADAAV?$c_string_character_source@D@1@PBD@Z@4QBDB 005316f8     libucrt:strtod.obj
 0002:000036fc       ?inity_uppercase@?1???$parse_floating_point_possible_infinity@DV?$c_string_character_source@D@__crt_strtox@@PBD@__crt_strtox@@YA?AW4floating_point_parse_result@1@AADAAV?$c_string_character_source@D@1@PBD@Z@4QBDB 005316fc     libucrt:strtod.obj
 0002:00003704       ?inity_lowercase@?1???$parse_floating_point_possible_infinity@DV?$c_string_character_source@D@__crt_strtox@@PBD@__crt_strtox@@YA?AW4floating_point_parse_result@1@AADAAV?$c_string_character_source@D@1@PBD@Z@4QBDB 00531704     libucrt:strtod.obj
 0002:0000370c       ?uppercase@?1???$parse_floating_point_possible_nan@DV?$c_string_character_source@D@__crt_strtox@@PBD@__crt_strtox@@YA?AW4floating_point_parse_result@1@AADAAV?$c_string_character_source@D@1@PBD@Z@4QBDB 0053170c     libucrt:strtod.obj
 0002:00003710       ?lowercase@?1???$parse_floating_point_possible_nan@DV?$c_string_character_source@D@__crt_strtox@@PBD@__crt_strtox@@YA?AW4floating_point_parse_result@1@AADAAV?$c_string_character_source@D@1@PBD@Z@4QBDB 00531710     libucrt:strtod.obj
 0002:00003714       ?uppercase@?1???$parse_floating_point_possible_nan_is_snan@DV?$c_string_character_source@D@__crt_strtox@@@__crt_strtox@@YA_NAADAAV?$c_string_character_source@D@1@@Z@4QBDB 00531714     libucrt:strtod.obj
 0002:0000371c       ?lowercase@?1???$parse_floating_point_possible_nan_is_snan@DV?$c_string_character_source@D@__crt_strtox@@@__crt_strtox@@YA_NAADAAV?$c_string_character_source@D@1@@Z@4QBDB 0053171c     libucrt:strtod.obj
 0002:00003724       ?uppercase@?1???$parse_floating_point_possible_nan_is_ind@DV?$c_string_character_source@D@__crt_strtox@@@__crt_strtox@@YA_NAADAAV?$c_string_character_source@D@1@@Z@4QBDB 00531724     libucrt:strtod.obj
 0002:00003728       ?lowercase@?1???$parse_floating_point_possible_nan_is_ind@DV?$c_string_character_source@D@__crt_strtox@@@__crt_strtox@@YA_NAADAAV?$c_string_character_source@D@1@@Z@4QBDB 00531728     libucrt:strtod.obj
 0002:0000372c       ??_C@_13CGOKJPIL@?$AA?1@   0053172c     libucrt:exit.obj
 0002:00003730       ??_C@_1BI@BGOHAHKC@?$AAm?$AAs?$AAc?$AAo?$AAr?$AAe?$AAe?$AA?4?$AAd?$AAl?$AAl@ 00531730     libucrt:exit.obj
 0002:00003748       ??_C@_0P@MIGLKIOC@CorExitProcess@ 00531748     libucrt:exit.obj
 0002:00003758       ?constraints@?1??is_length_valid@__crt_stdio_input@@YA_NW4conversion_mode@2@W4length_modifier@2@@Z@4QAY0M@$$CBEA 00531758     libucrt:input.obj
 0002:000037d0       ?inf_uppercase@?1???$parse_floating_point_possible_infinity@DV?$input_adapter_character_source@V?$string_input_adapter@D@__crt_stdio_input@@@__crt_strtox@@_K@__crt_strtox@@YA?AW4floating_point_parse_result@1@AADAAV?$input_adapter_character_source@V?$string_input_adapter@D@__crt_stdio_input@@@1@_K@Z@4QBDB 005317d0     libucrt:input.obj
 0002:000037d4       ?inf_lowercase@?1???$parse_floating_point_possible_infinity@DV?$input_adapter_character_source@V?$string_input_adapter@D@__crt_stdio_input@@@__crt_strtox@@_K@__crt_strtox@@YA?AW4floating_point_parse_result@1@AADAAV?$input_adapter_character_source@V?$string_input_adapter@D@__crt_stdio_input@@@1@_K@Z@4QBDB 005317d4     libucrt:input.obj
 0002:000037d8       ?inity_uppercase@?1???$parse_floating_point_possible_infinity@DV?$input_adapter_character_source@V?$string_input_adapter@D@__crt_stdio_input@@@__crt_strtox@@_K@__crt_strtox@@YA?AW4floating_point_parse_result@1@AADAAV?$input_adapter_character_source@V?$string_input_adapter@D@__crt_stdio_input@@@1@_K@Z@4QBDB 005317d8     libucrt:input.obj
 0002:000037e0       ?inity_lowercase@?1???$parse_floating_point_possible_infinity@DV?$input_adapter_character_source@V?$string_input_adapter@D@__crt_stdio_input@@@__crt_strtox@@_K@__crt_strtox@@YA?AW4floating_point_parse_result@1@AADAAV?$input_adapter_character_source@V?$string_input_adapter@D@__crt_stdio_input@@@1@_K@Z@4QBDB 005317e0     libucrt:input.obj
 0002:000037e8       ?uppercase@?1???$parse_floating_point_possible_nan@DV?$input_adapter_character_source@V?$string_input_adapter@D@__crt_stdio_input@@@__crt_strtox@@_K@__crt_strtox@@YA?AW4floating_point_parse_result@1@AADAAV?$input_adapter_character_source@V?$string_input_adapter@D@__crt_stdio_input@@@1@_K@Z@4QBDB 005317e8     libucrt:input.obj
 0002:000037ec       ?lowercase@?1???$parse_floating_point_possible_nan@DV?$input_adapter_character_source@V?$string_input_adapter@D@__crt_stdio_input@@@__crt_strtox@@_K@__crt_strtox@@YA?AW4floating_point_parse_result@1@AADAAV?$input_adapter_character_source@V?$string_input_adapter@D@__crt_stdio_input@@@1@_K@Z@4QBDB 005317ec     libucrt:input.obj
 0002:000037f0       ?uppercase@?1???$parse_floating_point_possible_nan_is_snan@DV?$input_adapter_character_source@V?$string_input_adapter@D@__crt_stdio_input@@@__crt_strtox@@@__crt_strtox@@YA_NAADAAV?$input_adapter_character_source@V?$string_input_adapter@D@__crt_stdio_input@@@1@@Z@4QBDB 005317f0     libucrt:input.obj
 0002:000037f8       ?lowercase@?1???$parse_floating_point_possible_nan_is_snan@DV?$input_adapter_character_source@V?$string_input_adapter@D@__crt_stdio_input@@@__crt_strtox@@@__crt_strtox@@YA_NAADAAV?$input_adapter_character_source@V?$string_input_adapter@D@__crt_stdio_input@@@1@@Z@4QBDB 005317f8     libucrt:input.obj
 0002:00003800       ?uppercase@?1???$parse_floating_point_possible_nan_is_ind@DV?$input_adapter_character_source@V?$string_input_adapter@D@__crt_stdio_input@@@__crt_strtox@@@__crt_strtox@@YA_NAADAAV?$input_adapter_character_source@V?$string_input_adapter@D@__crt_stdio_input@@@1@@Z@4QBDB 00531800     libucrt:input.obj
 0002:00003804       ?lowercase@?1???$parse_floating_point_possible_nan_is_ind@DV?$input_adapter_character_source@V?$string_input_adapter@D@__crt_stdio_input@@@__crt_strtox@@@__crt_strtox@@YA_NAADAAV?$input_adapter_character_source@V?$string_input_adapter@D@__crt_stdio_input@@@1@@Z@4QBDB 00531804     libucrt:input.obj
 0002:00003808       ___acrt_exception_action_table 00531808     libucrt:exception_filter.obj
 0002:00003898       ___acrt_signal_action_table_count 00531898     libucrt:exception_filter.obj
 0002:0000389c       ___acrt_signal_action_first_fpe_index 0053189c     libucrt:exception_filter.obj
 0002:000038a0       ___acrt_signal_action_fpe_count 005318a0     libucrt:exception_filter.obj
 0002:00003928       ??_C@_13IMODFHAA@?$AA?9@   00531928     libucrt:wsetlocale.obj
 0002:00003ad8       ??_C@_03OEIAHPBN@INF@      00531ad8     libucrt:cvt.obj
 0002:00003adc       ??_C@_03OJHLLCGB@inf@      00531adc     libucrt:cvt.obj
 0002:00003ae0       ??_C@_03LKNCIKJB@NAN@      00531ae0     libucrt:cvt.obj
 0002:00003ae4       ??_C@_03LHCJEHON@nan@      00531ae4     libucrt:cvt.obj
 0002:00003ae8       ??_C@_09OFJJIMPC@NAN?$CISNAN?$CJ@ 00531ae8     libucrt:cvt.obj
 0002:00003af4       ??_C@_09IPFBKMDL@nan?$CIsnan?$CJ@ 00531af4     libucrt:cvt.obj
 0002:00003b00       ??_C@_08IKHNHAJ@NAN?$CIIND?$CJ@ 00531b00     libucrt:cvt.obj
 0002:00003b0c       ??_C@_08OFCDMILK@nan?$CIind?$CJ@ 00531b0c     libucrt:cvt.obj
 0002:00003b18       ??_C@_05KLBDPFGC@e?$CL000@ 00531b18     libucrt:cvt.obj
 0002:00003b20       ___lc_time_c               00531b20     libucrt:nlsdata.obj
 0002:00003c84       ??_C@_03KOEHGMDN@Sun@      00531c84     libucrt:nlsdata.obj
 0002:00003c88       ??_C@_03PDAGKDH@Mon@       00531c88     libucrt:nlsdata.obj
 0002:00003c8c       ??_C@_03NAGEINEP@Tue@      00531c8c     libucrt:nlsdata.obj
 0002:00003c90       ??_C@_03MHOMLAJA@Wed@      00531c90     libucrt:nlsdata.obj
 0002:00003c94       ??_C@_03IOFIKPDN@Thu@      00531c94     libucrt:nlsdata.obj
 0002:00003c98       ??_C@_03IDIOELNC@Fri@      00531c98     libucrt:nlsdata.obj
 0002:00003c9c       ??_C@_03FEFJNEK@Sat@       00531c9c     libucrt:nlsdata.obj
 0002:00003ca0       ??_C@_06OOPIFAJ@Sunday@    00531ca0     libucrt:nlsdata.obj
 0002:00003ca8       ??_C@_06JLEDEDGH@Monday@   00531ca8     libucrt:nlsdata.obj
 0002:00003cb0       ??_C@_07BAAGCFCM@Tuesday@  00531cb0     libucrt:nlsdata.obj
 0002:00003cb8       ??_C@_09DLIGFAKA@Wednesday@ 00531cb8     libucrt:nlsdata.obj
 0002:00003cc4       ??_C@_08HACCIKIA@Thursday@ 00531cc4     libucrt:nlsdata.obj
 0002:00003cd0       ??_C@_06JECMNKMI@Friday@   00531cd0     libucrt:nlsdata.obj
 0002:00003cd8       ??_C@_08INBOOONO@Saturday@ 00531cd8     libucrt:nlsdata.obj
 0002:00003ce4       ??_C@_03JIHJHPIE@Jan@      00531ce4     libucrt:nlsdata.obj
 0002:00003ce8       ??_C@_03HJBDCHOM@Feb@      00531ce8     libucrt:nlsdata.obj
 0002:00003cec       ??_C@_03ODNJBKGA@Mar@      00531cec     libucrt:nlsdata.obj
 0002:00003cf0       ??_C@_03LEOLGMJP@Apr@      00531cf0     libucrt:nlsdata.obj
 0002:00003cf4       ??_C@_03CNMDKL@May@        00531cf4     libucrt:nlsdata.obj
 0002:00003cf8       ??_C@_03IDFGHECI@Jun@      00531cf8     libucrt:nlsdata.obj
 0002:00003cfc       ??_C@_03LBGABGKK@Jul@      00531cfc     libucrt:nlsdata.obj
 0002:00003d00       ??_C@_03IFJFEIGA@Aug@      00531d00     libucrt:nlsdata.obj
 0002:00003d04       ??_C@_03GGCAPAJC@Sep@      00531d04     libucrt:nlsdata.obj
 0002:00003d08       ??_C@_03BMAOKBAD@Oct@      00531d08     libucrt:nlsdata.obj
 0002:00003d0c       ??_C@_03JPJOFNIA@Nov@      00531d0c     libucrt:nlsdata.obj
 0002:00003d10       ??_C@_03MKABNOCG@Dec@      00531d10     libucrt:nlsdata.obj
 0002:00003d14       ??_C@_07CGJPFGJA@January@  00531d14     libucrt:nlsdata.obj
 0002:00003d1c       ??_C@_08GNJGEPFN@February@ 00531d1c     libucrt:nlsdata.obj
 0002:00003d28       ??_C@_05HPCKOFNC@March@    00531d28     libucrt:nlsdata.obj
 0002:00003d30       ??_C@_05DMJDNLEJ@April@    00531d30     libucrt:nlsdata.obj
 0002:00003d38       ??_C@_04CNLMGBGM@June@     00531d38     libucrt:nlsdata.obj
 0002:00003d40       ??_C@_04MIEPOIFP@July@     00531d40     libucrt:nlsdata.obj
 0002:00003d48       ??_C@_06LBBHFDDG@August@   00531d48     libucrt:nlsdata.obj
 0002:00003d50       ??_C@_09BHHEALKD@September@ 00531d50     libucrt:nlsdata.obj
 0002:00003d5c       ??_C@_07JJNFCEND@October@  00531d5c     libucrt:nlsdata.obj
 0002:00003d64       ??_C@_08HCHEGEOA@November@ 00531d64     libucrt:nlsdata.obj
 0002:00003d70       ??_C@_08EDHMEBNP@December@ 00531d70     libucrt:nlsdata.obj
 0002:00003d7c       ??_C@_02DEDBPAFC@AM@       00531d7c     libucrt:nlsdata.obj
 0002:00003d80       ??_C@_02CJNFDJBF@PM@       00531d80     libucrt:nlsdata.obj
 0002:00003d84       ??_C@_08BPBNCDIB@MM?1dd?1yy@ 00531d84     libucrt:nlsdata.obj
 0002:00003d90       ??_C@_0BE@CKGJFCPC@dddd?0?5MMMM?5dd?0?5yyyy@ 00531d90     libucrt:nlsdata.obj
 0002:00003da4       ??_C@_08JCCMCCIL@HH?3mm?3ss@ 00531da4     libucrt:nlsdata.obj
 0002:00003db0       ??_C@_17MBGCMIPB@?$AAS?$AAu?$AAn@ 00531db0     libucrt:nlsdata.obj
 0002:00003db8       ??_C@_17KBOMKBF@?$AAM?$AAo?$AAn@ 00531db8     libucrt:nlsdata.obj
 0002:00003dc0       ??_C@_17BMKGEGOJ@?$AAT?$AAu?$AAe@ 00531dc0     libucrt:nlsdata.obj
 0002:00003dc8       ??_C@_17CJEDCEPE@?$AAW?$AAe?$AAd@ 00531dc8     libucrt:nlsdata.obj
 0002:00003dd0       ??_C@_17PDPHAADD@?$AAT?$AAh?$AAu@ 00531dd0     libucrt:nlsdata.obj
 0002:00003dd8       ??_C@_17HFOLPPLP@?$AAF?$AAr?$AAi@ 00531dd8     libucrt:nlsdata.obj
 0002:00003de0       ??_C@_17GGIBDPIH@?$AAS?$AAa?$AAt@ 00531de0     libucrt:nlsdata.obj
 0002:00003de8       ??_C@_1O@IHNHDHPB@?$AAS?$AAu?$AAn?$AAd?$AAa?$AAy@ 00531de8     libucrt:nlsdata.obj
 0002:00003df8       ??_C@_1O@MMNBFLIA@?$AAM?$AAo?$AAn?$AAd?$AAa?$AAy@ 00531df8     libucrt:nlsdata.obj
 0002:00003e08       ??_C@_1BA@ENFBFFEK@?$AAT?$AAu?$AAe?$AAs?$AAd?$AAa?$AAy@ 00531e08     libucrt:nlsdata.obj
 0002:00003e18       ??_C@_1BE@EBOGMDOH@?$AAW?$AAe?$AAd?$AAn?$AAe?$AAs?$AAd?$AAa?$AAy@ 00531e18     libucrt:nlsdata.obj
 0002:00003e2c       ??_C@_1BC@HHMNLIHE@?$AAT?$AAh?$AAu?$AAr?$AAs?$AAd?$AAa?$AAy@ 00531e2c     libucrt:nlsdata.obj
 0002:00003e40       ??_C@_1O@PDICJHAG@?$AAF?$AAr?$AAi?$AAd?$AAa?$AAy@ 00531e40     libucrt:nlsdata.obj
 0002:00003e50       ??_C@_1BC@ENMNNPAJ@?$AAS?$AAa?$AAt?$AAu?$AAr?$AAd?$AAa?$AAy@ 00531e50     libucrt:nlsdata.obj
 0002:00003e64       ??_C@_17DKNBKCHM@?$AAJ?$AAa?$AAn@ 00531e64     libucrt:nlsdata.obj
 0002:00003e6c       ??_C@_17LMDJEKJN@?$AAF?$AAe?$AAb@ 00531e6c     libucrt:nlsdata.obj
 0002:00003e74       ??_C@_17CKNLEDEC@?$AAM?$AAa?$AAr@ 00531e74     libucrt:nlsdata.obj
 0002:00003e7c       ??_C@_17LFPOIHDD@?$AAA?$AAp?$AAr@ 00531e7c     libucrt:nlsdata.obj
 0002:00003e84       ??_C@_17PNNKMEED@?$AAM?$AAa?$AAy@ 00531e84     libucrt:nlsdata.obj
 0002:00003e8c       ??_C@_17KCJGOCPB@?$AAJ?$AAu?$AAn@ 00531e8c     libucrt:nlsdata.obj
 0002:00003e94       ??_C@_17IJPCKHK@?$AAJ?$AAu?$AAl@ 00531e94     libucrt:nlsdata.obj
 0002:00003e9c       ??_C@_17ICPELBCN@?$AAA?$AAu?$AAg@ 00531e9c     libucrt:nlsdata.obj
 0002:00003ea4       ??_C@_17HCHCOKMG@?$AAS?$AAe?$AAp@ 00531ea4     libucrt:nlsdata.obj
 0002:00003eac       ??_C@_17FNLKOI@?$AAO?$AAc?$AAt@ 00531eac     libucrt:nlsdata.obj
 0002:00003eb4       ??_C@_17BBDMLCIG@?$AAN?$AAo?$AAv@ 00531eb4     libucrt:nlsdata.obj
 0002:00003ebc       ??_C@_17EGKACKIF@?$AAD?$AAe?$AAc@ 00531ebc     libucrt:nlsdata.obj
 0002:00003ec4       ??_C@_1BA@EFMEIEBA@?$AAJ?$AAa?$AAn?$AAu?$AAa?$AAr?$AAy@ 00531ec4     libucrt:nlsdata.obj
 0002:00003ed4       ??_C@_1BC@JGDDFFAM@?$AAF?$AAe?$AAb?$AAr?$AAu?$AAa?$AAr?$AAy@ 00531ed4     libucrt:nlsdata.obj
 0002:00003ee8       ??_C@_1M@IKEENEDF@?$AAM?$AAa?$AAr?$AAc?$AAh@ 00531ee8     libucrt:nlsdata.obj
 0002:00003ef4       ??_C@_1M@GJNLMHFD@?$AAA?$AAp?$AAr?$AAi?$AAl@ 00531ef4     libucrt:nlsdata.obj
 0002:00003f00       ??_C@_19EPFLPGAP@?$AAJ?$AAu?$AAn?$AAe@ 00531f00     libucrt:nlsdata.obj
 0002:00003f0c       ??_C@_19BIFMLPCD@?$AAJ?$AAu?$AAl?$AAy@ 00531f0c     libucrt:nlsdata.obj
 0002:00003f18       ??_C@_1O@PAHLKOAC@?$AAA?$AAu?$AAg?$AAu?$AAs?$AAt@ 00531f18     libucrt:nlsdata.obj
 0002:00003f28       ??_C@_1BE@DKAAMBJL@?$AAS?$AAe?$AAp?$AAt?$AAe?$AAm?$AAb?$AAe?$AAr@ 00531f28     libucrt:nlsdata.obj
 0002:00003f3c       ??_C@_1BA@EPANDLNG@?$AAO?$AAc?$AAt?$AAo?$AAb?$AAe?$AAr@ 00531f3c     libucrt:nlsdata.obj
 0002:00003f4c       ??_C@_1BC@BGLIFPF@?$AAN?$AAo?$AAv?$AAe?$AAm?$AAb?$AAe?$AAr@ 00531f4c     libucrt:nlsdata.obj
 0002:00003f60       ??_C@_1BC@FEMKIFH@?$AAD?$AAe?$AAc?$AAe?$AAm?$AAb?$AAe?$AAr@ 00531f60     libucrt:nlsdata.obj
 0002:00003f74       ??_C@_15ODEHAHHF@?$AAA?$AAM@ 00531f74     libucrt:nlsdata.obj
 0002:00003f7c       ??_C@_15CLMNNGEL@?$AAP?$AAM@ 00531f7c     libucrt:nlsdata.obj
 0002:00003f84       ??_C@_1BC@IEBCMHCM@?$AAM?$AAM?$AA?1?$AAd?$AAd?$AA?1?$AAy?$AAy@ 00531f84     libucrt:nlsdata.obj
 0002:00003f98       ??_C@_1CI@KNAKOEBC@?$AAd?$AAd?$AAd?$AAd?$AA?0?$AA?5?$AAM?$AAM?$AAM?$AAM?$AA?5?$AAd?$AAd?$AA?0?$AA?5@ 00531f98     libucrt:nlsdata.obj
 0002:00003fc0       ??_C@_1BC@GDGBMEMK@?$AAH?$AAH?$AA?3?$AAm?$AAm?$AA?3?$AAs?$AAs@ 00531fc0     libucrt:nlsdata.obj
 0002:00003fd4       ??_C@_1M@BMHNFIME@?$AAe?$AAn?$AA?9?$AAU?$AAS@ 00531fd4     libucrt:nlsdata.obj
 0002:00003fe0       ??_C@_03MGHMBJCF@log@      00531fe0     libucrt:libm_error.obj
 0002:00003ff0       __OP_ATAN2jmptab           00531ff0     libucrt:87triga.obj
 0002:000041e8       __DEFAULT_CW_in_mem        005321e8     libucrt:common.obj
 0002:000041ea       __pi_by_2_to_61            005321ea     libucrt:common.obj
 0002:00004238       ___newctype                00532238     libucrt:ctype.obj
 0002:00004538       ___newclmap                00532538     libucrt:ctype.obj
 0002:000046b8       ___newcumap                005326b8     libucrt:ctype.obj
 0002:00004838       __wctype                   00532838     libucrt:ctype.obj
 0002:00004a90       ??_C@_1EA@JGEFHKEI@?$AAa?$AAp?$AAi?$AA?9?$AAm?$AAs?$AA?9?$AAw?$AAi?$AAn?$AA?9?$AAc?$AAo?$AAr?$AAe@ 00532a90     libucrt:winapi_thunks.obj
 0002:00004ad0       ??_C@_1DI@IJCEHOCB@?$AAa?$AAp?$AAi?$AA?9?$AAm?$AAs?$AA?9?$AAw?$AAi?$AAn?$AA?9?$AAc?$AAo?$AAr?$AAe@ 00532ad0     libucrt:winapi_thunks.obj
 0002:00004b08       ??_C@_1EI@MPIAOHOC@?$AAa?$AAp?$AAi?$AA?9?$AAm?$AAs?$AA?9?$AAw?$AAi?$AAn?$AA?9?$AAc?$AAo?$AAr?$AAe@ 00532b08     libucrt:winapi_thunks.obj
 0002:00004b50       ??_C@_1FK@FPHCKFIE@?$AAa?$AAp?$AAi?$AA?9?$AAm?$AAs?$AA?9?$AAw?$AAi?$AAn?$AA?9?$AAc?$AAo?$AAr?$AAe@ 00532b50     libucrt:winapi_thunks.obj
 0002:00004bb0       ??_C@_1EM@DILCGIIO@?$AAa?$AAp?$AAi?$AA?9?$AAm?$AAs?$AA?9?$AAw?$AAi?$AAn?$AA?9?$AAc?$AAo?$AAr?$AAe@ 00532bb0     libucrt:winapi_thunks.obj
 0002:00004bfc       ??_C@_1DM@LNCGDDPN@?$AAa?$AAp?$AAi?$AA?9?$AAm?$AAs?$AA?9?$AAw?$AAi?$AAn?$AA?9?$AAc?$AAo?$AAr?$AAe@ 00532bfc     libucrt:winapi_thunks.obj
 0002:00004c38       ??_C@_1DO@FPAPJEMD@?$AAa?$AAp?$AAi?$AA?9?$AAm?$AAs?$AA?9?$AAw?$AAi?$AAn?$AA?9?$AAc?$AAo?$AAr?$AAe@ 00532c38     libucrt:winapi_thunks.obj
 0002:00004c78       ??_C@_1DK@NDHNAHIO@?$AAa?$AAp?$AAi?$AA?9?$AAm?$AAs?$AA?9?$AAw?$AAi?$AAn?$AA?9?$AAc?$AAo?$AAr?$AAe@ 00532c78     libucrt:winapi_thunks.obj
 0002:00004cb4       ??_C@_1DM@KGHDGBCM@?$AAa?$AAp?$AAi?$AA?9?$AAm?$AAs?$AA?9?$AAw?$AAi?$AAn?$AA?9?$AAc?$AAo?$AAr?$AAe@ 00532cb4     libucrt:winapi_thunks.obj
 0002:00004cf0       ??_C@_1EO@IJIOEFOH@?$AAa?$AAp?$AAi?$AA?9?$AAm?$AAs?$AA?9?$AAw?$AAi?$AAn?$AA?9?$AAr?$AAt?$AAc?$AAo@ 00532cf0     libucrt:winapi_thunks.obj
 0002:00004d40       ??_C@_1FG@HHGEKANL@?$AAa?$AAp?$AAi?$AA?9?$AAm?$AAs?$AA?9?$AAw?$AAi?$AAn?$AA?9?$AAs?$AAe?$AAc?$AAu@ 00532d40     libucrt:winapi_thunks.obj
 0002:00004d98       ??_C@_1EG@DBIOJECG@?$AAe?$AAx?$AAt?$AA?9?$AAm?$AAs?$AA?9?$AAw?$AAi?$AAn?$AA?9?$AAn?$AAt?$AAu?$AAs@ 00532d98     libucrt:winapi_thunks.obj
 0002:00004de0       ??_C@_1EO@FIHMJCLF@?$AAe?$AAx?$AAt?$AA?9?$AAm?$AAs?$AA?9?$AAw?$AAi?$AAn?$AA?9?$AAn?$AAt?$AAu?$AAs@ 00532de0     libucrt:winapi_thunks.obj
 0002:00004e30       ??_C@_1BC@DNHGCMLG@?$AAa?$AAd?$AAv?$AAa?$AAp?$AAi?$AA3?$AA2@ 00532e30     libucrt:winapi_thunks.obj
 0002:00004e44       ??_C@_1M@OAIMIKLP@?$AAn?$AAt?$AAd?$AAl?$AAl@ 00532e44     libucrt:winapi_thunks.obj
 0002:00004e50       ??_C@_1EG@DPGNFKGC@?$AAa?$AAp?$AAi?$AA?9?$AAm?$AAs?$AA?9?$AAw?$AAi?$AAn?$AA?9?$AAa?$AAp?$AAp?$AAm@ 00532e50     libucrt:winapi_thunks.obj
 0002:00004e98       ??_C@_1O@BCCLBEOE@?$AAu?$AAs?$AAe?$AAr?$AA3?$AA2@ 00532e98     libucrt:winapi_thunks.obj
 0002:00004ea8       ??_C@_1BA@IAIFMGEF@?$AAe?$AAx?$AAt?$AA?9?$AAm?$AAs?$AA?9@ 00532ea8     libucrt:winapi_thunks.obj
 0002:00004ebc       ??_C@_0BA@FHFNEAED@AreFileApisANSI@ 00532ebc     libucrt:winapi_thunks.obj
 0002:00004ed4       ??_C@_0BA@IHGNDAEB@CompareStringEx@ 00532ed4     libucrt:winapi_thunks.obj
 0002:00004f0c       ??_C@_0BA@EPCJIIPD@GetDateFormatEx@ 00532f0c     libucrt:winapi_thunks.obj
 0002:00004f24       ??_C@_0BA@CIJJKCJJ@GetTimeFormatEx@ 00532f24     libucrt:winapi_thunks.obj
 0002:00004f44       ??_C@_0O@KKBNKAPF@LCMapStringEx@ 00532f44     libucrt:winapi_thunks.obj
 0002:00004f5c       ??_C@_0BB@HBDEELFH@LocaleNameToLCID@ 00532f5c     libucrt:winapi_thunks.obj
 0002:00004f74       ??_C@_0CF@OJOFEIGO@AppPolicyGetProcessTerminationM@ 00532f74     libucrt:winapi_thunks.obj
 0002:00004fa0       __OP_FMODjmptab            00532fa0     libucrt:87fmod_impl.obj
 0002:00005424       __half                     00533424     libucrt:pow_impl.obj
 0002:000057f0       ___dnames                  005337f0     libucrt:timeset.obj
 0002:00005808       ___mnames                  00533808     libucrt:timeset.obj
 0002:00005830       ??_C@_15HNJCPLHL@?$AAT?$AAZ@ 00533830     libucrt:tzset.obj
 0002:00005838       ??_C@_1M@PBPMMENC@?$AAa?$AAm?$AA?1?$AAp?$AAm@ 00533838     libucrt:wcsftime.obj
 0002:00005844       ??_C@_17BLFJJHMM@?$AAa?$AA?1?$AAp@ 00533844     libucrt:wcsftime.obj
 0002:0000584c       ??_C@_13HOIJIPNN@?$AA?5@   0053384c     libucrt:wcsftime.obj
 0002:00005850       ??_C@_13LBAGMAIH@?$AA?6@   00533850     libucrt:wcsftime.obj
 0002:00005854       ??_C@_13EBCNDICG@?$AA?3@   00533854     libucrt:wcsftime.obj
 0002:00005858       ??_C@_13KDLDGPGJ@?$AA?7@   00533858     libucrt:wcsftime.obj
 0002:0000585c       ??_C@_13KJIIAINM@?$AA?$CL@ 0053385c     libucrt:wcsftime.obj
 0002:00005860       ??_C@_13EJFHHPOP@?$AA?$CF@ 00533860     libucrt:wcsftime.obj
 0002:00005864       ?ccs@?1???$__acrt_stdio_parse_mode@D@@YA?AU__acrt_stdio_stream_mode@@QBD@Z@4QBDB 00533864     libucrt:openfile.obj
 0002:00005868       ?utf8_encoding@?1???$__acrt_stdio_parse_mode@D@@YA?AU__acrt_stdio_stream_mode@@QBD@Z@4QBDB 00533868     libucrt:openfile.obj
 0002:00005870       ?utf16_encoding@?1???$__acrt_stdio_parse_mode@D@@YA?AU__acrt_stdio_stream_mode@@QBD@Z@4QBDB 00533870     libucrt:openfile.obj
 0002:00005878       ?unicode_encoding@?1???$__acrt_stdio_parse_mode@D@@YA?AU__acrt_stdio_stream_mode@@QBD@Z@4QBDB 00533878     libucrt:openfile.obj
 0002:00005880       __sys_first_posix_error    00533880     libucrt:syserr.obj
 0002:00005884       __sys_last_posix_error     00533884     libucrt:syserr.obj
 0002:00005888       __sys_posix_errlist        00533888     libucrt:syserr.obj
 0002:00005930       __sys_errlist              00533930     libucrt:syserr.obj
 0002:000059e0       ??_C@_08INEPGKHH@No?5error@ 005339e0     libucrt:syserr.obj
 0002:000059ec       ??_C@_0BI@BJFCGOHL@Operation?5not?5permitted@ 005339ec     libucrt:syserr.obj
 0002:00005a04       ??_C@_0BK@FMDHKPNF@No?5such?5file?5or?5directory@ 00533a04     libucrt:syserr.obj
 0002:00005a20       ??_C@_0BA@FKIAIBGA@No?5such?5process@ 00533a20     libucrt:syserr.obj
 0002:00005a30       ??_C@_0BK@FJBOAFDK@Interrupted?5function?5call@ 00533a30     libucrt:syserr.obj
 0002:00005a4c       ??_C@_0BD@KKNFOBBD@Input?1output?5error@ 00533a4c     libucrt:syserr.obj
 0002:00005a60       ??_C@_0BK@DPKMCKJ@No?5such?5device?5or?5address@ 00533a60     libucrt:syserr.obj
 0002:00005a7c       ??_C@_0BC@MFFGCDFL@Arg?5list?5too?5long@ 00533a7c     libucrt:syserr.obj
 0002:00005a90       ??_C@_0BC@HKPNECK@Exec?5format?5error@ 00533a90     libucrt:syserr.obj
 0002:00005aa4       ??_C@_0BE@NFGDDCEF@Bad?5file?5descriptor@ 00533aa4     libucrt:syserr.obj
 0002:00005ab8       ??_C@_0BD@LOHELEP@No?5child?5processes@ 00533ab8     libucrt:syserr.obj
